
./builds//RowControllerBase.ino.elf:     file format elf32-avr


Disassembly of section .text:

00000000 <__vectors>:
   0:	11 c0       	rjmp	.+34     	; 0x24 <__ctors_end>
   2:	35 c0       	rjmp	.+106    	; 0x6e <__bad_interrupt>
   4:	34 c0       	rjmp	.+104    	; 0x6e <__bad_interrupt>
   6:	33 c0       	rjmp	.+102    	; 0x6e <__bad_interrupt>
   8:	32 c0       	rjmp	.+100    	; 0x6e <__bad_interrupt>
   a:	31 c0       	rjmp	.+98     	; 0x6e <__bad_interrupt>
   c:	30 c0       	rjmp	.+96     	; 0x6e <__bad_interrupt>
   e:	2f c0       	rjmp	.+94     	; 0x6e <__bad_interrupt>
  10:	2e c0       	rjmp	.+92     	; 0x6e <__bad_interrupt>
  12:	2d c0       	rjmp	.+90     	; 0x6e <__bad_interrupt>
  14:	2c c0       	rjmp	.+88     	; 0x6e <__bad_interrupt>
  16:	88 c4       	rjmp	.+2320   	; 0x928 <__vector_11>
  18:	2a c0       	rjmp	.+84     	; 0x6e <__bad_interrupt>
  1a:	29 c0       	rjmp	.+82     	; 0x6e <__bad_interrupt>
  1c:	28 c0       	rjmp	.+80     	; 0x6e <__bad_interrupt>
  1e:	84 c5       	rjmp	.+2824   	; 0xb28 <__vector_15>
  20:	cd c4       	rjmp	.+2458   	; 0x9bc <__vector_16>

00000022 <__ctors_start>:
  22:	0a 07       	cpc	r16, r26

00000024 <__ctors_end>:
  24:	11 24       	eor	r1, r1
  26:	1f be       	out	0x3f, r1	; 63
  28:	cf e5       	ldi	r28, 0x5F	; 95
  2a:	d2 e0       	ldi	r29, 0x02	; 2
  2c:	de bf       	out	0x3e, r29	; 62
  2e:	cd bf       	out	0x3d, r28	; 61

00000030 <__do_copy_data>:
  30:	10 e0       	ldi	r17, 0x00	; 0
  32:	a0 e6       	ldi	r26, 0x60	; 96
  34:	b0 e0       	ldi	r27, 0x00	; 0
  36:	e4 e4       	ldi	r30, 0x44	; 68
  38:	ff e0       	ldi	r31, 0x0F	; 15
  3a:	02 c0       	rjmp	.+4      	; 0x40 <__SREG__+0x1>
  3c:	05 90       	lpm	r0, Z+
  3e:	0d 92       	st	X+, r0
  40:	a6 38       	cpi	r26, 0x86	; 134
  42:	b1 07       	cpc	r27, r17
  44:	d9 f7       	brne	.-10     	; 0x3c <__do_copy_data+0xc>

00000046 <__do_clear_bss>:
  46:	22 e0       	ldi	r18, 0x02	; 2
  48:	a6 e8       	ldi	r26, 0x86	; 134
  4a:	b0 e0       	ldi	r27, 0x00	; 0
  4c:	01 c0       	rjmp	.+2      	; 0x50 <.do_clear_bss_start>

0000004e <.do_clear_bss_loop>:
  4e:	1d 92       	st	X+, r1

00000050 <.do_clear_bss_start>:
  50:	af 31       	cpi	r26, 0x1F	; 31
  52:	b2 07       	cpc	r27, r18
  54:	e1 f7       	brne	.-8      	; 0x4e <.do_clear_bss_loop>

00000056 <__do_global_ctors>:
  56:	10 e0       	ldi	r17, 0x00	; 0
  58:	c2 e1       	ldi	r28, 0x12	; 18
  5a:	d0 e0       	ldi	r29, 0x00	; 0
  5c:	03 c0       	rjmp	.+6      	; 0x64 <__do_global_ctors+0xe>
  5e:	21 97       	sbiw	r28, 0x01	; 1
  60:	fe 01       	movw	r30, r28
  62:	64 d7       	rcall	.+3784   	; 0xf2c <__tablejump2__>
  64:	c1 31       	cpi	r28, 0x11	; 17
  66:	d1 07       	cpc	r29, r17
  68:	d1 f7       	brne	.-12     	; 0x5e <__do_global_ctors+0x8>
  6a:	7b d5       	rcall	.+2806   	; 0xb62 <main>
  6c:	69 c7       	rjmp	.+3794   	; 0xf40 <_exit>

0000006e <__bad_interrupt>:
  6e:	c8 cf       	rjmp	.-112    	; 0x0 <__vectors>

00000070 <micros>:
  70:	3f b7       	in	r19, 0x3f	; 63
  72:	f8 94       	cli
  74:	80 91 fe 01 	lds	r24, 0x01FE	; 0x8001fe <millis_timer_overflow_count>
  78:	90 91 ff 01 	lds	r25, 0x01FF	; 0x8001ff <millis_timer_overflow_count+0x1>
  7c:	a0 91 00 02 	lds	r26, 0x0200	; 0x800200 <millis_timer_overflow_count+0x2>
  80:	b0 91 01 02 	lds	r27, 0x0201	; 0x800201 <millis_timer_overflow_count+0x3>
  84:	22 b7       	in	r18, 0x32	; 50
  86:	08 b6       	in	r0, 0x38	; 56
  88:	00 fe       	sbrs	r0, 0
  8a:	05 c0       	rjmp	.+10     	; 0x96 <micros+0x26>
  8c:	2f 3f       	cpi	r18, 0xFF	; 255
  8e:	19 f0       	breq	.+6      	; 0x96 <micros+0x26>
  90:	01 96       	adiw	r24, 0x01	; 1
  92:	a1 1d       	adc	r26, r1
  94:	b1 1d       	adc	r27, r1
  96:	3f bf       	out	0x3f, r19	; 63
  98:	ba 2f       	mov	r27, r26
  9a:	a9 2f       	mov	r26, r25
  9c:	98 2f       	mov	r25, r24
  9e:	88 27       	eor	r24, r24
  a0:	bc 01       	movw	r22, r24
  a2:	cd 01       	movw	r24, r26
  a4:	62 0f       	add	r22, r18
  a6:	71 1d       	adc	r23, r1
  a8:	81 1d       	adc	r24, r1
  aa:	91 1d       	adc	r25, r1
  ac:	43 e0       	ldi	r20, 0x03	; 3
  ae:	66 0f       	add	r22, r22
  b0:	77 1f       	adc	r23, r23
  b2:	88 1f       	adc	r24, r24
  b4:	99 1f       	adc	r25, r25
  b6:	4a 95       	dec	r20
  b8:	d1 f7       	brne	.-12     	; 0xae <micros+0x3e>
  ba:	08 95       	ret

000000bc <CFastLED::show(unsigned char) [clone .constprop.18]>:
  bc:	3f 92       	push	r3
  be:	4f 92       	push	r4
  c0:	5f 92       	push	r5
  c2:	6f 92       	push	r6
  c4:	7f 92       	push	r7
  c6:	8f 92       	push	r8
  c8:	9f 92       	push	r9
  ca:	af 92       	push	r10
  cc:	bf 92       	push	r11
  ce:	cf 92       	push	r12
  d0:	df 92       	push	r13
  d2:	ef 92       	push	r14
  d4:	ff 92       	push	r15
  d6:	0f 93       	push	r16
  d8:	1f 93       	push	r17
  da:	cf 93       	push	r28
  dc:	df 93       	push	r29
  de:	00 d0       	rcall	.+0      	; 0xe0 <CFastLED::show(unsigned char) [clone .constprop.18]+0x24>
  e0:	1f 92       	push	r1
  e2:	cd b7       	in	r28, 0x3d	; 61
  e4:	de b7       	in	r29, 0x3e	; 62
  e6:	d8 2e       	mov	r13, r24
  e8:	80 91 0f 02 	lds	r24, 0x020F	; 0x80020f <FastLED+0x3>
  ec:	90 91 10 02 	lds	r25, 0x0210	; 0x800210 <FastLED+0x4>
  f0:	a0 91 11 02 	lds	r26, 0x0211	; 0x800211 <FastLED+0x5>
  f4:	b0 91 12 02 	lds	r27, 0x0212	; 0x800212 <FastLED+0x6>
  f8:	89 2b       	or	r24, r25
  fa:	8a 2b       	or	r24, r26
  fc:	8b 2b       	or	r24, r27
  fe:	d1 f0       	breq	.+52     	; 0x134 <CFastLED::show(unsigned char) [clone .constprop.18]+0x78>
 100:	b7 df       	rcall	.-146    	; 0x70 <micros>
 102:	00 91 1b 02 	lds	r16, 0x021B	; 0x80021b <lastshow>
 106:	10 91 1c 02 	lds	r17, 0x021C	; 0x80021c <lastshow+0x1>
 10a:	20 91 1d 02 	lds	r18, 0x021D	; 0x80021d <lastshow+0x2>
 10e:	30 91 1e 02 	lds	r19, 0x021E	; 0x80021e <lastshow+0x3>
 112:	60 1b       	sub	r22, r16
 114:	71 0b       	sbc	r23, r17
 116:	82 0b       	sbc	r24, r18
 118:	93 0b       	sbc	r25, r19
 11a:	00 91 0f 02 	lds	r16, 0x020F	; 0x80020f <FastLED+0x3>
 11e:	10 91 10 02 	lds	r17, 0x0210	; 0x800210 <FastLED+0x4>
 122:	20 91 11 02 	lds	r18, 0x0211	; 0x800211 <FastLED+0x5>
 126:	30 91 12 02 	lds	r19, 0x0212	; 0x800212 <FastLED+0x6>
 12a:	60 17       	cp	r22, r16
 12c:	71 07       	cpc	r23, r17
 12e:	82 07       	cpc	r24, r18
 130:	93 07       	cpc	r25, r19
 132:	d0 f2       	brcs	.-76     	; 0xe8 <CFastLED::show(unsigned char) [clone .constprop.18]+0x2c>
 134:	9d df       	rcall	.-198    	; 0x70 <micros>
 136:	60 93 1b 02 	sts	0x021B, r22	; 0x80021b <lastshow>
 13a:	70 93 1c 02 	sts	0x021C, r23	; 0x80021c <lastshow+0x1>
 13e:	80 93 1d 02 	sts	0x021D, r24	; 0x80021d <lastshow+0x2>
 142:	90 93 1e 02 	sts	0x021E, r25	; 0x80021e <lastshow+0x3>
 146:	e0 91 17 02 	lds	r30, 0x0217	; 0x800217 <FastLED+0xb>
 14a:	f0 91 18 02 	lds	r31, 0x0218	; 0x800218 <FastLED+0xc>
 14e:	30 97       	sbiw	r30, 0x00	; 0
 150:	59 f0       	breq	.+22     	; 0x168 <CFastLED::show(unsigned char) [clone .constprop.18]+0xac>
 152:	40 91 13 02 	lds	r20, 0x0213	; 0x800213 <FastLED+0x7>
 156:	50 91 14 02 	lds	r21, 0x0214	; 0x800214 <FastLED+0x8>
 15a:	60 91 15 02 	lds	r22, 0x0215	; 0x800215 <FastLED+0x9>
 15e:	70 91 16 02 	lds	r23, 0x0216	; 0x800216 <FastLED+0xa>
 162:	8d 2d       	mov	r24, r13
 164:	09 95       	icall
 166:	d8 2e       	mov	r13, r24
 168:	e0 90 19 02 	lds	r14, 0x0219	; 0x800219 <CLEDController::m_pHead>
 16c:	f0 90 1a 02 	lds	r15, 0x021A	; 0x80021a <CLEDController::m_pHead+0x1>
 170:	4d 2c       	mov	r4, r13
 172:	51 2c       	mov	r5, r1
 174:	71 2c       	mov	r7, r1
 176:	61 2c       	mov	r6, r1
 178:	e1 14       	cp	r14, r1
 17a:	f1 04       	cpc	r15, r1
 17c:	09 f4       	brne	.+2      	; 0x180 <CFastLED::show(unsigned char) [clone .constprop.18]+0xc4>
 17e:	5a c0       	rjmp	.+180    	; 0x234 <CFastLED::show(unsigned char) [clone .constprop.18]+0x178>
 180:	d7 01       	movw	r26, r14
 182:	1c 96       	adiw	r26, 0x0c	; 12
 184:	cc 90       	ld	r12, X
 186:	1c 97       	sbiw	r26, 0x0c	; 12
 188:	80 91 0d 02 	lds	r24, 0x020D	; 0x80020d <FastLED+0x1>
 18c:	90 91 0e 02 	lds	r25, 0x020E	; 0x80020e <FastLED+0x2>
 190:	84 36       	cpi	r24, 0x64	; 100
 192:	91 05       	cpc	r25, r1
 194:	10 f4       	brcc	.+4      	; 0x19a <CFastLED::show(unsigned char) [clone .constprop.18]+0xde>
 196:	1c 96       	adiw	r26, 0x0c	; 12
 198:	1c 92       	st	X, r1
 19a:	d7 01       	movw	r26, r14
 19c:	ed 91       	ld	r30, X+
 19e:	fc 91       	ld	r31, X
 1a0:	82 80       	ldd	r8, Z+2	; 0x02
 1a2:	93 80       	ldd	r9, Z+3	; 0x03
 1a4:	19 82       	std	Y+1, r1	; 0x01
 1a6:	1a 82       	std	Y+2, r1	; 0x02
 1a8:	1b 82       	std	Y+3, r1	; 0x03
 1aa:	dd 20       	and	r13, r13
 1ac:	69 f1       	breq	.+90     	; 0x208 <CFastLED::show(unsigned char) [clone .constprop.18]+0x14c>
 1ae:	57 01       	movw	r10, r14
 1b0:	b6 e0       	ldi	r27, 0x06	; 6
 1b2:	ab 0e       	add	r10, r27
 1b4:	b1 1c       	adc	r11, r1
 1b6:	10 e0       	ldi	r17, 0x00	; 0
 1b8:	00 e0       	ldi	r16, 0x00	; 0
 1ba:	f5 01       	movw	r30, r10
 1bc:	61 91       	ld	r22, Z+
 1be:	5f 01       	movw	r10, r30
 1c0:	66 23       	and	r22, r22
 1c2:	e9 f0       	breq	.+58     	; 0x1fe <CFastLED::show(unsigned char) [clone .constprop.18]+0x142>
 1c4:	32 80       	ldd	r3, Z+2	; 0x02
 1c6:	33 20       	and	r3, r3
 1c8:	d1 f0       	breq	.+52     	; 0x1fe <CFastLED::show(unsigned char) [clone .constprop.18]+0x142>
 1ca:	70 e0       	ldi	r23, 0x00	; 0
 1cc:	90 e0       	ldi	r25, 0x00	; 0
 1ce:	80 e0       	ldi	r24, 0x00	; 0
 1d0:	6f 5f       	subi	r22, 0xFF	; 255
 1d2:	7f 4f       	sbci	r23, 0xFF	; 255
 1d4:	8f 4f       	sbci	r24, 0xFF	; 255
 1d6:	9f 4f       	sbci	r25, 0xFF	; 255
 1d8:	a3 01       	movw	r20, r6
 1da:	92 01       	movw	r18, r4
 1dc:	45 d6       	rcall	.+3210   	; 0xe68 <__mulsi3>
 1de:	23 2d       	mov	r18, r3
 1e0:	30 e0       	ldi	r19, 0x00	; 0
 1e2:	50 e0       	ldi	r21, 0x00	; 0
 1e4:	40 e0       	ldi	r20, 0x00	; 0
 1e6:	2f 5f       	subi	r18, 0xFF	; 255
 1e8:	3f 4f       	sbci	r19, 0xFF	; 255
 1ea:	4f 4f       	sbci	r20, 0xFF	; 255
 1ec:	5f 4f       	sbci	r21, 0xFF	; 255
 1ee:	3c d6       	rcall	.+3192   	; 0xe68 <__mulsi3>
 1f0:	e1 e0       	ldi	r30, 0x01	; 1
 1f2:	f0 e0       	ldi	r31, 0x00	; 0
 1f4:	ec 0f       	add	r30, r28
 1f6:	fd 1f       	adc	r31, r29
 1f8:	e0 0f       	add	r30, r16
 1fa:	f1 1f       	adc	r31, r17
 1fc:	80 83       	st	Z, r24
 1fe:	0f 5f       	subi	r16, 0xFF	; 255
 200:	1f 4f       	sbci	r17, 0xFF	; 255
 202:	03 30       	cpi	r16, 0x03	; 3
 204:	11 05       	cpc	r17, r1
 206:	c9 f6       	brne	.-78     	; 0x1ba <CFastLED::show(unsigned char) [clone .constprop.18]+0xfe>
 208:	09 81       	ldd	r16, Y+1	; 0x01
 20a:	1a 81       	ldd	r17, Y+2	; 0x02
 20c:	2b 81       	ldd	r18, Y+3	; 0x03
 20e:	d7 01       	movw	r26, r14
 210:	1d 96       	adiw	r26, 0x0d	; 13
 212:	4d 91       	ld	r20, X+
 214:	5c 91       	ld	r21, X
 216:	1e 97       	sbiw	r26, 0x0e	; 14
 218:	12 96       	adiw	r26, 0x02	; 2
 21a:	6d 91       	ld	r22, X+
 21c:	7c 91       	ld	r23, X
 21e:	c7 01       	movw	r24, r14
 220:	f4 01       	movw	r30, r8
 222:	09 95       	icall
 224:	d7 01       	movw	r26, r14
 226:	1c 96       	adiw	r26, 0x0c	; 12
 228:	cc 92       	st	X, r12
 22a:	1c 97       	sbiw	r26, 0x0c	; 12
 22c:	14 96       	adiw	r26, 0x04	; 4
 22e:	ed 90       	ld	r14, X+
 230:	fc 90       	ld	r15, X
 232:	a2 cf       	rjmp	.-188    	; 0x178 <CFastLED::show(unsigned char) [clone .constprop.18]+0xbc>
 234:	80 91 0a 02 	lds	r24, 0x020A	; 0x80020a <CFastLED::countFPS(int)::br>
 238:	90 91 0b 02 	lds	r25, 0x020B	; 0x80020b <CFastLED::countFPS(int)::br+0x1>
 23c:	9c 01       	movw	r18, r24
 23e:	2f 5f       	subi	r18, 0xFF	; 255
 240:	3f 4f       	sbci	r19, 0xFF	; 255
 242:	30 93 0b 02 	sts	0x020B, r19	; 0x80020b <CFastLED::countFPS(int)::br+0x1>
 246:	20 93 0a 02 	sts	0x020A, r18	; 0x80020a <CFastLED::countFPS(int)::br>
 24a:	49 97       	sbiw	r24, 0x19	; 25
 24c:	0c f4       	brge	.+2      	; 0x250 <CFastLED::show(unsigned char) [clone .constprop.18]+0x194>
 24e:	45 c0       	rjmp	.+138    	; 0x2da <__stack+0x7b>
 250:	8f b7       	in	r24, 0x3f	; 63
 252:	f8 94       	cli
 254:	00 91 02 02 	lds	r16, 0x0202	; 0x800202 <millis_timer_millis>
 258:	10 91 03 02 	lds	r17, 0x0203	; 0x800203 <millis_timer_millis+0x1>
 25c:	20 91 04 02 	lds	r18, 0x0204	; 0x800204 <millis_timer_millis+0x2>
 260:	30 91 05 02 	lds	r19, 0x0205	; 0x800205 <millis_timer_millis+0x3>
 264:	8f bf       	out	0x3f, r24	; 63
 266:	80 91 06 02 	lds	r24, 0x0206	; 0x800206 <CFastLED::countFPS(int)::lastframe>
 26a:	90 91 07 02 	lds	r25, 0x0207	; 0x800207 <CFastLED::countFPS(int)::lastframe+0x1>
 26e:	a0 91 08 02 	lds	r26, 0x0208	; 0x800208 <CFastLED::countFPS(int)::lastframe+0x2>
 272:	b0 91 09 02 	lds	r27, 0x0209	; 0x800209 <CFastLED::countFPS(int)::lastframe+0x3>
 276:	08 1b       	sub	r16, r24
 278:	19 0b       	sbc	r17, r25
 27a:	2a 0b       	sbc	r18, r26
 27c:	3b 0b       	sbc	r19, r27
 27e:	21 f4       	brne	.+8      	; 0x288 <__stack+0x29>
 280:	01 e0       	ldi	r16, 0x01	; 1
 282:	10 e0       	ldi	r17, 0x00	; 0
 284:	20 e0       	ldi	r18, 0x00	; 0
 286:	30 e0       	ldi	r19, 0x00	; 0
 288:	80 91 0a 02 	lds	r24, 0x020A	; 0x80020a <CFastLED::countFPS(int)::br>
 28c:	90 91 0b 02 	lds	r25, 0x020B	; 0x80020b <CFastLED::countFPS(int)::br+0x1>
 290:	68 ee       	ldi	r22, 0xE8	; 232
 292:	73 e0       	ldi	r23, 0x03	; 3
 294:	d8 d5       	rcall	.+2992   	; 0xe46 <__mulhi3>
 296:	bc 01       	movw	r22, r24
 298:	99 0f       	add	r25, r25
 29a:	88 0b       	sbc	r24, r24
 29c:	99 0b       	sbc	r25, r25
 29e:	a9 01       	movw	r20, r18
 2a0:	98 01       	movw	r18, r16
 2a2:	0e d6       	rcall	.+3100   	; 0xec0 <__udivmodsi4>
 2a4:	30 93 0e 02 	sts	0x020E, r19	; 0x80020e <FastLED+0x2>
 2a8:	20 93 0d 02 	sts	0x020D, r18	; 0x80020d <FastLED+0x1>
 2ac:	10 92 0b 02 	sts	0x020B, r1	; 0x80020b <CFastLED::countFPS(int)::br+0x1>
 2b0:	10 92 0a 02 	sts	0x020A, r1	; 0x80020a <CFastLED::countFPS(int)::br>
 2b4:	2f b7       	in	r18, 0x3f	; 63
 2b6:	f8 94       	cli
 2b8:	80 91 02 02 	lds	r24, 0x0202	; 0x800202 <millis_timer_millis>
 2bc:	90 91 03 02 	lds	r25, 0x0203	; 0x800203 <millis_timer_millis+0x1>
 2c0:	a0 91 04 02 	lds	r26, 0x0204	; 0x800204 <millis_timer_millis+0x2>
 2c4:	b0 91 05 02 	lds	r27, 0x0205	; 0x800205 <millis_timer_millis+0x3>
 2c8:	2f bf       	out	0x3f, r18	; 63
 2ca:	80 93 06 02 	sts	0x0206, r24	; 0x800206 <CFastLED::countFPS(int)::lastframe>
 2ce:	90 93 07 02 	sts	0x0207, r25	; 0x800207 <CFastLED::countFPS(int)::lastframe+0x1>
 2d2:	a0 93 08 02 	sts	0x0208, r26	; 0x800208 <CFastLED::countFPS(int)::lastframe+0x2>
 2d6:	b0 93 09 02 	sts	0x0209, r27	; 0x800209 <CFastLED::countFPS(int)::lastframe+0x3>
 2da:	0f 90       	pop	r0
 2dc:	0f 90       	pop	r0
 2de:	0f 90       	pop	r0
 2e0:	df 91       	pop	r29
 2e2:	cf 91       	pop	r28
 2e4:	1f 91       	pop	r17
 2e6:	0f 91       	pop	r16
 2e8:	ff 90       	pop	r15
 2ea:	ef 90       	pop	r14
 2ec:	df 90       	pop	r13
 2ee:	cf 90       	pop	r12
 2f0:	bf 90       	pop	r11
 2f2:	af 90       	pop	r10
 2f4:	9f 90       	pop	r9
 2f6:	8f 90       	pop	r8
 2f8:	7f 90       	pop	r7
 2fa:	6f 90       	pop	r6
 2fc:	5f 90       	pop	r5
 2fe:	4f 90       	pop	r4
 300:	3f 90       	pop	r3
 302:	08 95       	ret

00000304 <ISR_I2C_Recv(unsigned char)>:
 304:	f8 94       	cli
 306:	80 91 fb 01 	lds	r24, 0x01FB	; 0x8001fb <pendIsr>
 30a:	90 91 fc 01 	lds	r25, 0x01FC	; 0x8001fc <pendIsr+0x1>
 30e:	81 60       	ori	r24, 0x01	; 1
 310:	90 93 fc 01 	sts	0x01FC, r25	; 0x8001fc <pendIsr+0x1>
 314:	80 93 fb 01 	sts	0x01FB, r24	; 0x8001fb <pendIsr>
 318:	08 95       	ret

0000031a <ISR_I2C_Send()>:
 31a:	f8 94       	cli
 31c:	80 91 fb 01 	lds	r24, 0x01FB	; 0x8001fb <pendIsr>
 320:	90 91 fc 01 	lds	r25, 0x01FC	; 0x8001fc <pendIsr+0x1>
 324:	82 60       	ori	r24, 0x02	; 2
 326:	90 93 fc 01 	sts	0x01FC, r25	; 0x8001fc <pendIsr+0x1>
 32a:	80 93 fb 01 	sts	0x01FB, r24	; 0x8001fb <pendIsr>
 32e:	08 95       	ret

00000330 <ClocklessController<(unsigned char)3, 2, 5, 3, (EOrder)10, 0, false, 10>::getMaxRefreshRate() const>:
 330:	80 e9       	ldi	r24, 0x90	; 144
 332:	91 e0       	ldi	r25, 0x01	; 1
 334:	08 95       	ret

00000336 <usiTwiReceiveByte>:
 336:	80 91 cd 00 	lds	r24, 0x00CD	; 0x8000cd <rxCount>
 33a:	88 23       	and	r24, r24
 33c:	e1 f3       	breq	.-8      	; 0x336 <usiTwiReceiveByte>
 33e:	e0 91 c7 00 	lds	r30, 0x00C7	; 0x8000c7 <rxTail>
 342:	f0 e0       	ldi	r31, 0x00	; 0
 344:	e8 57       	subi	r30, 0x78	; 120
 346:	ff 4f       	sbci	r31, 0xFF	; 255
 348:	80 81       	ld	r24, Z
 34a:	90 91 c7 00 	lds	r25, 0x00C7	; 0x8000c7 <rxTail>
 34e:	9f 5f       	subi	r25, 0xFF	; 255
 350:	9f 71       	andi	r25, 0x1F	; 31
 352:	90 93 c7 00 	sts	0x00C7, r25	; 0x8000c7 <rxTail>
 356:	90 91 cd 00 	lds	r25, 0x00CD	; 0x8000cd <rxCount>
 35a:	91 50       	subi	r25, 0x01	; 1
 35c:	90 93 cd 00 	sts	0x00CD, r25	; 0x8000cd <rxCount>
 360:	08 95       	ret

00000362 <PixelController<(EOrder)10, 1, 4294967295ul>::init_binary_dithering()>:
 362:	ef 92       	push	r14
 364:	ff 92       	push	r15
 366:	0f 93       	push	r16
 368:	1f 93       	push	r17
 36a:	cf 93       	push	r28
 36c:	df 93       	push	r29
 36e:	30 91 87 00 	lds	r19, 0x0087	; 0x800087 <PixelController<(EOrder)10, 1, 4294967295ul>::init_binary_dithering()::R>
 372:	3f 5f       	subi	r19, 0xFF	; 255
 374:	23 2f       	mov	r18, r19
 376:	27 70       	andi	r18, 0x07	; 7
 378:	20 93 87 00 	sts	0x0087, r18	; 0x800087 <PixelController<(EOrder)10, 1, 4294967295ul>::init_binary_dithering()::R>
 37c:	c0 e8       	ldi	r28, 0x80	; 128
 37e:	30 ff       	sbrs	r19, 0
 380:	c0 e0       	ldi	r28, 0x00	; 0
 382:	21 fd       	sbrc	r18, 1
 384:	c0 64       	ori	r28, 0x40	; 64
 386:	24 70       	andi	r18, 0x04	; 4
 388:	09 f0       	breq	.+2      	; 0x38c <PixelController<(EOrder)10, 1, 4294967295ul>::init_binary_dithering()+0x2a>
 38a:	c0 62       	ori	r28, 0x20	; 32
 38c:	c0 5f       	subi	r28, 0xF0	; 240
 38e:	fc 01       	movw	r30, r24
 390:	8c 01       	movw	r16, r24
 392:	0d 5f       	subi	r16, 0xFD	; 253
 394:	1f 4f       	sbci	r17, 0xFF	; 255
 396:	e1 2c       	mov	r14, r1
 398:	ff 24       	eor	r15, r15
 39a:	f3 94       	inc	r15
 39c:	d0 e0       	ldi	r29, 0x00	; 0
 39e:	24 85       	ldd	r18, Z+12	; 0x0c
 3a0:	22 23       	and	r18, r18
 3a2:	31 f0       	breq	.+12     	; 0x3b0 <PixelController<(EOrder)10, 1, 4294967295ul>::init_binary_dithering()+0x4e>
 3a4:	62 2f       	mov	r22, r18
 3a6:	70 e0       	ldi	r23, 0x00	; 0
 3a8:	c7 01       	movw	r24, r14
 3aa:	77 d5       	rcall	.+2798   	; 0xe9a <__divmodhi4>
 3ac:	21 e0       	ldi	r18, 0x01	; 1
 3ae:	26 0f       	add	r18, r22
 3b0:	21 87       	std	Z+9, r18	; 0x09
 3b2:	82 2f       	mov	r24, r18
 3b4:	90 e0       	ldi	r25, 0x00	; 0
 3b6:	01 96       	adiw	r24, 0x01	; 1
 3b8:	be 01       	movw	r22, r28
 3ba:	45 d5       	rcall	.+2698   	; 0xe46 <__mulhi3>
 3bc:	91 11       	cpse	r25, r1
 3be:	11 c0       	rjmp	.+34     	; 0x3e2 <PixelController<(EOrder)10, 1, 4294967295ul>::init_binary_dithering()+0x80>
 3c0:	16 82       	std	Z+6, r1	; 0x06
 3c2:	22 23       	and	r18, r18
 3c4:	19 f0       	breq	.+6      	; 0x3cc <PixelController<(EOrder)10, 1, 4294967295ul>::init_binary_dithering()+0x6a>
 3c6:	6f ef       	ldi	r22, 0xFF	; 255
 3c8:	62 0f       	add	r22, r18
 3ca:	61 87       	std	Z+9, r22	; 0x09
 3cc:	31 96       	adiw	r30, 0x01	; 1
 3ce:	0e 17       	cp	r16, r30
 3d0:	1f 07       	cpc	r17, r31
 3d2:	29 f7       	brne	.-54     	; 0x39e <PixelController<(EOrder)10, 1, 4294967295ul>::init_binary_dithering()+0x3c>
 3d4:	df 91       	pop	r29
 3d6:	cf 91       	pop	r28
 3d8:	1f 91       	pop	r17
 3da:	0f 91       	pop	r16
 3dc:	ff 90       	pop	r15
 3de:	ef 90       	pop	r14
 3e0:	08 95       	ret
 3e2:	91 50       	subi	r25, 0x01	; 1
 3e4:	96 83       	std	Z+6, r25	; 0x06
 3e6:	ed cf       	rjmp	.-38     	; 0x3c2 <PixelController<(EOrder)10, 1, 4294967295ul>::init_binary_dithering()+0x60>

000003e8 <ClocklessController<(unsigned char)3, 2, 5, 3, (EOrder)10, 0, false, 10>::showPixels(PixelController<(EOrder)10, 1, 4294967295ul>&)>:
 3e8:	4f 92       	push	r4
 3ea:	5f 92       	push	r5
 3ec:	7f 92       	push	r7
 3ee:	8f 92       	push	r8
 3f0:	9f 92       	push	r9
 3f2:	af 92       	push	r10
 3f4:	bf 92       	push	r11
 3f6:	cf 92       	push	r12
 3f8:	df 92       	push	r13
 3fa:	ef 92       	push	r14
 3fc:	ff 92       	push	r15
 3fe:	0f 93       	push	r16
 400:	1f 93       	push	r17
 402:	cf 93       	push	r28
 404:	df 93       	push	r29
 406:	2c 01       	movw	r4, r24
 408:	eb 01       	movw	r28, r22
 40a:	32 de       	rcall	.-924    	; 0x70 <micros>
 40c:	f2 01       	movw	r30, r4
 40e:	27 85       	ldd	r18, Z+15	; 0x0f
 410:	30 89       	ldd	r19, Z+16	; 0x10
 412:	62 1b       	sub	r22, r18
 414:	73 0b       	sbc	r23, r19
 416:	6a 30       	cpi	r22, 0x0A	; 10
 418:	71 05       	cpc	r23, r1
 41a:	b8 f3       	brcs	.-18     	; 0x40a <__LOCK_REGION_LENGTH__+0xa>
 41c:	f8 94       	cli
 41e:	8a 81       	ldd	r24, Y+2	; 0x02
 420:	9b 81       	ldd	r25, Y+3	; 0x03
 422:	18 16       	cp	r1, r24
 424:	19 06       	cpc	r1, r25
 426:	0c f0       	brlt	.+2      	; 0x42a <__LOCK_REGION_LENGTH__+0x2a>
 428:	40 c1       	rjmp	.+640    	; 0x6aa <L_3674>
 42a:	e8 81       	ld	r30, Y
 42c:	f9 81       	ldd	r31, Y+1	; 0x01
 42e:	6b b3       	in	r22, 0x1b	; 27
 430:	86 2e       	mov	r8, r22
 432:	68 94       	set
 434:	83 f8       	bld	r8, 3
 436:	3b b3       	in	r19, 0x1b	; 27
 438:	37 7f       	andi	r19, 0xF7	; 247
 43a:	3b bb       	out	0x1b, r19	; 27
 43c:	d9 84       	ldd	r13, Y+9	; 0x09
 43e:	8e 81       	ldd	r24, Y+6	; 0x06
 440:	2d 2d       	mov	r18, r13
 442:	28 1b       	sub	r18, r24
 444:	82 2f       	mov	r24, r18
 446:	2e 83       	std	Y+6, r18	; 0x06
 448:	4f 85       	ldd	r20, Y+15	; 0x0f
 44a:	04 2e       	mov	r0, r20
 44c:	00 0c       	add	r0, r0
 44e:	55 0b       	sbc	r21, r21
 450:	aa 81       	ldd	r26, Y+2	; 0x02
 452:	bb 81       	ldd	r27, Y+3	; 0x03
 454:	7c 85       	ldd	r23, Y+12	; 0x0c
 456:	fd 84       	ldd	r15, Y+13	; 0x0d
 458:	ee 84       	ldd	r14, Y+14	; 0x0e
 45a:	7f 5f       	subi	r23, 0xFF	; 255
 45c:	f3 94       	inc	r15
 45e:	e3 94       	inc	r14
 460:	9f 81       	ldd	r25, Y+7	; 0x07
 462:	98 84       	ldd	r9, Y+8	; 0x08
 464:	ba 84       	ldd	r11, Y+10	; 0x0a
 466:	ab 84       	ldd	r10, Y+11	; 0x0b
 468:	10 81       	ld	r17, Z
 46a:	c1 2c       	mov	r12, r1
 46c:	6c 2d       	mov	r22, r12
 46e:	0c 2d       	mov	r16, r12
 470:	2c 2d       	mov	r18, r12
 472:	20 81       	ld	r18, Z
 474:	11 27       	eor	r17, r17
 476:	88 94       	clc
 478:	21 11       	cpse	r18, r1
 47a:	28 0f       	add	r18, r24
 47c:	08 f4       	brcc	.+2      	; 0x480 <L_925>
 47e:	2f ef       	ldi	r18, 0xFF	; 255

00000480 <L_925>:
 480:	81 95       	neg	r24
 482:	88 94       	clc
 484:	70 fd       	sbrc	r23, 0
 486:	12 0f       	add	r17, r18
 488:	17 95       	ror	r17
 48a:	88 94       	clc
 48c:	71 fd       	sbrc	r23, 1
 48e:	12 0f       	add	r17, r18
 490:	17 95       	ror	r17
 492:	88 94       	clc
 494:	72 fd       	sbrc	r23, 2
 496:	12 0f       	add	r17, r18
 498:	17 95       	ror	r17
 49a:	88 94       	clc
 49c:	73 fd       	sbrc	r23, 3
 49e:	12 0f       	add	r17, r18
 4a0:	17 95       	ror	r17
 4a2:	88 94       	clc
 4a4:	74 fd       	sbrc	r23, 4
 4a6:	12 0f       	add	r17, r18
 4a8:	17 95       	ror	r17
 4aa:	88 94       	clc
 4ac:	75 fd       	sbrc	r23, 5
 4ae:	12 0f       	add	r17, r18
 4b0:	17 95       	ror	r17
 4b2:	88 94       	clc
 4b4:	76 fd       	sbrc	r23, 6
 4b6:	12 0f       	add	r17, r18
 4b8:	17 95       	ror	r17
 4ba:	88 94       	clc
 4bc:	77 fd       	sbrc	r23, 7
 4be:	12 0f       	add	r17, r18
 4c0:	17 95       	ror	r17
 4c2:	88 94       	clc
 4c4:	62 2f       	mov	r22, r18
 4c6:	71 11       	cpse	r23, r1
 4c8:	61 2f       	mov	r22, r17
 4ca:	8d 0d       	add	r24, r13
 4cc:	16 2f       	mov	r17, r22
 4ce:	00 2c       	mov	r0, r0
 4d0:	8b ba       	out	0x1b, r8	; 27
 4d2:	17 ff       	sbrs	r17, 7
 4d4:	3b bb       	out	0x1b, r19	; 27
 4d6:	21 81       	ldd	r18, Z+1	; 0x01
 4d8:	66 27       	eor	r22, r22
 4da:	88 94       	clc
 4dc:	3b bb       	out	0x1b, r19	; 27
 4de:	21 11       	cpse	r18, r1
 4e0:	29 0f       	add	r18, r25
 4e2:	8b ba       	out	0x1b, r8	; 27
 4e4:	16 ff       	sbrs	r17, 6
 4e6:	3b bb       	out	0x1b, r19	; 27
 4e8:	08 f4       	brcc	.+2      	; 0x4ec <L_1401>
 4ea:	2f ef       	ldi	r18, 0xFF	; 255

000004ec <L_1401>:
 4ec:	91 95       	neg	r25
 4ee:	88 94       	clc
 4f0:	3b bb       	out	0x1b, r19	; 27
 4f2:	f0 fc       	sbrc	r15, 0
 4f4:	62 0f       	add	r22, r18
 4f6:	8b ba       	out	0x1b, r8	; 27
 4f8:	15 ff       	sbrs	r17, 5
 4fa:	3b bb       	out	0x1b, r19	; 27
 4fc:	67 95       	ror	r22
 4fe:	88 94       	clc
 500:	f1 fc       	sbrc	r15, 1
 502:	62 0f       	add	r22, r18
 504:	3b bb       	out	0x1b, r19	; 27
 506:	67 95       	ror	r22
 508:	88 94       	clc
 50a:	8b ba       	out	0x1b, r8	; 27
 50c:	14 ff       	sbrs	r17, 4
 50e:	3b bb       	out	0x1b, r19	; 27
 510:	f2 fc       	sbrc	r15, 2
 512:	62 0f       	add	r22, r18
 514:	67 95       	ror	r22
 516:	88 94       	clc
 518:	3b bb       	out	0x1b, r19	; 27
 51a:	f3 fc       	sbrc	r15, 3
 51c:	62 0f       	add	r22, r18
 51e:	8b ba       	out	0x1b, r8	; 27
 520:	13 ff       	sbrs	r17, 3
 522:	3b bb       	out	0x1b, r19	; 27
 524:	67 95       	ror	r22
 526:	88 94       	clc
 528:	f4 fc       	sbrc	r15, 4
 52a:	62 0f       	add	r22, r18
 52c:	3b bb       	out	0x1b, r19	; 27
 52e:	67 95       	ror	r22
 530:	88 94       	clc
 532:	8b ba       	out	0x1b, r8	; 27
 534:	12 ff       	sbrs	r17, 2
 536:	3b bb       	out	0x1b, r19	; 27
 538:	f5 fc       	sbrc	r15, 5
 53a:	62 0f       	add	r22, r18
 53c:	67 95       	ror	r22
 53e:	88 94       	clc
 540:	3b bb       	out	0x1b, r19	; 27
 542:	f6 fc       	sbrc	r15, 6
 544:	62 0f       	add	r22, r18
 546:	8b ba       	out	0x1b, r8	; 27
 548:	11 ff       	sbrs	r17, 1
 54a:	3b bb       	out	0x1b, r19	; 27
 54c:	67 95       	ror	r22
 54e:	88 94       	clc
 550:	f7 fc       	sbrc	r15, 7
 552:	62 0f       	add	r22, r18
 554:	3b bb       	out	0x1b, r19	; 27
 556:	67 95       	ror	r22
 558:	88 94       	clc
 55a:	8b ba       	out	0x1b, r8	; 27
 55c:	10 ff       	sbrs	r17, 0
 55e:	3b bb       	out	0x1b, r19	; 27
 560:	12 2f       	mov	r17, r18
 562:	f1 10       	cpse	r15, r1
 564:	16 2f       	mov	r17, r22
 566:	9b 0d       	add	r25, r11
 568:	3b bb       	out	0x1b, r19	; 27
 56a:	00 c0       	rjmp	.+0      	; 0x56c <L_1401+0x80>
 56c:	8b ba       	out	0x1b, r8	; 27
 56e:	17 ff       	sbrs	r17, 7
 570:	3b bb       	out	0x1b, r19	; 27
 572:	22 81       	ldd	r18, Z+2	; 0x02
 574:	66 27       	eor	r22, r22
 576:	88 94       	clc
 578:	3b bb       	out	0x1b, r19	; 27
 57a:	21 11       	cpse	r18, r1
 57c:	29 0d       	add	r18, r9
 57e:	8b ba       	out	0x1b, r8	; 27
 580:	16 ff       	sbrs	r17, 6
 582:	3b bb       	out	0x1b, r19	; 27
 584:	08 f4       	brcc	.+2      	; 0x588 <L_2206>
 586:	2f ef       	ldi	r18, 0xFF	; 255

00000588 <L_2206>:
 588:	e4 0f       	add	r30, r20
 58a:	f5 1f       	adc	r31, r21
 58c:	3b bb       	out	0x1b, r19	; 27
 58e:	e0 fc       	sbrc	r14, 0
 590:	62 0f       	add	r22, r18
 592:	8b ba       	out	0x1b, r8	; 27
 594:	15 ff       	sbrs	r17, 5
 596:	3b bb       	out	0x1b, r19	; 27
 598:	67 95       	ror	r22
 59a:	88 94       	clc
 59c:	e1 fc       	sbrc	r14, 1
 59e:	62 0f       	add	r22, r18
 5a0:	3b bb       	out	0x1b, r19	; 27
 5a2:	67 95       	ror	r22
 5a4:	88 94       	clc
 5a6:	8b ba       	out	0x1b, r8	; 27
 5a8:	14 ff       	sbrs	r17, 4
 5aa:	3b bb       	out	0x1b, r19	; 27
 5ac:	e2 fc       	sbrc	r14, 2
 5ae:	62 0f       	add	r22, r18
 5b0:	67 95       	ror	r22
 5b2:	88 94       	clc
 5b4:	3b bb       	out	0x1b, r19	; 27
 5b6:	e3 fc       	sbrc	r14, 3
 5b8:	62 0f       	add	r22, r18
 5ba:	8b ba       	out	0x1b, r8	; 27
 5bc:	13 ff       	sbrs	r17, 3
 5be:	3b bb       	out	0x1b, r19	; 27
 5c0:	67 95       	ror	r22
 5c2:	88 94       	clc
 5c4:	e4 fc       	sbrc	r14, 4
 5c6:	62 0f       	add	r22, r18
 5c8:	3b bb       	out	0x1b, r19	; 27
 5ca:	67 95       	ror	r22
 5cc:	88 94       	clc
 5ce:	8b ba       	out	0x1b, r8	; 27
 5d0:	12 ff       	sbrs	r17, 2
 5d2:	3b bb       	out	0x1b, r19	; 27
 5d4:	e5 fc       	sbrc	r14, 5
 5d6:	62 0f       	add	r22, r18
 5d8:	67 95       	ror	r22
 5da:	88 94       	clc
 5dc:	3b bb       	out	0x1b, r19	; 27
 5de:	e6 fc       	sbrc	r14, 6
 5e0:	62 0f       	add	r22, r18
 5e2:	8b ba       	out	0x1b, r8	; 27
 5e4:	11 ff       	sbrs	r17, 1
 5e6:	3b bb       	out	0x1b, r19	; 27
 5e8:	67 95       	ror	r22
 5ea:	88 94       	clc
 5ec:	e7 fc       	sbrc	r14, 7
 5ee:	62 0f       	add	r22, r18
 5f0:	3b bb       	out	0x1b, r19	; 27
 5f2:	67 95       	ror	r22
 5f4:	88 94       	clc
 5f6:	8b ba       	out	0x1b, r8	; 27
 5f8:	10 ff       	sbrs	r17, 0
 5fa:	3b bb       	out	0x1b, r19	; 27
 5fc:	12 2f       	mov	r17, r18
 5fe:	e1 10       	cpse	r14, r1
 600:	16 2f       	mov	r17, r22
 602:	91 94       	neg	r9
 604:	3b bb       	out	0x1b, r19	; 27
 606:	9a 0c       	add	r9, r10
 608:	00 2c       	mov	r0, r0
 60a:	8b ba       	out	0x1b, r8	; 27
 60c:	17 ff       	sbrs	r17, 7
 60e:	3b bb       	out	0x1b, r19	; 27
 610:	20 81       	ld	r18, Z
 612:	66 27       	eor	r22, r22
 614:	88 94       	clc
 616:	3b bb       	out	0x1b, r19	; 27
 618:	21 11       	cpse	r18, r1
 61a:	28 0f       	add	r18, r24
 61c:	8b ba       	out	0x1b, r8	; 27
 61e:	16 ff       	sbrs	r17, 6
 620:	3b bb       	out	0x1b, r19	; 27
 622:	08 f4       	brcc	.+2      	; 0x626 <L_3028>
 624:	2f ef       	ldi	r18, 0xFF	; 255

00000626 <L_3028>:
 626:	81 95       	neg	r24
 628:	88 94       	clc
 62a:	3b bb       	out	0x1b, r19	; 27
 62c:	70 fd       	sbrc	r23, 0
 62e:	62 0f       	add	r22, r18
 630:	8b ba       	out	0x1b, r8	; 27
 632:	15 ff       	sbrs	r17, 5
 634:	3b bb       	out	0x1b, r19	; 27
 636:	67 95       	ror	r22
 638:	88 94       	clc
 63a:	71 fd       	sbrc	r23, 1
 63c:	62 0f       	add	r22, r18
 63e:	3b bb       	out	0x1b, r19	; 27
 640:	67 95       	ror	r22
 642:	88 94       	clc
 644:	8b ba       	out	0x1b, r8	; 27
 646:	14 ff       	sbrs	r17, 4
 648:	3b bb       	out	0x1b, r19	; 27
 64a:	72 fd       	sbrc	r23, 2
 64c:	62 0f       	add	r22, r18
 64e:	67 95       	ror	r22
 650:	88 94       	clc
 652:	3b bb       	out	0x1b, r19	; 27
 654:	73 fd       	sbrc	r23, 3
 656:	62 0f       	add	r22, r18
 658:	8b ba       	out	0x1b, r8	; 27
 65a:	13 ff       	sbrs	r17, 3
 65c:	3b bb       	out	0x1b, r19	; 27
 65e:	67 95       	ror	r22
 660:	88 94       	clc
 662:	74 fd       	sbrc	r23, 4
 664:	62 0f       	add	r22, r18
 666:	3b bb       	out	0x1b, r19	; 27
 668:	67 95       	ror	r22
 66a:	88 94       	clc
 66c:	8b ba       	out	0x1b, r8	; 27
 66e:	12 ff       	sbrs	r17, 2
 670:	3b bb       	out	0x1b, r19	; 27
 672:	75 fd       	sbrc	r23, 5
 674:	62 0f       	add	r22, r18
 676:	67 95       	ror	r22
 678:	88 94       	clc
 67a:	3b bb       	out	0x1b, r19	; 27
 67c:	76 fd       	sbrc	r23, 6
 67e:	62 0f       	add	r22, r18
 680:	8b ba       	out	0x1b, r8	; 27
 682:	11 ff       	sbrs	r17, 1
 684:	3b bb       	out	0x1b, r19	; 27
 686:	67 95       	ror	r22
 688:	88 94       	clc
 68a:	77 fd       	sbrc	r23, 7
 68c:	62 0f       	add	r22, r18
 68e:	3b bb       	out	0x1b, r19	; 27
 690:	67 95       	ror	r22
 692:	88 94       	clc
 694:	8b ba       	out	0x1b, r8	; 27
 696:	10 ff       	sbrs	r17, 0
 698:	3b bb       	out	0x1b, r19	; 27
 69a:	12 2f       	mov	r17, r18
 69c:	71 11       	cpse	r23, r1
 69e:	16 2f       	mov	r17, r22
 6a0:	8d 0d       	add	r24, r13
 6a2:	3b bb       	out	0x1b, r19	; 27
 6a4:	11 97       	sbiw	r26, 0x01	; 1
 6a6:	09 f0       	breq	.+2      	; 0x6aa <L_3674>
 6a8:	13 cf       	rjmp	.-474    	; 0x4d0 <L_925+0x50>

000006aa <L_3674>:
 6aa:	0a 80       	ldd	r0, Y+2	; 0x02
 6ac:	db 81       	ldd	r29, Y+3	; 0x03
 6ae:	c0 2d       	mov	r28, r0
 6b0:	be 01       	movw	r22, r28
 6b2:	0d 2e       	mov	r0, r29
 6b4:	00 0c       	add	r0, r0
 6b6:	88 0b       	sbc	r24, r24
 6b8:	99 0b       	sbc	r25, r25
 6ba:	20 ef       	ldi	r18, 0xF0	; 240
 6bc:	30 e0       	ldi	r19, 0x00	; 0
 6be:	40 e0       	ldi	r20, 0x00	; 0
 6c0:	50 e0       	ldi	r21, 0x00	; 0
 6c2:	d2 d3       	rcall	.+1956   	; 0xe68 <__mulsi3>
 6c4:	6b 01       	movw	r12, r22
 6c6:	7c 01       	movw	r14, r24
 6c8:	f3 e0       	ldi	r31, 0x03	; 3
 6ca:	f6 94       	lsr	r15
 6cc:	e7 94       	ror	r14
 6ce:	d7 94       	ror	r13
 6d0:	c7 94       	ror	r12
 6d2:	fa 95       	dec	r31
 6d4:	d1 f7       	brne	.-12     	; 0x6ca <L_3674+0x20>
 6d6:	ce 01       	movw	r24, r28
 6d8:	6b e9       	ldi	r22, 0x9B	; 155
 6da:	70 e0       	ldi	r23, 0x00	; 0
 6dc:	b4 d3       	rcall	.+1896   	; 0xe46 <__mulhi3>
 6de:	29 2f       	mov	r18, r25
 6e0:	30 e0       	ldi	r19, 0x00	; 0
 6e2:	c9 01       	movw	r24, r18
 6e4:	b0 e0       	ldi	r27, 0x00	; 0
 6e6:	a0 e0       	ldi	r26, 0x00	; 0
 6e8:	88 0f       	add	r24, r24
 6ea:	99 1f       	adc	r25, r25
 6ec:	aa 1f       	adc	r26, r26
 6ee:	bb 1f       	adc	r27, r27
 6f0:	8c 0d       	add	r24, r12
 6f2:	9d 1d       	adc	r25, r13
 6f4:	ae 1d       	adc	r26, r14
 6f6:	bf 1d       	adc	r27, r15
 6f8:	89 3e       	cpi	r24, 0xE9	; 233
 6fa:	63 e0       	ldi	r22, 0x03	; 3
 6fc:	96 07       	cpc	r25, r22
 6fe:	a1 05       	cpc	r26, r1
 700:	b1 05       	cpc	r27, r1
 702:	90 f1       	brcs	.+100    	; 0x768 <L_3674+0xbe>
 704:	88 5e       	subi	r24, 0xE8	; 232
 706:	93 40       	sbci	r25, 0x03	; 3
 708:	a1 09       	sbc	r26, r1
 70a:	b1 09       	sbc	r27, r1
 70c:	22 e0       	ldi	r18, 0x02	; 2
 70e:	b6 95       	lsr	r27
 710:	a7 95       	ror	r26
 712:	97 95       	ror	r25
 714:	87 95       	ror	r24
 716:	2a 95       	dec	r18
 718:	d1 f7       	brne	.-12     	; 0x70e <L_3674+0x64>
 71a:	9c 01       	movw	r18, r24
 71c:	43 e0       	ldi	r20, 0x03	; 3
 71e:	22 0f       	add	r18, r18
 720:	33 1f       	adc	r19, r19
 722:	4a 95       	dec	r20
 724:	e1 f7       	brne	.-8      	; 0x71e <L_3674+0x74>
 726:	23 2f       	mov	r18, r19
 728:	33 27       	eor	r19, r19
 72a:	60 91 86 00 	lds	r22, 0x0086	; 0x800086 <__data_end>
 72e:	70 e0       	ldi	r23, 0x00	; 0
 730:	86 0f       	add	r24, r22
 732:	97 1f       	adc	r25, r23
 734:	82 0f       	add	r24, r18
 736:	93 1f       	adc	r25, r19
 738:	40 91 02 02 	lds	r20, 0x0202	; 0x800202 <millis_timer_millis>
 73c:	50 91 03 02 	lds	r21, 0x0203	; 0x800203 <millis_timer_millis+0x1>
 740:	60 91 04 02 	lds	r22, 0x0204	; 0x800204 <millis_timer_millis+0x2>
 744:	70 91 05 02 	lds	r23, 0x0205	; 0x800205 <millis_timer_millis+0x3>
 748:	29 2f       	mov	r18, r25
 74a:	33 27       	eor	r19, r19
 74c:	42 0f       	add	r20, r18
 74e:	53 1f       	adc	r21, r19
 750:	61 1d       	adc	r22, r1
 752:	71 1d       	adc	r23, r1
 754:	40 93 02 02 	sts	0x0202, r20	; 0x800202 <millis_timer_millis>
 758:	50 93 03 02 	sts	0x0203, r21	; 0x800203 <millis_timer_millis+0x1>
 75c:	60 93 04 02 	sts	0x0204, r22	; 0x800204 <millis_timer_millis+0x2>
 760:	70 93 05 02 	sts	0x0205, r23	; 0x800205 <millis_timer_millis+0x3>
 764:	80 93 86 00 	sts	0x0086, r24	; 0x800086 <__data_end>
 768:	78 94       	sei
 76a:	82 dc       	rcall	.-1788   	; 0x70 <micros>
 76c:	f2 01       	movw	r30, r4
 76e:	70 8b       	std	Z+16, r23	; 0x10
 770:	67 87       	std	Z+15, r22	; 0x0f
 772:	df 91       	pop	r29
 774:	cf 91       	pop	r28
 776:	1f 91       	pop	r17
 778:	0f 91       	pop	r16
 77a:	ff 90       	pop	r15
 77c:	ef 90       	pop	r14
 77e:	df 90       	pop	r13
 780:	cf 90       	pop	r12
 782:	bf 90       	pop	r11
 784:	af 90       	pop	r10
 786:	9f 90       	pop	r9
 788:	8f 90       	pop	r8
 78a:	7f 90       	pop	r7
 78c:	5f 90       	pop	r5
 78e:	4f 90       	pop	r4
 790:	08 95       	ret

00000792 <CLEDController::lanes()>:
 792:	81 e0       	ldi	r24, 0x01	; 1
 794:	90 e0       	ldi	r25, 0x00	; 0
 796:	08 95       	ret

00000798 <ClocklessController<(unsigned char)3, 2, 5, 3, (EOrder)10, 0, false, 10>::init()>:
 798:	d3 9a       	sbi	0x1a, 3	; 26
 79a:	08 95       	ret

0000079c <CPixelLEDController<(EOrder)10, 1, 4294967295ul>::show(CRGB const*, int, CRGB)>:
 79c:	6f 92       	push	r6
 79e:	7f 92       	push	r7
 7a0:	8f 92       	push	r8
 7a2:	cf 92       	push	r12
 7a4:	df 92       	push	r13
 7a6:	ef 92       	push	r14
 7a8:	ff 92       	push	r15
 7aa:	0f 93       	push	r16
 7ac:	1f 93       	push	r17
 7ae:	cf 93       	push	r28
 7b0:	df 93       	push	r29
 7b2:	cd b7       	in	r28, 0x3d	; 61
 7b4:	de b7       	in	r29, 0x3e	; 62
 7b6:	62 97       	sbiw	r28, 0x12	; 18
 7b8:	0f b6       	in	r0, 0x3f	; 63
 7ba:	f8 94       	cli
 7bc:	de bf       	out	0x3e, r29	; 62
 7be:	0f be       	out	0x3f, r0	; 63
 7c0:	cd bf       	out	0x3d, r28	; 61
 7c2:	6c 01       	movw	r12, r24
 7c4:	7a 01       	movw	r14, r20
 7c6:	38 01       	movw	r6, r16
 7c8:	82 2e       	mov	r8, r18
 7ca:	dc 01       	movw	r26, r24
 7cc:	1c 96       	adiw	r26, 0x0c	; 12
 7ce:	2c 91       	ld	r18, X
 7d0:	ca 01       	movw	r24, r20
 7d2:	57 ff       	sbrs	r21, 7
 7d4:	04 c0       	rjmp	.+8      	; 0x7de <CPixelLEDController<(EOrder)10, 1, 4294967295ul>::show(CRGB const*, int, CRGB)+0x42>
 7d6:	88 27       	eor	r24, r24
 7d8:	99 27       	eor	r25, r25
 7da:	84 1b       	sub	r24, r20
 7dc:	95 0b       	sbc	r25, r21
 7de:	7a 83       	std	Y+2, r23	; 0x02
 7e0:	69 83       	std	Y+1, r22	; 0x01
 7e2:	9c 83       	std	Y+4, r25	; 0x04
 7e4:	8b 83       	std	Y+3, r24	; 0x03
 7e6:	9e 83       	std	Y+6, r25	; 0x06
 7e8:	8d 83       	std	Y+5, r24	; 0x05
 7ea:	6d 86       	std	Y+13, r6	; 0x0d
 7ec:	7e 86       	std	Y+14, r7	; 0x0e
 7ee:	8f 86       	std	Y+15, r8	; 0x0f
 7f0:	21 30       	cpi	r18, 0x01	; 1
 7f2:	41 f5       	brne	.+80     	; 0x844 <CPixelLEDController<(EOrder)10, 1, 4294967295ul>::show(CRGB const*, int, CRGB)+0xa8>
 7f4:	ce 01       	movw	r24, r28
 7f6:	01 96       	adiw	r24, 0x01	; 1
 7f8:	b4 dd       	rcall	.-1176   	; 0x362 <PixelController<(EOrder)10, 1, 4294967295ul>::init_binary_dithering()>
 7fa:	83 e0       	ldi	r24, 0x03	; 3
 7fc:	88 8b       	std	Y+16, r24	; 0x10
 7fe:	1a 8a       	std	Y+18, r1	; 0x12
 800:	19 8a       	std	Y+17, r1	; 0x11
 802:	f7 fe       	sbrs	r15, 7
 804:	02 c0       	rjmp	.+4      	; 0x80a <CPixelLEDController<(EOrder)10, 1, 4294967295ul>::show(CRGB const*, int, CRGB)+0x6e>
 806:	8d ef       	ldi	r24, 0xFD	; 253
 808:	88 8b       	std	Y+16, r24	; 0x10
 80a:	d6 01       	movw	r26, r12
 80c:	ed 91       	ld	r30, X+
 80e:	fc 91       	ld	r31, X
 810:	06 84       	ldd	r0, Z+14	; 0x0e
 812:	f7 85       	ldd	r31, Z+15	; 0x0f
 814:	e0 2d       	mov	r30, r0
 816:	be 01       	movw	r22, r28
 818:	6f 5f       	subi	r22, 0xFF	; 255
 81a:	7f 4f       	sbci	r23, 0xFF	; 255
 81c:	c6 01       	movw	r24, r12
 81e:	09 95       	icall
 820:	62 96       	adiw	r28, 0x12	; 18
 822:	0f b6       	in	r0, 0x3f	; 63
 824:	f8 94       	cli
 826:	de bf       	out	0x3e, r29	; 62
 828:	0f be       	out	0x3f, r0	; 63
 82a:	cd bf       	out	0x3d, r28	; 61
 82c:	df 91       	pop	r29
 82e:	cf 91       	pop	r28
 830:	1f 91       	pop	r17
 832:	0f 91       	pop	r16
 834:	ff 90       	pop	r15
 836:	ef 90       	pop	r14
 838:	df 90       	pop	r13
 83a:	cf 90       	pop	r12
 83c:	8f 90       	pop	r8
 83e:	7f 90       	pop	r7
 840:	6f 90       	pop	r6
 842:	08 95       	ret
 844:	1c 86       	std	Y+12, r1	; 0x0c
 846:	1b 86       	std	Y+11, r1	; 0x0b
 848:	1a 86       	std	Y+10, r1	; 0x0a
 84a:	19 86       	std	Y+9, r1	; 0x09
 84c:	18 86       	std	Y+8, r1	; 0x08
 84e:	1f 82       	std	Y+7, r1	; 0x07
 850:	d4 cf       	rjmp	.-88     	; 0x7fa <CPixelLEDController<(EOrder)10, 1, 4294967295ul>::show(CRGB const*, int, CRGB)+0x5e>

00000852 <CPixelLEDController<(EOrder)10, 1, 4294967295ul>::showColor(CRGB const&, int, CRGB)>:
 852:	ef 92       	push	r14
 854:	ff 92       	push	r15
 856:	0f 93       	push	r16
 858:	1f 93       	push	r17
 85a:	cf 93       	push	r28
 85c:	df 93       	push	r29
 85e:	cd b7       	in	r28, 0x3d	; 61
 860:	de b7       	in	r29, 0x3e	; 62
 862:	62 97       	sbiw	r28, 0x12	; 18
 864:	0f b6       	in	r0, 0x3f	; 63
 866:	f8 94       	cli
 868:	de bf       	out	0x3e, r29	; 62
 86a:	0f be       	out	0x3f, r0	; 63
 86c:	cd bf       	out	0x3d, r28	; 61
 86e:	7c 01       	movw	r14, r24
 870:	dc 01       	movw	r26, r24
 872:	1c 96       	adiw	r26, 0x0c	; 12
 874:	8c 91       	ld	r24, X
 876:	7a 83       	std	Y+2, r23	; 0x02
 878:	69 83       	std	Y+1, r22	; 0x01
 87a:	5c 83       	std	Y+4, r21	; 0x04
 87c:	4b 83       	std	Y+3, r20	; 0x03
 87e:	5e 83       	std	Y+6, r21	; 0x06
 880:	4d 83       	std	Y+5, r20	; 0x05
 882:	0d 87       	std	Y+13, r16	; 0x0d
 884:	1e 87       	std	Y+14, r17	; 0x0e
 886:	2f 87       	std	Y+15, r18	; 0x0f
 888:	81 30       	cpi	r24, 0x01	; 1
 88a:	f1 f4       	brne	.+60     	; 0x8c8 <CPixelLEDController<(EOrder)10, 1, 4294967295ul>::showColor(CRGB const&, int, CRGB)+0x76>
 88c:	ce 01       	movw	r24, r28
 88e:	01 96       	adiw	r24, 0x01	; 1
 890:	68 dd       	rcall	.-1328   	; 0x362 <PixelController<(EOrder)10, 1, 4294967295ul>::init_binary_dithering()>
 892:	18 8a       	std	Y+16, r1	; 0x10
 894:	1a 8a       	std	Y+18, r1	; 0x12
 896:	19 8a       	std	Y+17, r1	; 0x11
 898:	d7 01       	movw	r26, r14
 89a:	ed 91       	ld	r30, X+
 89c:	fc 91       	ld	r31, X
 89e:	06 84       	ldd	r0, Z+14	; 0x0e
 8a0:	f7 85       	ldd	r31, Z+15	; 0x0f
 8a2:	e0 2d       	mov	r30, r0
 8a4:	be 01       	movw	r22, r28
 8a6:	6f 5f       	subi	r22, 0xFF	; 255
 8a8:	7f 4f       	sbci	r23, 0xFF	; 255
 8aa:	c7 01       	movw	r24, r14
 8ac:	09 95       	icall
 8ae:	62 96       	adiw	r28, 0x12	; 18
 8b0:	0f b6       	in	r0, 0x3f	; 63
 8b2:	f8 94       	cli
 8b4:	de bf       	out	0x3e, r29	; 62
 8b6:	0f be       	out	0x3f, r0	; 63
 8b8:	cd bf       	out	0x3d, r28	; 61
 8ba:	df 91       	pop	r29
 8bc:	cf 91       	pop	r28
 8be:	1f 91       	pop	r17
 8c0:	0f 91       	pop	r16
 8c2:	ff 90       	pop	r15
 8c4:	ef 90       	pop	r14
 8c6:	08 95       	ret
 8c8:	1c 86       	std	Y+12, r1	; 0x0c
 8ca:	1b 86       	std	Y+11, r1	; 0x0b
 8cc:	1a 86       	std	Y+10, r1	; 0x0a
 8ce:	19 86       	std	Y+9, r1	; 0x09
 8d0:	18 86       	std	Y+8, r1	; 0x08
 8d2:	1f 82       	std	Y+7, r1	; 0x07
 8d4:	de cf       	rjmp	.-68     	; 0x892 <CPixelLEDController<(EOrder)10, 1, 4294967295ul>::showColor(CRGB const&, int, CRGB)+0x40>

000008d6 <CLEDController::getMaxRefreshRate() const>:
 8d6:	90 e0       	ldi	r25, 0x00	; 0
 8d8:	80 e0       	ldi	r24, 0x00	; 0
 8da:	08 95       	ret

000008dc <CLEDController::size()>:
 8dc:	fc 01       	movw	r30, r24
 8de:	85 85       	ldd	r24, Z+13	; 0x0d
 8e0:	96 85       	ldd	r25, Z+14	; 0x0e
 8e2:	08 95       	ret

000008e4 <CLEDController::clearLeds(int)>:
 8e4:	0f 93       	push	r16
 8e6:	1f 93       	push	r17
 8e8:	cf 93       	push	r28
 8ea:	df 93       	push	r29
 8ec:	00 d0       	rcall	.+0      	; 0x8ee <CLEDController::clearLeds(int)+0xa>
 8ee:	1f 92       	push	r1
 8f0:	cd b7       	in	r28, 0x3d	; 61
 8f2:	de b7       	in	r29, 0x3e	; 62
 8f4:	ab 01       	movw	r20, r22
 8f6:	19 82       	std	Y+1, r1	; 0x01
 8f8:	1a 82       	std	Y+2, r1	; 0x02
 8fa:	1b 82       	std	Y+3, r1	; 0x03
 8fc:	dc 01       	movw	r26, r24
 8fe:	ed 91       	ld	r30, X+
 900:	fc 91       	ld	r31, X
 902:	01 90       	ld	r0, Z+
 904:	f0 81       	ld	r31, Z
 906:	e0 2d       	mov	r30, r0
 908:	00 e0       	ldi	r16, 0x00	; 0
 90a:	10 e0       	ldi	r17, 0x00	; 0
 90c:	20 e0       	ldi	r18, 0x00	; 0
 90e:	be 01       	movw	r22, r28
 910:	6f 5f       	subi	r22, 0xFF	; 255
 912:	7f 4f       	sbci	r23, 0xFF	; 255
 914:	09 95       	icall
 916:	0f 90       	pop	r0
 918:	0f 90       	pop	r0
 91a:	0f 90       	pop	r0
 91c:	df 91       	pop	r29
 91e:	cf 91       	pop	r28
 920:	1f 91       	pop	r17
 922:	0f 91       	pop	r16
 924:	08 95       	ret

00000926 <__cxa_pure_virtual>:
 926:	08 d3       	rcall	.+1552   	; 0xf38 <abort>

00000928 <__vector_11>:
 928:	1f 92       	push	r1
 92a:	0f 92       	push	r0
 92c:	0f b6       	in	r0, 0x3f	; 63
 92e:	0f 92       	push	r0
 930:	11 24       	eor	r1, r1
 932:	2f 93       	push	r18
 934:	3f 93       	push	r19
 936:	8f 93       	push	r24
 938:	9f 93       	push	r25
 93a:	af 93       	push	r26
 93c:	bf 93       	push	r27
 93e:	80 91 02 02 	lds	r24, 0x0202	; 0x800202 <millis_timer_millis>
 942:	90 91 03 02 	lds	r25, 0x0203	; 0x800203 <millis_timer_millis+0x1>
 946:	a0 91 04 02 	lds	r26, 0x0204	; 0x800204 <millis_timer_millis+0x2>
 94a:	b0 91 05 02 	lds	r27, 0x0205	; 0x800205 <millis_timer_millis+0x3>
 94e:	30 91 fd 01 	lds	r19, 0x01FD	; 0x8001fd <millis_timer_fract>
 952:	26 e0       	ldi	r18, 0x06	; 6
 954:	23 0f       	add	r18, r19
 956:	2d 37       	cpi	r18, 0x7D	; 125
 958:	68 f1       	brcs	.+90     	; 0x9b4 <__vector_11+0x8c>
 95a:	29 e8       	ldi	r18, 0x89	; 137
 95c:	23 0f       	add	r18, r19
 95e:	03 96       	adiw	r24, 0x03	; 3
 960:	a1 1d       	adc	r26, r1
 962:	b1 1d       	adc	r27, r1
 964:	20 93 fd 01 	sts	0x01FD, r18	; 0x8001fd <millis_timer_fract>
 968:	80 93 02 02 	sts	0x0202, r24	; 0x800202 <millis_timer_millis>
 96c:	90 93 03 02 	sts	0x0203, r25	; 0x800203 <millis_timer_millis+0x1>
 970:	a0 93 04 02 	sts	0x0204, r26	; 0x800204 <millis_timer_millis+0x2>
 974:	b0 93 05 02 	sts	0x0205, r27	; 0x800205 <millis_timer_millis+0x3>
 978:	80 91 fe 01 	lds	r24, 0x01FE	; 0x8001fe <millis_timer_overflow_count>
 97c:	90 91 ff 01 	lds	r25, 0x01FF	; 0x8001ff <millis_timer_overflow_count+0x1>
 980:	a0 91 00 02 	lds	r26, 0x0200	; 0x800200 <millis_timer_overflow_count+0x2>
 984:	b0 91 01 02 	lds	r27, 0x0201	; 0x800201 <millis_timer_overflow_count+0x3>
 988:	01 96       	adiw	r24, 0x01	; 1
 98a:	a1 1d       	adc	r26, r1
 98c:	b1 1d       	adc	r27, r1
 98e:	80 93 fe 01 	sts	0x01FE, r24	; 0x8001fe <millis_timer_overflow_count>
 992:	90 93 ff 01 	sts	0x01FF, r25	; 0x8001ff <millis_timer_overflow_count+0x1>
 996:	a0 93 00 02 	sts	0x0200, r26	; 0x800200 <millis_timer_overflow_count+0x2>
 99a:	b0 93 01 02 	sts	0x0201, r27	; 0x800201 <millis_timer_overflow_count+0x3>
 99e:	bf 91       	pop	r27
 9a0:	af 91       	pop	r26
 9a2:	9f 91       	pop	r25
 9a4:	8f 91       	pop	r24
 9a6:	3f 91       	pop	r19
 9a8:	2f 91       	pop	r18
 9aa:	0f 90       	pop	r0
 9ac:	0f be       	out	0x3f, r0	; 63
 9ae:	0f 90       	pop	r0
 9b0:	1f 90       	pop	r1
 9b2:	18 95       	reti
 9b4:	02 96       	adiw	r24, 0x02	; 2
 9b6:	a1 1d       	adc	r26, r1
 9b8:	b1 1d       	adc	r27, r1
 9ba:	d4 cf       	rjmp	.-88     	; 0x964 <__vector_11+0x3c>

000009bc <__vector_16>:
 9bc:	1f 92       	push	r1
 9be:	0f 92       	push	r0
 9c0:	0f b6       	in	r0, 0x3f	; 63
 9c2:	0f 92       	push	r0
 9c4:	11 24       	eor	r1, r1
 9c6:	2f 93       	push	r18
 9c8:	3f 93       	push	r19
 9ca:	4f 93       	push	r20
 9cc:	5f 93       	push	r21
 9ce:	6f 93       	push	r22
 9d0:	7f 93       	push	r23
 9d2:	8f 93       	push	r24
 9d4:	9f 93       	push	r25
 9d6:	af 93       	push	r26
 9d8:	bf 93       	push	r27
 9da:	ef 93       	push	r30
 9dc:	ff 93       	push	r31
 9de:	80 91 a8 00 	lds	r24, 0x00A8	; 0x8000a8 <overflowState>
 9e2:	90 91 a9 00 	lds	r25, 0x00A9	; 0x8000a9 <overflowState+0x1>
 9e6:	82 30       	cpi	r24, 0x02	; 2
 9e8:	91 05       	cpc	r25, r1
 9ea:	09 f4       	brne	.+2      	; 0x9ee <__vector_16+0x32>
 9ec:	8b c0       	rjmp	.+278    	; 0xb04 <__vector_16+0x148>
 9ee:	b0 f4       	brcc	.+44     	; 0xa1c <__vector_16+0x60>
 9f0:	00 97       	sbiw	r24, 0x00	; 0
 9f2:	a9 f1       	breq	.+106    	; 0xa5e <__vector_16+0xa2>
 9f4:	01 97       	sbiw	r24, 0x01	; 1
 9f6:	09 f4       	brne	.+2      	; 0x9fa <__vector_16+0x3e>
 9f8:	60 c0       	rjmp	.+192    	; 0xaba <__vector_16+0xfe>
 9fa:	ff 91       	pop	r31
 9fc:	ef 91       	pop	r30
 9fe:	bf 91       	pop	r27
 a00:	af 91       	pop	r26
 a02:	9f 91       	pop	r25
 a04:	8f 91       	pop	r24
 a06:	7f 91       	pop	r23
 a08:	6f 91       	pop	r22
 a0a:	5f 91       	pop	r21
 a0c:	4f 91       	pop	r20
 a0e:	3f 91       	pop	r19
 a10:	2f 91       	pop	r18
 a12:	0f 90       	pop	r0
 a14:	0f be       	out	0x3f, r0	; 63
 a16:	0f 90       	pop	r0
 a18:	1f 90       	pop	r1
 a1a:	18 95       	reti
 a1c:	84 30       	cpi	r24, 0x04	; 4
 a1e:	91 05       	cpc	r25, r1
 a20:	09 f4       	brne	.+2      	; 0xa24 <__vector_16+0x68>
 a22:	7a c0       	rjmp	.+244    	; 0xb18 <__vector_16+0x15c>
 a24:	08 f4       	brcc	.+2      	; 0xa28 <__vector_16+0x6c>
 a26:	43 c0       	rjmp	.+134    	; 0xaae <__vector_16+0xf2>
 a28:	05 97       	sbiw	r24, 0x05	; 5
 a2a:	39 f7       	brne	.-50     	; 0x9fa <__vector_16+0x3e>
 a2c:	80 91 cd 00 	lds	r24, 0x00CD	; 0x8000cd <rxCount>
 a30:	80 32       	cpi	r24, 0x20	; 32
 a32:	90 f4       	brcc	.+36     	; 0xa58 <__vector_16+0x9c>
 a34:	e0 91 c6 00 	lds	r30, 0x00C6	; 0x8000c6 <rxHead>
 a38:	8f b1       	in	r24, 0x0f	; 15
 a3a:	f0 e0       	ldi	r31, 0x00	; 0
 a3c:	e8 57       	subi	r30, 0x78	; 120
 a3e:	ff 4f       	sbci	r31, 0xFF	; 255
 a40:	80 83       	st	Z, r24
 a42:	80 91 c6 00 	lds	r24, 0x00C6	; 0x8000c6 <rxHead>
 a46:	8f 5f       	subi	r24, 0xFF	; 255
 a48:	8f 71       	andi	r24, 0x1F	; 31
 a4a:	80 93 c6 00 	sts	0x00C6, r24	; 0x8000c6 <rxHead>
 a4e:	80 91 cd 00 	lds	r24, 0x00CD	; 0x8000cd <rxCount>
 a52:	8f 5f       	subi	r24, 0xFF	; 255
 a54:	80 93 cd 00 	sts	0x00CD, r24	; 0x8000cd <rxCount>
 a58:	84 e0       	ldi	r24, 0x04	; 4
 a5a:	90 e0       	ldi	r25, 0x00	; 0
 a5c:	21 c0       	rjmp	.+66     	; 0xaa0 <__vector_16+0xe4>
 a5e:	8f b1       	in	r24, 0x0f	; 15
 a60:	88 23       	and	r24, r24
 a62:	31 f0       	breq	.+12     	; 0xa70 <__vector_16+0xb4>
 a64:	8f b1       	in	r24, 0x0f	; 15
 a66:	86 95       	lsr	r24
 a68:	90 91 c8 00 	lds	r25, 0x00C8	; 0x8000c8 <slaveAddress>
 a6c:	89 13       	cpse	r24, r25
 a6e:	22 c0       	rjmp	.+68     	; 0xab4 <__vector_16+0xf8>
 a70:	78 9b       	sbis	0x0f, 0	; 15
 a72:	f2 cf       	rjmp	.-28     	; 0xa58 <__vector_16+0x9c>
 a74:	e0 91 c9 00 	lds	r30, 0x00C9	; 0x8000c9 <usi_onReceiverPtr>
 a78:	f0 91 ca 00 	lds	r31, 0x00CA	; 0x8000ca <usi_onReceiverPtr+0x1>
 a7c:	30 97       	sbiw	r30, 0x00	; 0
 a7e:	39 f0       	breq	.+14     	; 0xa8e <__vector_16+0xd2>
 a80:	80 91 cd 00 	lds	r24, 0x00CD	; 0x8000cd <rxCount>
 a84:	88 23       	and	r24, r24
 a86:	19 f0       	breq	.+6      	; 0xa8e <__vector_16+0xd2>
 a88:	80 91 cd 00 	lds	r24, 0x00CD	; 0x8000cd <rxCount>
 a8c:	09 95       	icall
 a8e:	e0 91 cb 00 	lds	r30, 0x00CB	; 0x8000cb <usi_onRequestPtr>
 a92:	f0 91 cc 00 	lds	r31, 0x00CC	; 0x8000cc <usi_onRequestPtr+0x1>
 a96:	30 97       	sbiw	r30, 0x00	; 0
 a98:	09 f0       	breq	.+2      	; 0xa9c <__vector_16+0xe0>
 a9a:	09 95       	icall
 a9c:	81 e0       	ldi	r24, 0x01	; 1
 a9e:	90 e0       	ldi	r25, 0x00	; 0
 aa0:	90 93 a9 00 	sts	0x00A9, r25	; 0x8000a9 <overflowState+0x1>
 aa4:	80 93 a8 00 	sts	0x00A8, r24	; 0x8000a8 <overflowState>
 aa8:	1f b8       	out	0x0f, r1	; 15
 aaa:	d6 9a       	sbi	0x1a, 6	; 26
 aac:	33 c0       	rjmp	.+102    	; 0xb14 <__vector_16+0x158>
 aae:	8f b1       	in	r24, 0x0f	; 15
 ab0:	88 23       	and	r24, r24
 ab2:	19 f0       	breq	.+6      	; 0xaba <__vector_16+0xfe>
 ab4:	88 ea       	ldi	r24, 0xA8	; 168
 ab6:	8d b9       	out	0x0d, r24	; 13
 ab8:	1d c0       	rjmp	.+58     	; 0xaf4 <__vector_16+0x138>
 aba:	80 91 f9 01 	lds	r24, 0x01F9	; 0x8001f9 <txCount>
 abe:	88 23       	and	r24, r24
 ac0:	e1 f0       	breq	.+56     	; 0xafa <__vector_16+0x13e>
 ac2:	e0 91 c5 00 	lds	r30, 0x00C5	; 0x8000c5 <txTail>
 ac6:	f0 e0       	ldi	r31, 0x00	; 0
 ac8:	e0 51       	subi	r30, 0x10	; 16
 aca:	fe 4f       	sbci	r31, 0xFE	; 254
 acc:	80 81       	ld	r24, Z
 ace:	8f b9       	out	0x0f, r24	; 15
 ad0:	80 91 c5 00 	lds	r24, 0x00C5	; 0x8000c5 <txTail>
 ad4:	8f 5f       	subi	r24, 0xFF	; 255
 ad6:	87 70       	andi	r24, 0x07	; 7
 ad8:	80 93 c5 00 	sts	0x00C5, r24	; 0x8000c5 <txTail>
 adc:	80 91 f9 01 	lds	r24, 0x01F9	; 0x8001f9 <txCount>
 ae0:	81 50       	subi	r24, 0x01	; 1
 ae2:	80 93 f9 01 	sts	0x01F9, r24	; 0x8001f9 <txCount>
 ae6:	82 e0       	ldi	r24, 0x02	; 2
 ae8:	90 e0       	ldi	r25, 0x00	; 0
 aea:	90 93 a9 00 	sts	0x00A9, r25	; 0x8000a9 <overflowState+0x1>
 aee:	80 93 a8 00 	sts	0x00A8, r24	; 0x8000a8 <overflowState>
 af2:	d6 9a       	sbi	0x1a, 6	; 26
 af4:	80 e7       	ldi	r24, 0x70	; 112
 af6:	8e b9       	out	0x0e, r24	; 14
 af8:	80 cf       	rjmp	.-256    	; 0x9fa <__vector_16+0x3e>
 afa:	d6 98       	cbi	0x1a, 6	; 26
 afc:	1f b8       	out	0x0f, r1	; 15
 afe:	8e e7       	ldi	r24, 0x7E	; 126
 b00:	8e b9       	out	0x0e, r24	; 14
 b02:	d8 cf       	rjmp	.-80     	; 0xab4 <__vector_16+0xf8>
 b04:	83 e0       	ldi	r24, 0x03	; 3
 b06:	90 e0       	ldi	r25, 0x00	; 0
 b08:	90 93 a9 00 	sts	0x00A9, r25	; 0x8000a9 <overflowState+0x1>
 b0c:	80 93 a8 00 	sts	0x00A8, r24	; 0x8000a8 <overflowState>
 b10:	d6 98       	cbi	0x1a, 6	; 26
 b12:	1f b8       	out	0x0f, r1	; 15
 b14:	8e e7       	ldi	r24, 0x7E	; 126
 b16:	ef cf       	rjmp	.-34     	; 0xaf6 <__vector_16+0x13a>
 b18:	85 e0       	ldi	r24, 0x05	; 5
 b1a:	90 e0       	ldi	r25, 0x00	; 0
 b1c:	90 93 a9 00 	sts	0x00A9, r25	; 0x8000a9 <overflowState+0x1>
 b20:	80 93 a8 00 	sts	0x00A8, r24	; 0x8000a8 <overflowState>
 b24:	d6 98       	cbi	0x1a, 6	; 26
 b26:	e6 cf       	rjmp	.-52     	; 0xaf4 <__vector_16+0x138>

00000b28 <__vector_15>:
 b28:	1f 92       	push	r1
 b2a:	0f 92       	push	r0
 b2c:	0f b6       	in	r0, 0x3f	; 63
 b2e:	0f 92       	push	r0
 b30:	11 24       	eor	r1, r1
 b32:	8f 93       	push	r24
 b34:	10 92 a9 00 	sts	0x00A9, r1	; 0x8000a9 <overflowState+0x1>
 b38:	10 92 a8 00 	sts	0x00A8, r1	; 0x8000a8 <overflowState>
 b3c:	d6 98       	cbi	0x1a, 6	; 26
 b3e:	cc 9b       	sbis	0x19, 4	; 25
 b40:	02 c0       	rjmp	.+4      	; 0xb46 <__vector_15+0x1e>
 b42:	ce 9b       	sbis	0x19, 6	; 25
 b44:	fc cf       	rjmp	.-8      	; 0xb3e <__vector_15+0x16>
 b46:	ce 99       	sbic	0x19, 6	; 25
 b48:	0a c0       	rjmp	.+20     	; 0xb5e <__vector_15+0x36>
 b4a:	88 ef       	ldi	r24, 0xF8	; 248
 b4c:	8d b9       	out	0x0d, r24	; 13
 b4e:	80 ef       	ldi	r24, 0xF0	; 240
 b50:	8e b9       	out	0x0e, r24	; 14
 b52:	8f 91       	pop	r24
 b54:	0f 90       	pop	r0
 b56:	0f be       	out	0x3f, r0	; 63
 b58:	0f 90       	pop	r0
 b5a:	1f 90       	pop	r1
 b5c:	18 95       	reti
 b5e:	88 ea       	ldi	r24, 0xA8	; 168
 b60:	f5 cf       	rjmp	.-22     	; 0xb4c <__vector_15+0x24>

00000b62 <main>:
 b62:	cf 93       	push	r28
 b64:	df 93       	push	r29
 b66:	cd b7       	in	r28, 0x3d	; 61
 b68:	de b7       	in	r29, 0x3e	; 62
 b6a:	68 97       	sbiw	r28, 0x18	; 24
 b6c:	0f b6       	in	r0, 0x3f	; 63
 b6e:	f8 94       	cli
 b70:	de bf       	out	0x3e, r29	; 62
 b72:	0f be       	out	0x3f, r0	; 63
 b74:	cd bf       	out	0x3d, r28	; 61
 b76:	83 e0       	ldi	r24, 0x03	; 3
 b78:	80 bf       	out	0x30, r24	; 48
 b7a:	83 bf       	out	0x33, r24	; 51
 b7c:	78 94       	sei
 b7e:	99 b7       	in	r25, 0x39	; 57
 b80:	91 60       	ori	r25, 0x01	; 1
 b82:	99 bf       	out	0x39, r25	; 57
 b84:	91 e0       	ldi	r25, 0x01	; 1
 b86:	9f bd       	out	0x2f, r25	; 47
 b88:	8e bd       	out	0x2e, r24	; 46
 b8a:	86 e8       	ldi	r24, 0x86	; 134
 b8c:	86 b9       	out	0x06, r24	; 6
 b8e:	f8 94       	cli
 b90:	80 91 bd 00 	lds	r24, 0x00BD	; 0x8000bd <guard variable for CLEDController& CFastLED::addLeds<WS2812, (unsigned char)3, (EOrder)10>(CRGB*, int, int)::c>
 b94:	81 11       	cpse	r24, r1
 b96:	44 c0       	rjmp	.+136    	; 0xc20 <main+0xbe>
 b98:	10 92 af 00 	sts	0x00AF, r1	; 0x8000af <CLEDController& CFastLED::addLeds<WS2812, (unsigned char)3, (EOrder)10>(CRGB*, int, int)::c+0x3>
 b9c:	10 92 ae 00 	sts	0x00AE, r1	; 0x8000ae <CLEDController& CFastLED::addLeds<WS2812, (unsigned char)3, (EOrder)10>(CRGB*, int, int)::c+0x2>
 ba0:	8f ef       	ldi	r24, 0xFF	; 255
 ba2:	80 93 b2 00 	sts	0x00B2, r24	; 0x8000b2 <CLEDController& CFastLED::addLeds<WS2812, (unsigned char)3, (EOrder)10>(CRGB*, int, int)::c+0x6>
 ba6:	80 93 b3 00 	sts	0x00B3, r24	; 0x8000b3 <CLEDController& CFastLED::addLeds<WS2812, (unsigned char)3, (EOrder)10>(CRGB*, int, int)::c+0x7>
 baa:	80 93 b4 00 	sts	0x00B4, r24	; 0x8000b4 <CLEDController& CFastLED::addLeds<WS2812, (unsigned char)3, (EOrder)10>(CRGB*, int, int)::c+0x8>
 bae:	80 93 b5 00 	sts	0x00B5, r24	; 0x8000b5 <CLEDController& CFastLED::addLeds<WS2812, (unsigned char)3, (EOrder)10>(CRGB*, int, int)::c+0x9>
 bb2:	80 93 b6 00 	sts	0x00B6, r24	; 0x8000b6 <CLEDController& CFastLED::addLeds<WS2812, (unsigned char)3, (EOrder)10>(CRGB*, int, int)::c+0xa>
 bb6:	80 93 b7 00 	sts	0x00B7, r24	; 0x8000b7 <CLEDController& CFastLED::addLeds<WS2812, (unsigned char)3, (EOrder)10>(CRGB*, int, int)::c+0xb>
 bba:	90 93 b8 00 	sts	0x00B8, r25	; 0x8000b8 <CLEDController& CFastLED::addLeds<WS2812, (unsigned char)3, (EOrder)10>(CRGB*, int, int)::c+0xc>
 bbe:	10 92 ba 00 	sts	0x00BA, r1	; 0x8000ba <CLEDController& CFastLED::addLeds<WS2812, (unsigned char)3, (EOrder)10>(CRGB*, int, int)::c+0xe>
 bc2:	10 92 b9 00 	sts	0x00B9, r1	; 0x8000b9 <CLEDController& CFastLED::addLeds<WS2812, (unsigned char)3, (EOrder)10>(CRGB*, int, int)::c+0xd>
 bc6:	10 92 b1 00 	sts	0x00B1, r1	; 0x8000b1 <CLEDController& CFastLED::addLeds<WS2812, (unsigned char)3, (EOrder)10>(CRGB*, int, int)::c+0x5>
 bca:	10 92 b0 00 	sts	0x00B0, r1	; 0x8000b0 <CLEDController& CFastLED::addLeds<WS2812, (unsigned char)3, (EOrder)10>(CRGB*, int, int)::c+0x4>
 bce:	80 91 19 02 	lds	r24, 0x0219	; 0x800219 <CLEDController::m_pHead>
 bd2:	90 91 1a 02 	lds	r25, 0x021A	; 0x80021a <CLEDController::m_pHead+0x1>
 bd6:	89 2b       	or	r24, r25
 bd8:	31 f4       	brne	.+12     	; 0xbe6 <main+0x84>
 bda:	8c ea       	ldi	r24, 0xAC	; 172
 bdc:	90 e0       	ldi	r25, 0x00	; 0
 bde:	90 93 1a 02 	sts	0x021A, r25	; 0x80021a <CLEDController::m_pHead+0x1>
 be2:	80 93 19 02 	sts	0x0219, r24	; 0x800219 <CLEDController::m_pHead>
 be6:	e0 91 aa 00 	lds	r30, 0x00AA	; 0x8000aa <CLEDController::m_pTail>
 bea:	f0 91 ab 00 	lds	r31, 0x00AB	; 0x8000ab <CLEDController::m_pTail+0x1>
 bee:	30 97       	sbiw	r30, 0x00	; 0
 bf0:	21 f0       	breq	.+8      	; 0xbfa <main+0x98>
 bf2:	8c ea       	ldi	r24, 0xAC	; 172
 bf4:	90 e0       	ldi	r25, 0x00	; 0
 bf6:	95 83       	std	Z+5, r25	; 0x05
 bf8:	84 83       	std	Z+4, r24	; 0x04
 bfa:	8c ea       	ldi	r24, 0xAC	; 172
 bfc:	90 e0       	ldi	r25, 0x00	; 0
 bfe:	90 93 ab 00 	sts	0x00AB, r25	; 0x8000ab <CLEDController::m_pTail+0x1>
 c02:	80 93 aa 00 	sts	0x00AA, r24	; 0x8000aa <CLEDController::m_pTail>
 c06:	10 92 bc 00 	sts	0x00BC, r1	; 0x8000bc <CLEDController& CFastLED::addLeds<WS2812, (unsigned char)3, (EOrder)10>(CRGB*, int, int)::c+0x10>
 c0a:	10 92 bb 00 	sts	0x00BB, r1	; 0x8000bb <CLEDController& CFastLED::addLeds<WS2812, (unsigned char)3, (EOrder)10>(CRGB*, int, int)::c+0xf>
 c0e:	86 e7       	ldi	r24, 0x76	; 118
 c10:	90 e0       	ldi	r25, 0x00	; 0
 c12:	90 93 ad 00 	sts	0x00AD, r25	; 0x8000ad <CLEDController& CFastLED::addLeds<WS2812, (unsigned char)3, (EOrder)10>(CRGB*, int, int)::c+0x1>
 c16:	80 93 ac 00 	sts	0x00AC, r24	; 0x8000ac <CLEDController& CFastLED::addLeds<WS2812, (unsigned char)3, (EOrder)10>(CRGB*, int, int)::c>
 c1a:	81 e0       	ldi	r24, 0x01	; 1
 c1c:	80 93 bd 00 	sts	0x00BD, r24	; 0x8000bd <guard variable for CLEDController& CFastLED::addLeds<WS2812, (unsigned char)3, (EOrder)10>(CRGB*, int, int)::c>
 c20:	d3 9a       	sbi	0x1a, 3	; 26
 c22:	8e ec       	ldi	r24, 0xCE	; 206
 c24:	90 e0       	ldi	r25, 0x00	; 0
 c26:	90 93 af 00 	sts	0x00AF, r25	; 0x8000af <CLEDController& CFastLED::addLeds<WS2812, (unsigned char)3, (EOrder)10>(CRGB*, int, int)::c+0x3>
 c2a:	80 93 ae 00 	sts	0x00AE, r24	; 0x8000ae <CLEDController& CFastLED::addLeds<WS2812, (unsigned char)3, (EOrder)10>(CRGB*, int, int)::c+0x2>
 c2e:	80 e6       	ldi	r24, 0x60	; 96
 c30:	90 e0       	ldi	r25, 0x00	; 0
 c32:	90 93 ba 00 	sts	0x00BA, r25	; 0x8000ba <CLEDController& CFastLED::addLeds<WS2812, (unsigned char)3, (EOrder)10>(CRGB*, int, int)::c+0xe>
 c36:	80 93 b9 00 	sts	0x00B9, r24	; 0x8000b9 <CLEDController& CFastLED::addLeds<WS2812, (unsigned char)3, (EOrder)10>(CRGB*, int, int)::c+0xd>
 c3a:	80 91 0f 02 	lds	r24, 0x020F	; 0x80020f <FastLED+0x3>
 c3e:	90 91 10 02 	lds	r25, 0x0210	; 0x800210 <FastLED+0x4>
 c42:	a0 91 11 02 	lds	r26, 0x0211	; 0x800211 <FastLED+0x5>
 c46:	b0 91 12 02 	lds	r27, 0x0212	; 0x800212 <FastLED+0x6>
 c4a:	84 3c       	cpi	r24, 0xC4	; 196
 c4c:	29 e0       	ldi	r18, 0x09	; 9
 c4e:	92 07       	cpc	r25, r18
 c50:	a1 05       	cpc	r26, r1
 c52:	b1 05       	cpc	r27, r1
 c54:	20 f4       	brcc	.+8      	; 0xc5e <main+0xfc>
 c56:	84 ec       	ldi	r24, 0xC4	; 196
 c58:	99 e0       	ldi	r25, 0x09	; 9
 c5a:	a0 e0       	ldi	r26, 0x00	; 0
 c5c:	b0 e0       	ldi	r27, 0x00	; 0
 c5e:	80 93 0f 02 	sts	0x020F, r24	; 0x80020f <FastLED+0x3>
 c62:	90 93 10 02 	sts	0x0210, r25	; 0x800210 <FastLED+0x4>
 c66:	a0 93 11 02 	sts	0x0211, r26	; 0x800211 <FastLED+0x5>
 c6a:	b0 93 12 02 	sts	0x0212, r27	; 0x800212 <FastLED+0x6>
 c6e:	10 92 c7 00 	sts	0x00C7, r1	; 0x8000c7 <rxTail>
 c72:	10 92 c6 00 	sts	0x00C6, r1	; 0x8000c6 <rxHead>
 c76:	10 92 cd 00 	sts	0x00CD, r1	; 0x8000cd <rxCount>
 c7a:	10 92 c5 00 	sts	0x00C5, r1	; 0x8000c5 <txTail>
 c7e:	10 92 f8 01 	sts	0x01F8, r1	; 0x8001f8 <txHead>
 c82:	10 92 f9 01 	sts	0x01F9, r1	; 0x8001f9 <txCount>
 c86:	8c e0       	ldi	r24, 0x0C	; 12
 c88:	80 93 c8 00 	sts	0x00C8, r24	; 0x8000c8 <slaveAddress>
 c8c:	8a b3       	in	r24, 0x1a	; 26
 c8e:	80 65       	ori	r24, 0x50	; 80
 c90:	8a bb       	out	0x1a, r24	; 26
 c92:	dc 9a       	sbi	0x1b, 4	; 27
 c94:	de 9a       	sbi	0x1b, 6	; 27
 c96:	d6 98       	cbi	0x1a, 6	; 26
 c98:	88 ea       	ldi	r24, 0xA8	; 168
 c9a:	8d b9       	out	0x0d, r24	; 13
 c9c:	80 ef       	ldi	r24, 0xF0	; 240
 c9e:	8e b9       	out	0x0e, r24	; 14
 ca0:	82 e8       	ldi	r24, 0x82	; 130
 ca2:	91 e0       	ldi	r25, 0x01	; 1
 ca4:	90 93 ca 00 	sts	0x00CA, r25	; 0x8000ca <usi_onReceiverPtr+0x1>
 ca8:	80 93 c9 00 	sts	0x00C9, r24	; 0x8000c9 <usi_onReceiverPtr>
 cac:	8d e8       	ldi	r24, 0x8D	; 141
 cae:	91 e0       	ldi	r25, 0x01	; 1
 cb0:	90 93 cc 00 	sts	0x00CC, r25	; 0x8000cc <usi_onRequestPtr+0x1>
 cb4:	80 93 cb 00 	sts	0x00CB, r24	; 0x8000cb <usi_onRequestPtr>
 cb8:	80 91 fb 01 	lds	r24, 0x01FB	; 0x8001fb <pendIsr>
 cbc:	90 91 fc 01 	lds	r25, 0x01FC	; 0x8001fc <pendIsr+0x1>
 cc0:	90 93 fc 01 	sts	0x01FC, r25	; 0x8001fc <pendIsr+0x1>
 cc4:	80 93 fb 01 	sts	0x01FB, r24	; 0x8001fb <pendIsr>
 cc8:	78 94       	sei
 cca:	7e 01       	movw	r14, r28
 ccc:	89 e1       	ldi	r24, 0x19	; 25
 cce:	e8 0e       	add	r14, r24
 cd0:	f1 1c       	adc	r15, r1
 cd2:	cc 24       	eor	r12, r12
 cd4:	c3 94       	inc	r12
 cd6:	d1 2c       	mov	r13, r1
 cd8:	80 91 fb 01 	lds	r24, 0x01FB	; 0x8001fb <pendIsr>
 cdc:	90 91 fc 01 	lds	r25, 0x01FC	; 0x8001fc <pendIsr+0x1>
 ce0:	81 30       	cpi	r24, 0x01	; 1
 ce2:	91 05       	cpc	r25, r1
 ce4:	f9 f0       	breq	.+62     	; 0xd24 <main+0x1c2>
 ce6:	02 97       	sbiw	r24, 0x02	; 2
 ce8:	b9 f7       	brne	.-18     	; 0xcd8 <main+0x176>
 cea:	80 91 fa 01 	lds	r24, 0x01FA	; 0x8001fa <RowControllerData>
 cee:	90 91 f9 01 	lds	r25, 0x01F9	; 0x8001f9 <txCount>
 cf2:	98 30       	cpi	r25, 0x08	; 8
 cf4:	e1 f3       	breq	.-8      	; 0xcee <main+0x18c>
 cf6:	e0 91 f8 01 	lds	r30, 0x01F8	; 0x8001f8 <txHead>
 cfa:	f0 e0       	ldi	r31, 0x00	; 0
 cfc:	e0 51       	subi	r30, 0x10	; 16
 cfe:	fe 4f       	sbci	r31, 0xFE	; 254
 d00:	80 83       	st	Z, r24
 d02:	80 91 f8 01 	lds	r24, 0x01F8	; 0x8001f8 <txHead>
 d06:	8f 5f       	subi	r24, 0xFF	; 255
 d08:	87 70       	andi	r24, 0x07	; 7
 d0a:	80 93 f8 01 	sts	0x01F8, r24	; 0x8001f8 <txHead>
 d0e:	80 91 f9 01 	lds	r24, 0x01F9	; 0x8001f9 <txCount>
 d12:	8f 5f       	subi	r24, 0xFF	; 255
 d14:	80 93 f9 01 	sts	0x01F9, r24	; 0x8001f9 <txCount>
 d18:	80 91 fb 01 	lds	r24, 0x01FB	; 0x8001fb <pendIsr>
 d1c:	90 91 fc 01 	lds	r25, 0x01FC	; 0x8001fc <pendIsr+0x1>
 d20:	8d 7f       	andi	r24, 0xFD	; 253
 d22:	68 c0       	rjmp	.+208    	; 0xdf4 <main+0x292>
 d24:	08 db       	rcall	.-2544   	; 0x336 <usiTwiReceiveByte>
 d26:	08 2f       	mov	r16, r24
 d28:	10 e0       	ldi	r17, 0x00	; 0
 d2a:	20 91 cd 00 	lds	r18, 0x00CD	; 0x8000cd <rxCount>
 d2e:	bb 24       	eor	r11, r11
 d30:	b3 94       	inc	r11
 d32:	b1 0e       	add	r11, r17
 d34:	22 23       	and	r18, r18
 d36:	51 f0       	breq	.+20     	; 0xd4c <main+0x1ea>
 d38:	fe da       	rcall	.-2564   	; 0x336 <usiTwiReceiveByte>
 d3a:	e1 e0       	ldi	r30, 0x01	; 1
 d3c:	f0 e0       	ldi	r31, 0x00	; 0
 d3e:	ec 0f       	add	r30, r28
 d40:	fd 1f       	adc	r31, r29
 d42:	e1 0f       	add	r30, r17
 d44:	f1 1d       	adc	r31, r1
 d46:	80 83       	st	Z, r24
 d48:	1b 2d       	mov	r17, r11
 d4a:	ef cf       	rjmp	.-34     	; 0xd2a <main+0x1c8>
 d4c:	03 31       	cpi	r16, 0x13	; 19
 d4e:	49 f1       	breq	.+82     	; 0xda2 <main+0x240>
 d50:	0a 32       	cpi	r16, 0x2A	; 42
 d52:	09 f4       	brne	.+2      	; 0xd56 <main+0x1f4>
 d54:	42 c0       	rjmp	.+132    	; 0xdda <main+0x278>
 d56:	01 30       	cpi	r16, 0x01	; 1
 d58:	09 f0       	breq	.+2      	; 0xd5c <main+0x1fa>
 d5a:	47 c0       	rjmp	.+142    	; 0xdea <main+0x288>
 d5c:	14 30       	cpi	r17, 0x04	; 4
 d5e:	09 f0       	breq	.+2      	; 0xd62 <main+0x200>
 d60:	44 c0       	rjmp	.+136    	; 0xdea <main+0x288>
 d62:	aa 81       	ldd	r26, Y+2	; 0x02
 d64:	4b 81       	ldd	r20, Y+3	; 0x03
 d66:	3c 81       	ldd	r19, Y+4	; 0x04
 d68:	89 81       	ldd	r24, Y+1	; 0x01
 d6a:	6c e0       	ldi	r22, 0x0C	; 12
 d6c:	63 d0       	rcall	.+198    	; 0xe34 <__mulqi3>
 d6e:	b8 2f       	mov	r27, r24
 d70:	82 2f       	mov	r24, r18
 d72:	8b 0f       	add	r24, r27
 d74:	90 e0       	ldi	r25, 0x00	; 0
 d76:	63 e0       	ldi	r22, 0x03	; 3
 d78:	70 e0       	ldi	r23, 0x00	; 0
 d7a:	65 d0       	rcall	.+202    	; 0xe46 <__mulhi3>
 d7c:	fc 01       	movw	r30, r24
 d7e:	e2 53       	subi	r30, 0x32	; 50
 d80:	ff 4f       	sbci	r31, 0xFF	; 255
 d82:	a0 83       	st	Z, r26
 d84:	41 83       	std	Z+1, r20	; 0x01
 d86:	32 83       	std	Z+2, r19	; 0x02
 d88:	2f 5f       	subi	r18, 0xFF	; 255
 d8a:	2c 30       	cpi	r18, 0x0C	; 12
 d8c:	89 f7       	brne	.-30     	; 0xd70 <main+0x20e>
 d8e:	80 91 ee 01 	lds	r24, 0x01EE	; 0x8001ee <State>
 d92:	90 91 ef 01 	lds	r25, 0x01EF	; 0x8001ef <State+0x1>
 d96:	89 2b       	or	r24, r25
 d98:	41 f5       	brne	.+80     	; 0xdea <main+0x288>
 d9a:	80 91 0c 02 	lds	r24, 0x020C	; 0x80020c <FastLED>
 d9e:	8e d9       	rcall	.-3300   	; 0xbc <CFastLED::show(unsigned char) [clone .constprop.18]>
 da0:	24 c0       	rjmp	.+72     	; 0xdea <main+0x288>
 da2:	18 31       	cpi	r17, 0x18	; 24
 da4:	11 f5       	brne	.+68     	; 0xdea <main+0x288>
 da6:	fe 01       	movw	r30, r28
 da8:	31 96       	adiw	r30, 0x01	; 1
 daa:	8e ec       	ldi	r24, 0xCE	; 206
 dac:	90 e0       	ldi	r25, 0x00	; 0
 dae:	50 81       	ld	r21, Z
 db0:	41 81       	ldd	r20, Z+1	; 0x01
 db2:	32 81       	ldd	r19, Z+2	; 0x02
 db4:	dc 01       	movw	r26, r24
 db6:	20 e0       	ldi	r18, 0x00	; 0
 db8:	5c 93       	st	X, r21
 dba:	11 96       	adiw	r26, 0x01	; 1
 dbc:	4c 93       	st	X, r20
 dbe:	11 97       	sbiw	r26, 0x01	; 1
 dc0:	12 96       	adiw	r26, 0x02	; 2
 dc2:	3c 93       	st	X, r19
 dc4:	12 97       	sbiw	r26, 0x02	; 2
 dc6:	2f 5f       	subi	r18, 0xFF	; 255
 dc8:	13 96       	adiw	r26, 0x03	; 3
 dca:	2c 30       	cpi	r18, 0x0C	; 12
 dcc:	a9 f7       	brne	.-22     	; 0xdb8 <main+0x256>
 dce:	33 96       	adiw	r30, 0x03	; 3
 dd0:	84 96       	adiw	r24, 0x24	; 36
 dd2:	ee 16       	cp	r14, r30
 dd4:	ff 06       	cpc	r15, r31
 dd6:	59 f7       	brne	.-42     	; 0xdae <main+0x24c>
 dd8:	da cf       	rjmp	.-76     	; 0xd8e <main+0x22c>
 dda:	11 30       	cpi	r17, 0x01	; 1
 ddc:	31 f4       	brne	.+12     	; 0xdea <main+0x288>
 dde:	89 81       	ldd	r24, Y+1	; 0x01
 de0:	81 30       	cpi	r24, 0x01	; 1
 de2:	99 f0       	breq	.+38     	; 0xe0a <main+0x2a8>
 de4:	68 f0       	brcs	.+26     	; 0xe00 <main+0x29e>
 de6:	82 30       	cpi	r24, 0x02	; 2
 de8:	c1 f2       	breq	.-80     	; 0xd9a <main+0x238>
 dea:	80 91 fb 01 	lds	r24, 0x01FB	; 0x8001fb <pendIsr>
 dee:	90 91 fc 01 	lds	r25, 0x01FC	; 0x8001fc <pendIsr+0x1>
 df2:	8e 7f       	andi	r24, 0xFE	; 254
 df4:	90 93 fc 01 	sts	0x01FC, r25	; 0x8001fc <pendIsr+0x1>
 df8:	80 93 fb 01 	sts	0x01FB, r24	; 0x8001fb <pendIsr>
 dfc:	78 94       	sei
 dfe:	6c cf       	rjmp	.-296    	; 0xcd8 <main+0x176>
 e00:	10 92 ef 01 	sts	0x01EF, r1	; 0x8001ef <State+0x1>
 e04:	10 92 ee 01 	sts	0x01EE, r1	; 0x8001ee <State>
 e08:	f0 cf       	rjmp	.-32     	; 0xdea <main+0x288>
 e0a:	d0 92 ef 01 	sts	0x01EF, r13	; 0x8001ef <State+0x1>
 e0e:	c0 92 ee 01 	sts	0x01EE, r12	; 0x8001ee <State>
 e12:	eb cf       	rjmp	.-42     	; 0xdea <main+0x288>

00000e14 <_GLOBAL__sub_I_pSmartMatrix>:
 e14:	ec e0       	ldi	r30, 0x0C	; 12
 e16:	f2 e0       	ldi	r31, 0x02	; 2
 e18:	8f ef       	ldi	r24, 0xFF	; 255
 e1a:	80 83       	st	Z, r24
 e1c:	12 82       	std	Z+2, r1	; 0x02
 e1e:	11 82       	std	Z+1, r1	; 0x01
 e20:	14 86       	std	Z+12, r1	; 0x0c
 e22:	13 86       	std	Z+11, r1	; 0x0b
 e24:	8f ef       	ldi	r24, 0xFF	; 255
 e26:	9f ef       	ldi	r25, 0xFF	; 255
 e28:	dc 01       	movw	r26, r24
 e2a:	87 83       	std	Z+7, r24	; 0x07
 e2c:	90 87       	std	Z+8, r25	; 0x08
 e2e:	a1 87       	std	Z+9, r26	; 0x09
 e30:	b2 87       	std	Z+10, r27	; 0x0a
 e32:	08 95       	ret

00000e34 <__mulqi3>:
 e34:	00 24       	eor	r0, r0

00000e36 <__mulqi3_loop>:
 e36:	80 fd       	sbrc	r24, 0
 e38:	06 0e       	add	r0, r22
 e3a:	66 0f       	add	r22, r22
 e3c:	11 f0       	breq	.+4      	; 0xe42 <__mulqi3_exit>
 e3e:	86 95       	lsr	r24
 e40:	d1 f7       	brne	.-12     	; 0xe36 <__mulqi3_loop>

00000e42 <__mulqi3_exit>:
 e42:	80 2d       	mov	r24, r0
 e44:	08 95       	ret

00000e46 <__mulhi3>:
 e46:	00 24       	eor	r0, r0
 e48:	55 27       	eor	r21, r21
 e4a:	04 c0       	rjmp	.+8      	; 0xe54 <__mulhi3+0xe>
 e4c:	08 0e       	add	r0, r24
 e4e:	59 1f       	adc	r21, r25
 e50:	88 0f       	add	r24, r24
 e52:	99 1f       	adc	r25, r25
 e54:	00 97       	sbiw	r24, 0x00	; 0
 e56:	29 f0       	breq	.+10     	; 0xe62 <__mulhi3+0x1c>
 e58:	76 95       	lsr	r23
 e5a:	67 95       	ror	r22
 e5c:	b8 f3       	brcs	.-18     	; 0xe4c <__mulhi3+0x6>
 e5e:	71 05       	cpc	r23, r1
 e60:	b9 f7       	brne	.-18     	; 0xe50 <__mulhi3+0xa>
 e62:	80 2d       	mov	r24, r0
 e64:	95 2f       	mov	r25, r21
 e66:	08 95       	ret

00000e68 <__mulsi3>:
 e68:	ee 27       	eor	r30, r30
 e6a:	ff 27       	eor	r31, r31

00000e6c <__mulsi3_helper>:
 e6c:	aa 27       	eor	r26, r26
 e6e:	bb 27       	eor	r27, r27
 e70:	08 c0       	rjmp	.+16     	; 0xe82 <__mulsi3_helper+0x16>
 e72:	a2 0f       	add	r26, r18
 e74:	b3 1f       	adc	r27, r19
 e76:	e4 1f       	adc	r30, r20
 e78:	f5 1f       	adc	r31, r21
 e7a:	22 0f       	add	r18, r18
 e7c:	33 1f       	adc	r19, r19
 e7e:	44 1f       	adc	r20, r20
 e80:	55 1f       	adc	r21, r21
 e82:	96 95       	lsr	r25
 e84:	87 95       	ror	r24
 e86:	77 95       	ror	r23
 e88:	67 95       	ror	r22
 e8a:	98 f3       	brcs	.-26     	; 0xe72 <__mulsi3_helper+0x6>
 e8c:	70 40       	sbci	r23, 0x00	; 0
 e8e:	a9 f7       	brne	.-22     	; 0xe7a <__mulsi3_helper+0xe>
 e90:	00 97       	sbiw	r24, 0x00	; 0
 e92:	99 f7       	brne	.-26     	; 0xe7a <__mulsi3_helper+0xe>
 e94:	bd 01       	movw	r22, r26
 e96:	cf 01       	movw	r24, r30
 e98:	08 95       	ret

00000e9a <__divmodhi4>:
 e9a:	97 fb       	bst	r25, 7
 e9c:	07 2e       	mov	r0, r23
 e9e:	16 f4       	brtc	.+4      	; 0xea4 <__divmodhi4+0xa>
 ea0:	00 94       	com	r0
 ea2:	06 d0       	rcall	.+12     	; 0xeb0 <__divmodhi4_neg1>
 ea4:	77 fd       	sbrc	r23, 7
 ea6:	08 d0       	rcall	.+16     	; 0xeb8 <__divmodhi4_neg2>
 ea8:	2d d0       	rcall	.+90     	; 0xf04 <__udivmodhi4>
 eaa:	07 fc       	sbrc	r0, 7
 eac:	05 d0       	rcall	.+10     	; 0xeb8 <__divmodhi4_neg2>
 eae:	3e f4       	brtc	.+14     	; 0xebe <__divmodhi4_exit>

00000eb0 <__divmodhi4_neg1>:
 eb0:	90 95       	com	r25
 eb2:	81 95       	neg	r24
 eb4:	9f 4f       	sbci	r25, 0xFF	; 255
 eb6:	08 95       	ret

00000eb8 <__divmodhi4_neg2>:
 eb8:	70 95       	com	r23
 eba:	61 95       	neg	r22
 ebc:	7f 4f       	sbci	r23, 0xFF	; 255

00000ebe <__divmodhi4_exit>:
 ebe:	08 95       	ret

00000ec0 <__udivmodsi4>:
 ec0:	a1 e2       	ldi	r26, 0x21	; 33
 ec2:	1a 2e       	mov	r1, r26
 ec4:	aa 1b       	sub	r26, r26
 ec6:	bb 1b       	sub	r27, r27
 ec8:	fd 01       	movw	r30, r26
 eca:	0d c0       	rjmp	.+26     	; 0xee6 <__udivmodsi4_ep>

00000ecc <__udivmodsi4_loop>:
 ecc:	aa 1f       	adc	r26, r26
 ece:	bb 1f       	adc	r27, r27
 ed0:	ee 1f       	adc	r30, r30
 ed2:	ff 1f       	adc	r31, r31
 ed4:	a2 17       	cp	r26, r18
 ed6:	b3 07       	cpc	r27, r19
 ed8:	e4 07       	cpc	r30, r20
 eda:	f5 07       	cpc	r31, r21
 edc:	20 f0       	brcs	.+8      	; 0xee6 <__udivmodsi4_ep>
 ede:	a2 1b       	sub	r26, r18
 ee0:	b3 0b       	sbc	r27, r19
 ee2:	e4 0b       	sbc	r30, r20
 ee4:	f5 0b       	sbc	r31, r21

00000ee6 <__udivmodsi4_ep>:
 ee6:	66 1f       	adc	r22, r22
 ee8:	77 1f       	adc	r23, r23
 eea:	88 1f       	adc	r24, r24
 eec:	99 1f       	adc	r25, r25
 eee:	1a 94       	dec	r1
 ef0:	69 f7       	brne	.-38     	; 0xecc <__udivmodsi4_loop>
 ef2:	60 95       	com	r22
 ef4:	70 95       	com	r23
 ef6:	80 95       	com	r24
 ef8:	90 95       	com	r25
 efa:	9b 01       	movw	r18, r22
 efc:	ac 01       	movw	r20, r24
 efe:	bd 01       	movw	r22, r26
 f00:	cf 01       	movw	r24, r30
 f02:	08 95       	ret

00000f04 <__udivmodhi4>:
 f04:	aa 1b       	sub	r26, r26
 f06:	bb 1b       	sub	r27, r27
 f08:	51 e1       	ldi	r21, 0x11	; 17
 f0a:	07 c0       	rjmp	.+14     	; 0xf1a <__udivmodhi4_ep>

00000f0c <__udivmodhi4_loop>:
 f0c:	aa 1f       	adc	r26, r26
 f0e:	bb 1f       	adc	r27, r27
 f10:	a6 17       	cp	r26, r22
 f12:	b7 07       	cpc	r27, r23
 f14:	10 f0       	brcs	.+4      	; 0xf1a <__udivmodhi4_ep>
 f16:	a6 1b       	sub	r26, r22
 f18:	b7 0b       	sbc	r27, r23

00000f1a <__udivmodhi4_ep>:
 f1a:	88 1f       	adc	r24, r24
 f1c:	99 1f       	adc	r25, r25
 f1e:	5a 95       	dec	r21
 f20:	a9 f7       	brne	.-22     	; 0xf0c <__udivmodhi4_loop>
 f22:	80 95       	com	r24
 f24:	90 95       	com	r25
 f26:	bc 01       	movw	r22, r24
 f28:	cd 01       	movw	r24, r26
 f2a:	08 95       	ret

00000f2c <__tablejump2__>:
 f2c:	ee 0f       	add	r30, r30
 f2e:	ff 1f       	adc	r31, r31
 f30:	05 90       	lpm	r0, Z+
 f32:	f4 91       	lpm	r31, Z
 f34:	e0 2d       	mov	r30, r0
 f36:	09 94       	ijmp

00000f38 <abort>:
 f38:	81 e0       	ldi	r24, 0x01	; 1
 f3a:	90 e0       	ldi	r25, 0x00	; 0
 f3c:	f8 94       	cli
 f3e:	00 c0       	rjmp	.+0      	; 0xf40 <_exit>

00000f40 <_exit>:
 f40:	f8 94       	cli

00000f42 <__stop_program>:
 f42:	ff cf       	rjmp	.-2      	; 0xf42 <__stop_program>

Disassembly of section .data:

00800060 <__data_start>:
  800060:	00 00       	nop
  800062:	00 00       	nop
  800064:	93 04       	cpc	r9, r3
  800066:	93 04       	cpc	r9, r3
  800068:	93 04       	cpc	r9, r3
  80006a:	72 04       	cpc	r7, r2
  80006c:	6e 04       	cpc	r6, r14
  80006e:	c9 03       	fmulsu	r20, r17
  800070:	6b 04       	cpc	r6, r11

00800072 <vtable for ClocklessController<(unsigned char)3, 2, 5, 3, (EOrder)10, 0, false, 10>>:
  800072:	00 00       	nop
  800074:	00 00       	nop
  800076:	29 04       	cpc	r2, r9
  800078:	ce 03       	fmulsu	r20, r22
  80007a:	cc 03       	fmulsu	r20, r20
  80007c:	72 04       	cpc	r7, r2
  80007e:	6e 04       	cpc	r6, r14
  800080:	c9 03       	fmulsu	r20, r17
  800082:	98 01       	movw	r18, r16
  800084:	f4 01       	movw	r30, r8

Disassembly of section .bss:

00800086 <__bss_start>:
	...

00800087 <PixelController<(EOrder)10, 1, 4294967295ul>::init_binary_dithering()::R>:
	...

00800088 <rxBuf>:
	...

008000a8 <overflowState>:
	...

008000aa <CLEDController::m_pTail>:
	...

008000ac <CLEDController& CFastLED::addLeds<WS2812, (unsigned char)3, (EOrder)10>(CRGB*, int, int)::c>:
	...

008000bd <guard variable for CLEDController& CFastLED::addLeds<WS2812, (unsigned char)3, (EOrder)10>(CRGB*, int, int)::c>:
	...

008000c5 <txTail>:
	...

008000c6 <rxHead>:
	...

008000c7 <rxTail>:
	...

008000c8 <slaveAddress>:
	...

008000c9 <usi_onReceiverPtr>:
	...

008000cb <usi_onRequestPtr>:
	...

008000cd <rxCount>:
	...

008000ce <leds>:
	...

008001ee <State>:
	...

008001f0 <txBuf>:
	...

008001f8 <txHead>:
	...

008001f9 <txCount>:
	...

008001fa <RowControllerData>:
	...

008001fb <pendIsr>:
	...

008001fd <millis_timer_fract>:
	...

008001fe <millis_timer_overflow_count>:
  8001fe:	00 00       	nop
	...

00800202 <millis_timer_millis>:
  800202:	00 00       	nop
	...

00800206 <CFastLED::countFPS(int)::lastframe>:
  800206:	00 00       	nop
	...

0080020a <CFastLED::countFPS(int)::br>:
	...

0080020c <FastLED>:
	...

00800219 <CLEDController::m_pHead>:
	...

0080021b <lastshow>:
  80021b:	00 00       	nop
	...

Disassembly of section .comment:

00000000 <_end-0x80021f>:
   0:	47 43       	sbci	r20, 0x37	; 55
   2:	43 3a       	cpi	r20, 0xA3	; 163
   4:	20 28       	or	r2, r0
   6:	47 4e       	sbci	r20, 0xE7	; 231
   8:	55 29       	or	r21, r5
   a:	20 37       	cpi	r18, 0x70	; 112
   c:	2e 33       	cpi	r18, 0x3E	; 62
   e:	2e 30       	cpi	r18, 0x0E	; 14
	...

Disassembly of section .note.gnu.avr.deviceinfo:

00000000 <.note.gnu.avr.deviceinfo>:
   0:	04 00       	.word	0x0004	; ????
   2:	00 00       	nop
   4:	2b 00       	.word	0x002b	; ????
   6:	00 00       	nop
   8:	01 00       	.word	0x0001	; ????
   a:	00 00       	nop
   c:	41 56       	subi	r20, 0x61	; 97
   e:	52 00       	.word	0x0052	; ????
  10:	00 00       	nop
  12:	00 00       	nop
  14:	00 20       	and	r0, r0
  16:	00 00       	nop
  18:	60 00       	.word	0x0060	; ????
  1a:	00 00       	nop
  1c:	00 02       	muls	r16, r16
  1e:	00 00       	nop
  20:	00 00       	nop
  22:	00 00       	nop
  24:	00 02       	muls	r16, r16
  26:	00 00       	nop
  28:	08 00       	.word	0x0008	; ????
  2a:	00 00       	nop
  2c:	01 00       	.word	0x0001	; ????
  2e:	00 00       	nop
  30:	00 61       	ori	r16, 0x10	; 16
  32:	74 74       	andi	r23, 0x44	; 68
  34:	69 6e       	ori	r22, 0xE9	; 233
  36:	79 38       	cpi	r23, 0x89	; 137
  38:	34 00       	.word	0x0034	; ????
	...

Disassembly of section .debug_aranges:

00000000 <.debug_aranges>:
   0:	2c 00       	.word	0x002c	; ????
   2:	00 00       	nop
   4:	02 00       	.word	0x0002	; ????
   6:	20 04       	cpc	r2, r0
   8:	00 00       	nop
   a:	04 00       	.word	0x0004	; ????
   c:	00 00       	nop
   e:	00 00       	nop
  10:	70 00       	.word	0x0070	; ????
  12:	00 00       	nop
  14:	f2 0a       	sbc	r15, r18
  16:	00 00       	nop
  18:	62 0b       	sbc	r22, r18
  1a:	00 00       	nop
  1c:	b2 02       	muls	r27, r18
  1e:	00 00       	nop
  20:	14 0e       	add	r1, r20
  22:	00 00       	nop
  24:	20 00       	.word	0x0020	; ????
	...
  2e:	00 00       	nop
  30:	1c 00       	.word	0x001c	; ????
  32:	00 00       	nop
  34:	02 00       	.word	0x0002	; ????
  36:	8a 33       	cpi	r24, 0x3A	; 58
  38:	00 00       	nop
  3a:	04 00       	.word	0x0004	; ????
  3c:	00 00       	nop
  3e:	00 00       	nop
  40:	40 0f       	add	r20, r16
  42:	00 00       	nop
  44:	04 00       	.word	0x0004	; ????
	...
  4e:	00 00       	nop
  50:	1c 00       	.word	0x001c	; ????
  52:	00 00       	nop
  54:	02 00       	.word	0x0002	; ????
  56:	36 34       	cpi	r19, 0x46	; 70
  58:	00 00       	nop
  5a:	04 00       	.word	0x0004	; ????
  5c:	00 00       	nop
  5e:	00 00       	nop
  60:	34 0e       	add	r3, r20
  62:	00 00       	nop
  64:	12 00       	.word	0x0012	; ????
	...
  6e:	00 00       	nop
  70:	1c 00       	.word	0x001c	; ????
  72:	00 00       	nop
  74:	02 00       	.word	0x0002	; ????
  76:	e2 34       	cpi	r30, 0x42	; 66
  78:	00 00       	nop
  7a:	04 00       	.word	0x0004	; ????
  7c:	00 00       	nop
  7e:	00 00       	nop
  80:	46 0e       	add	r4, r22
  82:	00 00       	nop
  84:	22 00       	.word	0x0022	; ????
	...
  8e:	00 00       	nop
  90:	1c 00       	.word	0x001c	; ????
  92:	00 00       	nop
  94:	02 00       	.word	0x0002	; ????
  96:	8e 35       	cpi	r24, 0x5E	; 94
  98:	00 00       	nop
  9a:	04 00       	.word	0x0004	; ????
  9c:	00 00       	nop
  9e:	00 00       	nop
  a0:	68 0e       	add	r6, r24
  a2:	00 00       	nop
  a4:	32 00       	.word	0x0032	; ????
	...
  ae:	00 00       	nop
  b0:	1c 00       	.word	0x001c	; ????
  b2:	00 00       	nop
  b4:	02 00       	.word	0x0002	; ????
  b6:	3a 36       	cpi	r19, 0x6A	; 106
  b8:	00 00       	nop
  ba:	04 00       	.word	0x0004	; ????
  bc:	00 00       	nop
  be:	00 00       	nop
  c0:	9a 0e       	add	r9, r26
  c2:	00 00       	nop
  c4:	26 00       	.word	0x0026	; ????
	...
  ce:	00 00       	nop
  d0:	1c 00       	.word	0x001c	; ????
  d2:	00 00       	nop
  d4:	02 00       	.word	0x0002	; ????
  d6:	e6 36       	cpi	r30, 0x66	; 102
  d8:	00 00       	nop
  da:	04 00       	.word	0x0004	; ????
  dc:	00 00       	nop
  de:	00 00       	nop
  e0:	c0 0e       	add	r12, r16
  e2:	00 00       	nop
  e4:	44 00       	.word	0x0044	; ????
	...
  ee:	00 00       	nop
  f0:	1c 00       	.word	0x001c	; ????
  f2:	00 00       	nop
  f4:	02 00       	.word	0x0002	; ????
  f6:	92 37       	cpi	r25, 0x72	; 114
  f8:	00 00       	nop
  fa:	04 00       	.word	0x0004	; ????
  fc:	00 00       	nop
  fe:	00 00       	nop
 100:	30 00       	.word	0x0030	; ????
 102:	00 00       	nop
 104:	16 00       	.word	0x0016	; ????
	...
 10e:	00 00       	nop
 110:	1c 00       	.word	0x001c	; ????
 112:	00 00       	nop
 114:	02 00       	.word	0x0002	; ????
 116:	3e 38       	cpi	r19, 0x8E	; 142
 118:	00 00       	nop
 11a:	04 00       	.word	0x0004	; ????
 11c:	00 00       	nop
 11e:	00 00       	nop
 120:	46 00       	.word	0x0046	; ????
 122:	00 00       	nop
 124:	10 00       	.word	0x0010	; ????
	...
 12e:	00 00       	nop
 130:	1c 00       	.word	0x001c	; ????
 132:	00 00       	nop
 134:	02 00       	.word	0x0002	; ????
 136:	ea 38       	cpi	r30, 0x8A	; 138
 138:	00 00       	nop
 13a:	04 00       	.word	0x0004	; ????
 13c:	00 00       	nop
 13e:	00 00       	nop
 140:	56 00       	.word	0x0056	; ????
 142:	00 00       	nop
 144:	14 00       	.word	0x0014	; ????
	...
 14e:	00 00       	nop
 150:	1c 00       	.word	0x001c	; ????
 152:	00 00       	nop
 154:	02 00       	.word	0x0002	; ????
 156:	96 39       	cpi	r25, 0x96	; 150
 158:	00 00       	nop
 15a:	04 00       	.word	0x0004	; ????
 15c:	00 00       	nop
 15e:	00 00       	nop
 160:	04 0f       	add	r16, r20
 162:	00 00       	nop
 164:	28 00       	.word	0x0028	; ????
	...
 16e:	00 00       	nop
 170:	1c 00       	.word	0x001c	; ????
 172:	00 00       	nop
 174:	02 00       	.word	0x0002	; ????
 176:	42 3a       	cpi	r20, 0xA2	; 162
 178:	00 00       	nop
 17a:	04 00       	.word	0x0004	; ????
 17c:	00 00       	nop
 17e:	00 00       	nop
 180:	2c 0f       	add	r18, r28
 182:	00 00       	nop
 184:	0c 00       	.word	0x000c	; ????
	...

Disassembly of section .debug_info:

00000000 <.debug_info>:
       0:	1c 04       	cpc	r1, r12
       2:	00 00       	nop
       4:	02 00       	.word	0x0002	; ????
       6:	00 00       	nop
       8:	00 00       	nop
       a:	04 01       	movw	r0, r8
	...
      14:	02 0f       	add	r16, r18
      16:	00 00       	nop
      18:	00 01       	movw	r0, r0
      1a:	08 03       	fmul	r16, r16
      1c:	17 00       	.word	0x0017	; ????
      1e:	00 00       	nop
      20:	02 07       	cpc	r16, r18
      22:	04 14       	cp	r0, r4
      24:	00 00       	nop
      26:	00 05       	cpc	r16, r0
      28:	1b 00       	.word	0x001b	; ????
      2a:	00 00       	nop
      2c:	ff 01       	movw	r30, r30
      2e:	00 06       	cpc	r0, r16
      30:	20 00       	.word	0x0020	; ????
      32:	00 00       	nop
      34:	00 00       	nop
      36:	22 00       	.word	0x0022	; ????
      38:	00 00       	nop
      3a:	01 05       	cpc	r16, r1
      3c:	03 00       	.word	0x0003	; ????
      3e:	00 81       	ld	r16, Z
      40:	00 07       	cpc	r16, r16
      42:	29 00       	.word	0x0029	; ????
      44:	00 00       	nop
      46:	00 00       	nop
      48:	14 00       	.word	0x0014	; ????
      4a:	00 00       	nop
      4c:	01 05       	cpc	r16, r1
      4e:	03 3b       	cpi	r16, 0xB3	; 179
      50:	00 80       	ld	r0, Z
      52:	00 08       	sbc	r0, r0
      54:	2f 00       	.word	0x002f	; ????
      56:	00 00       	nop
      58:	00 00       	nop
      5a:	14 00       	.word	0x0014	; ????
      5c:	00 00       	nop
      5e:	01 05       	cpc	r16, r1
      60:	03 3a       	cpi	r16, 0xA3	; 163
      62:	00 80       	ld	r0, Z
      64:	00 09       	sbc	r16, r0
      66:	34 00       	.word	0x0034	; ????
      68:	00 00       	nop
      6a:	00 00       	nop
      6c:	14 00       	.word	0x0014	; ????
      6e:	00 00       	nop
      70:	01 05       	cpc	r16, r1
      72:	03 39       	cpi	r16, 0x93	; 147
      74:	00 80       	ld	r0, Z
      76:	00 0a       	sbc	r0, r16
      78:	39 00       	.word	0x0039	; ????
      7a:	00 00       	nop
      7c:	00 00       	nop
      7e:	14 00       	.word	0x0014	; ????
      80:	00 00       	nop
      82:	01 05       	cpc	r16, r1
      84:	03 38       	cpi	r16, 0x83	; 131
      86:	00 80       	ld	r0, Z
      88:	00 0b       	sbc	r16, r16
      8a:	3f 00       	.word	0x003f	; ????
      8c:	00 00       	nop
      8e:	00 00       	nop
      90:	14 00       	.word	0x0014	; ????
      92:	00 00       	nop
      94:	01 05       	cpc	r16, r1
      96:	03 37       	cpi	r16, 0x73	; 115
      98:	00 80       	ld	r0, Z
      9a:	00 0c       	add	r0, r0
      9c:	44 00       	.word	0x0044	; ????
      9e:	00 00       	nop
      a0:	00 00       	nop
      a2:	14 00       	.word	0x0014	; ????
      a4:	00 00       	nop
      a6:	01 05       	cpc	r16, r1
      a8:	03 36       	cpi	r16, 0x63	; 99
      aa:	00 80       	ld	r0, Z
      ac:	00 0d       	add	r16, r0
      ae:	49 00       	.word	0x0049	; ????
      b0:	00 00       	nop
      b2:	00 00       	nop
      b4:	14 00       	.word	0x0014	; ????
      b6:	00 00       	nop
      b8:	01 05       	cpc	r16, r1
      ba:	03 23       	and	r16, r19
      bc:	00 80       	ld	r0, Z
      be:	00 0e       	add	r0, r16
      c0:	50 00       	.word	0x0050	; ????
      c2:	00 00       	nop
      c4:	00 00       	nop
      c6:	14 00       	.word	0x0014	; ????
      c8:	00 00       	nop
      ca:	01 05       	cpc	r16, r1
      cc:	03 28       	or	r0, r3
      ce:	00 80       	ld	r0, Z
      d0:	00 0f       	add	r16, r16
      d2:	55 00       	.word	0x0055	; ????
      d4:	00 00       	nop
      d6:	00 00       	nop
      d8:	14 00       	.word	0x0014	; ????
      da:	00 00       	nop
      dc:	01 05       	cpc	r16, r1
      de:	03 21       	and	r16, r3
      e0:	00 80       	ld	r0, Z
      e2:	00 10       	cpse	r0, r0
      e4:	5b 00       	.word	0x005b	; ????
      e6:	00 00       	nop
      e8:	00 00       	nop
      ea:	14 00       	.word	0x0014	; ????
      ec:	00 00       	nop
      ee:	01 05       	cpc	r16, r1
      f0:	03 27       	eor	r16, r19
      f2:	00 80       	ld	r0, Z
      f4:	00 11       	cpse	r16, r0
      f6:	61 00       	.word	0x0061	; ????
      f8:	00 00       	nop
      fa:	00 00       	nop
      fc:	14 00       	.word	0x0014	; ????
      fe:	00 00       	nop
     100:	01 05       	cpc	r16, r1
     102:	03 26       	eor	r0, r19
     104:	00 80       	ld	r0, Z
     106:	00 12       	cpse	r0, r16
     108:	68 00       	.word	0x0068	; ????
     10a:	00 00       	nop
     10c:	00 00       	nop
     10e:	1b 00       	.word	0x001b	; ????
     110:	00 00       	nop
     112:	01 05       	cpc	r16, r1
     114:	03 24       	eor	r0, r3
     116:	00 80       	ld	r0, Z
     118:	00 13       	cpse	r16, r16
     11a:	6c 00       	.word	0x006c	; ????
     11c:	00 00       	nop
     11e:	00 00       	nop
     120:	14 00       	.word	0x0014	; ????
     122:	00 00       	nop
     124:	01 05       	cpc	r16, r1
     126:	03 23       	and	r16, r19
     128:	00 80       	ld	r0, Z
     12a:	00 14       	cp	r0, r0
     12c:	73 00       	.word	0x0073	; ????
     12e:	00 00       	nop
     130:	00 00       	nop
     132:	14 00       	.word	0x0014	; ????
     134:	00 00       	nop
     136:	01 05       	cpc	r16, r1
     138:	03 21       	and	r16, r3
     13a:	00 80       	ld	r0, Z
     13c:	00 15       	cp	r16, r0
     13e:	79 00       	.word	0x0079	; ????
     140:	00 00       	nop
     142:	00 00       	nop
     144:	14 00       	.word	0x0014	; ????
     146:	00 00       	nop
     148:	01 05       	cpc	r16, r1
     14a:	03 30       	cpi	r16, 0x03	; 3
     14c:	00 80       	ld	r0, Z
     14e:	00 16       	cp	r0, r16
     150:	7f 00       	.word	0x007f	; ????
     152:	00 00       	nop
     154:	00 00       	nop
     156:	14 00       	.word	0x0014	; ????
     158:	00 00       	nop
     15a:	01 05       	cpc	r16, r1
     15c:	03 2f       	mov	r16, r19
     15e:	00 80       	ld	r0, Z
     160:	00 17       	cp	r16, r16
     162:	85 00       	.word	0x0085	; ????
     164:	00 00       	nop
     166:	00 00       	nop
     168:	14 00       	.word	0x0014	; ????
     16a:	00 00       	nop
     16c:	01 05       	cpc	r16, r1
     16e:	03 2e       	mov	r0, r19
     170:	00 80       	ld	r0, Z
     172:	00 18       	sub	r0, r0
     174:	8b 00       	.word	0x008b	; ????
     176:	00 00       	nop
     178:	00 00       	nop
     17a:	14 00       	.word	0x0014	; ????
     17c:	00 00       	nop
     17e:	01 05       	cpc	r16, r1
     180:	03 2d       	mov	r16, r3
     182:	00 80       	ld	r0, Z
     184:	00 19       	sub	r16, r0
     186:	91 00       	.word	0x0091	; ????
     188:	00 00       	nop
     18a:	00 00       	nop
     18c:	14 00       	.word	0x0014	; ????
     18e:	00 00       	nop
     190:	01 05       	cpc	r16, r1
     192:	03 55       	subi	r16, 0x53	; 83
     194:	00 80       	ld	r0, Z
     196:	00 1a       	sub	r0, r16
     198:	97 00       	.word	0x0097	; ????
     19a:	00 00       	nop
     19c:	00 00       	nop
     19e:	14 00       	.word	0x0014	; ????
     1a0:	00 00       	nop
     1a2:	01 05       	cpc	r16, r1
     1a4:	03 5b       	subi	r16, 0xB3	; 179
     1a6:	00 80       	ld	r0, Z
     1a8:	00 1b       	sub	r16, r16
     1aa:	9d 00       	.word	0x009d	; ????
     1ac:	00 00       	nop
     1ae:	00 00       	nop
     1b0:	14 00       	.word	0x0014	; ????
     1b2:	00 00       	nop
     1b4:	01 05       	cpc	r16, r1
     1b6:	03 5a       	subi	r16, 0xA3	; 163
     1b8:	00 80       	ld	r0, Z
     1ba:	00 1c       	adc	r0, r0
     1bc:	a2 00       	.word	0x00a2	; ????
     1be:	00 00       	nop
     1c0:	00 00       	nop
     1c2:	14 00       	.word	0x0014	; ????
     1c4:	00 00       	nop
     1c6:	01 05       	cpc	r16, r1
     1c8:	03 40       	sbci	r16, 0x03	; 3
     1ca:	00 80       	ld	r0, Z
     1cc:	00 1d       	adc	r16, r0
     1ce:	a9 00       	.word	0x00a9	; ????
     1d0:	00 00       	nop
     1d2:	00 00       	nop
     1d4:	14 00       	.word	0x0014	; ????
     1d6:	00 00       	nop
     1d8:	01 05       	cpc	r16, r1
     1da:	03 32       	cpi	r16, 0x23	; 35
     1dc:	00 80       	ld	r0, Z
     1de:	00 1e       	adc	r0, r16
     1e0:	b0 00       	.word	0x00b0	; ????
     1e2:	00 00       	nop
     1e4:	00 00       	nop
     1e6:	1b 00       	.word	0x001b	; ????
     1e8:	00 00       	nop
     1ea:	01 05       	cpc	r16, r1
     1ec:	03 3e       	cpi	r16, 0xE3	; 227
     1ee:	00 80       	ld	r0, Z
     1f0:	00 1f       	adc	r16, r16
     1f2:	b5 00       	.word	0x00b5	; ????
     1f4:	00 00       	nop
     1f6:	00 00       	nop
     1f8:	14 00       	.word	0x0014	; ????
     1fa:	00 00       	nop
     1fc:	01 05       	cpc	r16, r1
     1fe:	03 3d       	cpi	r16, 0xD3	; 211
     200:	00 80       	ld	r0, Z
     202:	00 20       	and	r0, r0
     204:	ba 00       	.word	0x00ba	; ????
     206:	00 00       	nop
     208:	00 00       	nop
     20a:	14 00       	.word	0x0014	; ????
     20c:	00 00       	nop
     20e:	01 05       	cpc	r16, r1
     210:	03 3c       	cpi	r16, 0xC3	; 195
     212:	00 80       	ld	r0, Z
     214:	00 21       	and	r16, r0
     216:	bf 00       	.word	0x00bf	; ????
     218:	00 00       	nop
     21a:	00 00       	nop
     21c:	14 00       	.word	0x0014	; ????
     21e:	00 00       	nop
     220:	01 05       	cpc	r16, r1
     222:	03 41       	sbci	r16, 0x13	; 19
     224:	00 80       	ld	r0, Z
     226:	00 22       	and	r0, r16
     228:	c6 00       	.word	0x00c6	; ????
     22a:	00 00       	nop
     22c:	00 00       	nop
     22e:	14 00       	.word	0x0014	; ????
     230:	00 00       	nop
     232:	01 05       	cpc	r16, r1
     234:	03 59       	subi	r16, 0x93	; 147
     236:	00 80       	ld	r0, Z
     238:	00 23       	and	r16, r16
     23a:	cd 00       	.word	0x00cd	; ????
     23c:	00 00       	nop
     23e:	00 00       	nop
     240:	14 00       	.word	0x0014	; ????
     242:	00 00       	nop
     244:	01 05       	cpc	r16, r1
     246:	03 58       	subi	r16, 0x83	; 131
     248:	00 80       	ld	r0, Z
     24a:	00 24       	eor	r0, r0
     24c:	d3 00       	.word	0x00d3	; ????
     24e:	00 00       	nop
     250:	00 00       	nop
     252:	14 00       	.word	0x0014	; ????
     254:	00 00       	nop
     256:	01 05       	cpc	r16, r1
     258:	03 50       	subi	r16, 0x03	; 3
     25a:	00 80       	ld	r0, Z
     25c:	00 25       	eor	r16, r0
     25e:	da 00       	.word	0x00da	; ????
     260:	00 00       	nop
     262:	00 00       	nop
     264:	14 00       	.word	0x0014	; ????
     266:	00 00       	nop
     268:	01 05       	cpc	r16, r1
     26a:	03 53       	subi	r16, 0x33	; 51
     26c:	00 80       	ld	r0, Z
     26e:	00 26       	eor	r0, r16
     270:	e1 00       	.word	0x00e1	; ????
     272:	00 00       	nop
     274:	00 00       	nop
     276:	14 00       	.word	0x0014	; ????
     278:	00 00       	nop
     27a:	01 05       	cpc	r16, r1
     27c:	03 52       	subi	r16, 0x23	; 35
     27e:	00 80       	ld	r0, Z
     280:	00 27       	eor	r16, r16
     282:	e7 00       	.word	0x00e7	; ????
     284:	00 00       	nop
     286:	00 00       	nop
     288:	14 00       	.word	0x0014	; ????
     28a:	00 00       	nop
     28c:	01 05       	cpc	r16, r1
     28e:	03 56       	subi	r16, 0x63	; 99
     290:	00 80       	ld	r0, Z
     292:	00 28       	or	r0, r0
     294:	ed 00       	.word	0x00ed	; ????
     296:	00 00       	nop
     298:	00 00       	nop
     29a:	14 00       	.word	0x0014	; ????
     29c:	00 00       	nop
     29e:	01 05       	cpc	r16, r1
     2a0:	03 5c       	subi	r16, 0xC3	; 195
     2a2:	00 80       	ld	r0, Z
     2a4:	00 29       	or	r16, r0
     2a6:	f3 00       	.word	0x00f3	; ????
     2a8:	00 00       	nop
     2aa:	00 00       	nop
     2ac:	14 00       	.word	0x0014	; ????
     2ae:	00 00       	nop
     2b0:	01 05       	cpc	r16, r1
     2b2:	03 43       	sbci	r16, 0x33	; 51
     2b4:	00 80       	ld	r0, Z
     2b6:	00 2a       	or	r0, r16
     2b8:	f9 00       	.word	0x00f9	; ????
     2ba:	00 00       	nop
     2bc:	00 00       	nop
     2be:	14 00       	.word	0x0014	; ????
     2c0:	00 00       	nop
     2c2:	01 05       	cpc	r16, r1
     2c4:	03 2c       	mov	r0, r3
     2c6:	00 80       	ld	r0, Z
     2c8:	00 2b       	or	r16, r16
     2ca:	00 01       	movw	r0, r0
     2cc:	00 00       	nop
     2ce:	00 00       	nop
     2d0:	14 00       	.word	0x0014	; ????
     2d2:	00 00       	nop
     2d4:	01 05       	cpc	r16, r1
     2d6:	03 2b       	or	r16, r19
     2d8:	00 80       	ld	r0, Z
     2da:	00 2c       	mov	r0, r0
     2dc:	06 01       	movw	r0, r12
     2de:	00 00       	nop
     2e0:	00 00       	nop
     2e2:	14 00       	.word	0x0014	; ????
     2e4:	00 00       	nop
     2e6:	01 05       	cpc	r16, r1
     2e8:	03 4f       	sbci	r16, 0xF3	; 243
     2ea:	00 80       	ld	r0, Z
     2ec:	00 2d       	mov	r16, r0
     2ee:	0d 01       	movw	r0, r26
     2f0:	00 00       	nop
     2f2:	00 00       	nop
     2f4:	14 00       	.word	0x0014	; ????
     2f6:	00 00       	nop
     2f8:	01 05       	cpc	r16, r1
     2fa:	03 4e       	sbci	r16, 0xE3	; 227
     2fc:	00 80       	ld	r0, Z
     2fe:	00 2e       	mov	r0, r16
     300:	14 01       	movw	r2, r8
     302:	00 00       	nop
     304:	00 00       	nop
     306:	14 00       	.word	0x0014	; ????
     308:	00 00       	nop
     30a:	01 05       	cpc	r16, r1
     30c:	03 42       	sbci	r16, 0x23	; 35
     30e:	00 80       	ld	r0, Z
     310:	00 2f       	mov	r16, r16
     312:	1b 01       	movw	r2, r22
     314:	00 00       	nop
     316:	00 00       	nop
     318:	1b 00       	.word	0x001b	; ????
     31a:	00 00       	nop
     31c:	01 05       	cpc	r16, r1
     31e:	03 4c       	sbci	r16, 0xC3	; 195
     320:	00 80       	ld	r0, Z
     322:	00 30       	cpi	r16, 0x00	; 0
     324:	21 01       	movw	r4, r2
     326:	00 00       	nop
     328:	00 00       	nop
     32a:	1b 00       	.word	0x001b	; ????
     32c:	00 00       	nop
     32e:	01 05       	cpc	r16, r1
     330:	03 4a       	sbci	r16, 0xA3	; 163
     332:	00 80       	ld	r0, Z
     334:	00 31       	cpi	r16, 0x10	; 16
     336:	27 01       	movw	r4, r14
     338:	00 00       	nop
     33a:	00 00       	nop
     33c:	1b 00       	.word	0x001b	; ????
     33e:	00 00       	nop
     340:	01 05       	cpc	r16, r1
     342:	03 48       	sbci	r16, 0x83	; 131
     344:	00 80       	ld	r0, Z
     346:	00 32       	cpi	r16, 0x20	; 32
     348:	2d 01       	movw	r4, r26
     34a:	00 00       	nop
     34c:	00 00       	nop
     34e:	1b 00       	.word	0x001b	; ????
     350:	00 00       	nop
     352:	01 05       	cpc	r16, r1
     354:	03 44       	sbci	r16, 0x43	; 67
     356:	00 80       	ld	r0, Z
     358:	00 33       	cpi	r16, 0x30	; 48
     35a:	32 01       	movw	r6, r4
     35c:	00 00       	nop
     35e:	00 00       	nop
     360:	14 00       	.word	0x0014	; ????
     362:	00 00       	nop
     364:	01 05       	cpc	r16, r1
     366:	03 57       	subi	r16, 0x73	; 115
     368:	00 80       	ld	r0, Z
     36a:	00 34       	cpi	r16, 0x40	; 64
     36c:	39 01       	movw	r6, r18
     36e:	00 00       	nop
     370:	00 00       	nop
     372:	14 00       	.word	0x0014	; ????
     374:	00 00       	nop
     376:	01 05       	cpc	r16, r1
     378:	03 20       	and	r0, r3
     37a:	00 80       	ld	r0, Z
     37c:	00 35       	cpi	r16, 0x50	; 80
     37e:	3d 01       	movw	r6, r26
     380:	00 00       	nop
     382:	00 00       	nop
     384:	14 00       	.word	0x0014	; ????
     386:	00 00       	nop
     388:	01 05       	cpc	r16, r1
     38a:	03 51       	subi	r16, 0x13	; 19
     38c:	00 80       	ld	r0, Z
     38e:	00 36       	cpi	r16, 0x60	; 96
     390:	44 01       	movw	r8, r8
     392:	00 00       	nop
     394:	00 00       	nop
     396:	14 00       	.word	0x0014	; ????
     398:	00 00       	nop
     39a:	01 05       	cpc	r16, r1
     39c:	03 46       	sbci	r16, 0x63	; 99
     39e:	00 80       	ld	r0, Z
     3a0:	00 37       	cpi	r16, 0x70	; 112
     3a2:	4a 01       	movw	r8, r20
     3a4:	00 00       	nop
     3a6:	00 00       	nop
     3a8:	14 00       	.word	0x0014	; ????
     3aa:	00 00       	nop
     3ac:	01 05       	cpc	r16, r1
     3ae:	03 5f       	subi	r16, 0xF3	; 243
     3b0:	00 80       	ld	r0, Z
     3b2:	00 38       	cpi	r16, 0x80	; 128
     3b4:	4f 01       	movw	r8, r30
     3b6:	00 00       	nop
     3b8:	00 00       	nop
     3ba:	1b 00       	.word	0x001b	; ????
     3bc:	00 00       	nop
     3be:	01 05       	cpc	r16, r1
     3c0:	03 5d       	subi	r16, 0xD3	; 211
     3c2:	00 80       	ld	r0, Z
     3c4:	00 39       	cpi	r16, 0x90	; 144
     3c6:	52 01       	movw	r10, r4
     3c8:	00 00       	nop
     3ca:	00 00       	nop
     3cc:	14 00       	.word	0x0014	; ????
     3ce:	00 00       	nop
     3d0:	01 05       	cpc	r16, r1
     3d2:	03 55       	subi	r16, 0x53	; 83
     3d4:	00 80       	ld	r0, Z
     3d6:	00 3a       	cpi	r16, 0xA0	; 160
     3d8:	58 01       	movw	r10, r16
     3da:	00 00       	nop
     3dc:	00 00       	nop
     3de:	14 00       	.word	0x0014	; ????
     3e0:	00 00       	nop
     3e2:	01 05       	cpc	r16, r1
     3e4:	03 54       	subi	r16, 0x43	; 67
     3e6:	00 80       	ld	r0, Z
     3e8:	00 3b       	cpi	r16, 0xB0	; 176
     3ea:	5e 01       	movw	r10, r28
     3ec:	00 00       	nop
     3ee:	00 00       	nop
     3f0:	14 00       	.word	0x0014	; ????
     3f2:	00 00       	nop
     3f4:	01 05       	cpc	r16, r1
     3f6:	03 35       	cpi	r16, 0x53	; 83
     3f8:	00 80       	ld	r0, Z
     3fa:	00 3c       	cpi	r16, 0xC0	; 192
     3fc:	65 01       	movw	r12, r10
     3fe:	00 00       	nop
     400:	00 00       	nop
     402:	14 00       	.word	0x0014	; ????
     404:	00 00       	nop
     406:	01 05       	cpc	r16, r1
     408:	03 34       	cpi	r16, 0x43	; 67
     40a:	00 80       	ld	r0, Z
     40c:	00 3d       	cpi	r16, 0xD0	; 208
     40e:	6c 01       	movw	r12, r24
     410:	00 00       	nop
     412:	00 00       	nop
     414:	14 00       	.word	0x0014	; ????
     416:	00 00       	nop
     418:	01 05       	cpc	r16, r1
     41a:	03 33       	cpi	r16, 0x33	; 51
     41c:	00 80       	ld	r0, Z
     41e:	00 00       	nop
     420:	66 2f       	mov	r22, r22
     422:	00 00       	nop
     424:	02 00       	.word	0x0002	; ????
     426:	e8 03       	fmulsu	r22, r16
     428:	00 00       	nop
     42a:	04 69       	ori	r16, 0x94	; 148
     42c:	a3 12       	cpse	r10, r19
     42e:	00 00       	nop
     430:	04 b7       	in	r16, 0x34	; 52
     432:	01 00       	.word	0x0001	; ????
     434:	00 38       	cpi	r16, 0x80	; 128
     436:	04 00       	.word	0x0004	; ????
     438:	00 90 02 00 	lds	r0, 0x0002	; 0x800002 <__EEPROM_REGION_LENGTH__+0x7f0002>
	...
     444:	00 1a       	sub	r0, r16
     446:	00 00       	nop
     448:	00 17       	cp	r16, r16
     44a:	99 02       	muls	r25, r25
     44c:	00 00       	nop
     44e:	0f 82       	std	Y+7, r0	; 0x07
     450:	34 00       	.word	0x0034	; ????
     452:	00 00       	nop
     454:	23 04       	cpc	r2, r3
     456:	07 fc       	sbrc	r0, 7
     458:	0e 00       	.word	0x000e	; ????
     45a:	00 17       	cp	r16, r16
     45c:	ea 08       	sbc	r14, r10
     45e:	00 00       	nop
     460:	0f 7e       	andi	r16, 0xEF	; 239
     462:	50 00       	.word	0x0050	; ????
     464:	00 00       	nop
     466:	2b 3b       	cpi	r18, 0xBB	; 187
     468:	00 00       	nop
     46a:	00 11       	cpse	r16, r0
     46c:	3b 00       	.word	0x003b	; ????
     46e:	00 00       	nop
     470:	23 01       	movw	r4, r6
     472:	08 cf       	rjmp	.-496    	; 0x284 <__stack+0x25>
     474:	0f 00       	.word	0x000f	; ????
     476:	00 17       	cp	r16, r16
     478:	84 0c       	add	r8, r4
     47a:	00 00       	nop
     47c:	0d d5       	rcall	.+2586   	; 0xe98 <__mulsi3_helper+0x2c>
     47e:	62 00       	.word	0x0062	; ????
     480:	00 00       	nop
     482:	0b 02       	muls	r16, r27
     484:	68 00       	.word	0x0068	; ????
     486:	00 00       	nop
     488:	4c 3b       	cpi	r20, 0xBC	; 188
     48a:	00 00       	nop
     48c:	00 7c       	andi	r16, 0xC0	; 192
     48e:	00 00       	nop
     490:	00 02       	muls	r16, r16
     492:	3b 00       	.word	0x003b	; ????
     494:	00 00       	nop
     496:	02 29       	or	r16, r2
     498:	00 00       	nop
     49a:	00 00       	nop
     49c:	17 97       	sbiw	r26, 0x07	; 7
     49e:	0c 00       	.word	0x000c	; ????
     4a0:	00 0f       	add	r16, r16
     4a2:	80 87       	std	Z+8, r24	; 0x08
     4a4:	00 00       	nop
     4a6:	00 23       	and	r16, r16
     4a8:	02 07       	cpc	r16, r18
     4aa:	01 0f       	add	r16, r17
     4ac:	00 00       	nop
     4ae:	24 02       	muls	r18, r20
     4b0:	04 00       	.word	0x0004	; ????
     4b2:	00 0d       	add	r16, r0
     4b4:	0d dd       	rcall	.-1510   	; 0xfffffed0 <__eeprom_end+0xff7efed0>
     4b6:	e1 01       	movw	r28, r2
     4b8:	00 00       	nop
     4ba:	0f b4       	in	r0, 0x2f	; 47
     4bc:	0d 00       	.word	0x000d	; ????
     4be:	00 0d       	add	r16, r0
     4c0:	df 3b       	cpi	r29, 0xBF	; 191
     4c2:	00 00       	nop
     4c4:	00 02       	muls	r16, r16
     4c6:	23 00       	.word	0x0023	; ????
     4c8:	03 0f       	add	r16, r19
     4ca:	30 12       	cpse	r3, r16
     4cc:	00 00       	nop
     4ce:	0d e0       	ldi	r16, 0x0D	; 13
     4d0:	7c 00       	.word	0x007c	; ????
     4d2:	00 00       	nop
     4d4:	02 23       	and	r16, r18
     4d6:	01 03       	mulsu	r16, r17
     4d8:	0f d7       	rcall	.+3614   	; 0x12f8 <__data_load_end+0x38e>
     4da:	06 00       	.word	0x0006	; ????
     4dc:	00 0d       	add	r16, r0
     4de:	e1 29       	or	r30, r1
     4e0:	00 00       	nop
     4e2:	00 02       	muls	r16, r16
     4e4:	23 03       	mulsu	r18, r19
     4e6:	03 0f       	add	r16, r19
     4e8:	4d 0a       	sbc	r4, r29
     4ea:	00 00       	nop
     4ec:	0d e2       	ldi	r16, 0x2D	; 45
     4ee:	29 00       	.word	0x0029	; ????
     4f0:	00 00       	nop
     4f2:	02 23       	and	r16, r18
     4f4:	07 03       	mulsu	r16, r23
     4f6:	0f 63       	ori	r16, 0x3F	; 63
     4f8:	0d 00       	.word	0x000d	; ????
     4fa:	00 0d       	add	r16, r0
     4fc:	e3 57       	subi	r30, 0x73	; 115
     4fe:	00 00       	nop
     500:	00 02       	muls	r16, r16
     502:	23 0b       	sbc	r18, r19
     504:	03 1b       	sub	r16, r19
     506:	0c 0d       	add	r16, r12
     508:	00 00       	nop
     50a:	02 21       	and	r16, r2
     50c:	01 f5       	brne	.+64     	; 0x54e <L_1401+0x62>
     50e:	00 00       	nop
     510:	00 fc       	sbrc	r0, 0
     512:	00 00       	nop
     514:	00 03       	mulsu	r16, r16
     516:	52 12       	cpse	r5, r18
     518:	00 00       	nop
     51a:	01 00       	.word	0x0001	; ????
     51c:	46 67       	ori	r20, 0x76	; 118
     51e:	09 00       	.word	0x0009	; ????
     520:	00 01       	movw	r0, r0
     522:	01 0b       	sbc	r16, r17
     524:	01 00       	.word	0x0001	; ????
     526:	00 17       	cp	r16, r16
     528:	01 00       	.word	0x0001	; ????
     52a:	00 03       	mulsu	r16, r16
     52c:	52 12       	cpse	r5, r18
     52e:	00 00       	nop
     530:	01 02       	muls	r16, r17
     532:	7c 00       	.word	0x007c	; ????
     534:	00 00       	nop
     536:	00 1b       	sub	r16, r16
     538:	26 03       	mulsu	r18, r22
     53a:	00 00       	nop
     53c:	02 ed       	ldi	r16, 0xD2	; 210
     53e:	01 27       	eor	r16, r17
     540:	01 00       	.word	0x0001	; ????
     542:	00 38       	cpi	r16, 0x80	; 128
     544:	01 00       	.word	0x0001	; ????
     546:	00 03       	mulsu	r16, r16
     548:	52 12       	cpse	r5, r18
     54a:	00 00       	nop
     54c:	01 02       	muls	r16, r17
     54e:	7c 00       	.word	0x007c	; ????
     550:	00 00       	nop
     552:	02 a7       	std	Z+42, r16	; 0x2a
     554:	12 00       	.word	0x0012	; ????
     556:	00 00       	nop
     558:	4d f3       	brhs	.-46     	; 0x52c <L_1401+0x40>
     55a:	10 00       	.word	0x0010	; ????
     55c:	00 02       	muls	r16, r16
     55e:	2a dd       	rcall	.-1452   	; 0xffffffb4 <__eeprom_end+0xff7effb4>
     560:	12 00       	.word	0x0012	; ????
     562:	00 01       	movw	r0, r0
     564:	5d 01       	movw	r10, r26
     566:	00 00       	nop
     568:	02 1d       	adc	r16, r2
     56a:	0e 00       	.word	0x000e	; ????
     56c:	00 02       	muls	r16, r16
     56e:	c9 0a       	sbc	r12, r25
     570:	00 00       	nop
     572:	02 b2       	in	r0, 0x12	; 18
     574:	0a 00       	.word	0x000a	; ????
     576:	00 02       	muls	r16, r16
     578:	b2 0a       	sbc	r11, r18
     57a:	00 00       	nop
     57c:	00 6a       	ori	r16, 0xA0	; 160
     57e:	f3 10       	cpse	r15, r3
     580:	00 00       	nop
     582:	0d 5f       	subi	r16, 0xFD	; 253
     584:	01 e0       	ldi	r16, 0x01	; 1
     586:	13 00       	.word	0x0013	; ????
     588:	00 01       	movw	r0, r0
     58a:	7e 01       	movw	r14, r28
     58c:	00 00       	nop
     58e:	02 c9       	rjmp	.-3580   	; 0xfffff794 <__eeprom_end+0xff7ef794>
     590:	0a 00       	.word	0x000a	; ????
     592:	00 02       	muls	r16, r16
     594:	b2 0a       	sbc	r11, r18
     596:	00 00       	nop
     598:	02 b2       	in	r0, 0x12	; 18
     59a:	0a 00       	.word	0x000a	; ????
     59c:	00 00       	nop
     59e:	2c 32       	cpi	r18, 0x2C	; 44
     5a0:	11 00       	.word	0x0011	; ????
     5a2:	00 0d       	add	r16, r0
     5a4:	3d 02       	muls	r19, r29
     5a6:	01 8f       	std	Z+25, r16	; 0x19
     5a8:	01 00       	.word	0x0001	; ????
     5aa:	00 96       	adiw	r24, 0x00	; 0
     5ac:	01 00       	.word	0x0001	; ????
     5ae:	00 03       	mulsu	r16, r16
     5b0:	52 12       	cpse	r5, r18
     5b2:	00 00       	nop
     5b4:	01 00       	.word	0x0001	; ????
     5b6:	46 8a       	std	Z+22, r4	; 0x16
     5b8:	10 00       	.word	0x0010	; ????
     5ba:	00 01       	movw	r0, r0
     5bc:	01 a5       	ldd	r16, Z+41	; 0x29
     5be:	01 00       	.word	0x0001	; ????
     5c0:	00 ac       	ldd	r0, Z+56	; 0x38
     5c2:	01 00       	.word	0x0001	; ????
     5c4:	00 03       	mulsu	r16, r16
     5c6:	52 12       	cpse	r5, r18
     5c8:	00 00       	nop
     5ca:	01 00       	.word	0x0001	; ????
     5cc:	1b 55       	subi	r17, 0x5B	; 91
     5ce:	0f 00       	.word	0x000f	; ????
     5d0:	00 02       	muls	r16, r16
     5d2:	dd 01       	movw	r26, r26
     5d4:	bc 01       	movw	r22, r24
     5d6:	00 00       	nop
     5d8:	c8 01       	movw	r24, r16
     5da:	00 00       	nop
     5dc:	03 52       	subi	r16, 0x23	; 35
     5de:	12 00       	.word	0x0012	; ????
     5e0:	00 01       	movw	r0, r0
     5e2:	02 b2       	in	r0, 0x12	; 18
     5e4:	0a 00       	.word	0x000a	; ????
     5e6:	00 00       	nop
     5e8:	4e 32       	cpi	r20, 0x2E	; 46
     5ea:	11 00       	.word	0x0011	; ????
     5ec:	00 02       	muls	r16, r16
     5ee:	36 01       	movw	r6, r12
     5f0:	d4 01       	movw	r26, r8
     5f2:	00 00       	nop
     5f4:	03 52       	subi	r16, 0x23	; 35
     5f6:	12 00       	.word	0x0012	; ????
     5f8:	00 01       	movw	r0, r0
     5fa:	02 3b       	cpi	r16, 0xB2	; 178
     5fc:	00 00       	nop
     5fe:	00 00       	nop
     600:	00 24       	eor	r0, r0
     602:	57 12       	cpse	r5, r23
     604:	00 00       	nop
     606:	01 10       	cpse	r0, r1
     608:	33 90       	.word	0x9033	; ????
     60a:	02 00       	.word	0x0002	; ????
     60c:	00 1b       	sub	r16, r16
     60e:	56 03       	mulsu	r21, r22
     610:	00 00       	nop
     612:	0e 2d       	mov	r16, r14
     614:	01 fd       	sbrc	r16, 1
     616:	01 00       	.word	0x0001	; ????
     618:	00 09       	sbc	r16, r0
     61a:	02 00       	.word	0x0002	; ????
     61c:	00 03       	mulsu	r16, r16
     61e:	3d 14       	cp	r3, r13
     620:	00 00       	nop
     622:	01 02       	muls	r16, r17
     624:	3b 00       	.word	0x003b	; ????
     626:	00 00       	nop
     628:	00 1b       	sub	r16, r16
     62a:	78 11       	cpse	r23, r8
     62c:	00 00       	nop
     62e:	0e 3d       	cpi	r16, 0xDE	; 222
     630:	01 19       	sub	r16, r1
     632:	02 00       	.word	0x0002	; ????
     634:	00 25       	eor	r16, r0
     636:	02 00       	.word	0x0002	; ????
     638:	00 03       	mulsu	r16, r16
     63a:	3d 14       	cp	r3, r13
     63c:	00 00       	nop
     63e:	01 02       	muls	r16, r17
     640:	6c 14       	cp	r6, r12
     642:	00 00       	nop
     644:	00 1b       	sub	r16, r16
     646:	8a 0b       	sbc	r24, r26
     648:	00 00       	nop
     64a:	0e 41       	sbci	r16, 0x1E	; 30
     64c:	01 35       	cpi	r16, 0x51	; 81
     64e:	02 00       	.word	0x0002	; ????
     650:	00 41       	sbci	r16, 0x10	; 16
     652:	02 00       	.word	0x0002	; ????
     654:	00 03       	mulsu	r16, r16
     656:	3d 14       	cp	r3, r13
     658:	00 00       	nop
     65a:	01 02       	muls	r16, r17
     65c:	a1 14       	cp	r10, r1
     65e:	00 00       	nop
     660:	00 47       	sbci	r16, 0x70	; 112
     662:	bc 0d       	add	r27, r12
     664:	00 00       	nop
     666:	0e 35       	cpi	r16, 0x5E	; 94
     668:	3b 00       	.word	0x003b	; ????
     66a:	00 00       	nop
     66c:	01 55       	subi	r16, 0x51	; 81
     66e:	02 00       	.word	0x0002	; ????
     670:	00 5c       	subi	r16, 0xC0	; 192
     672:	02 00       	.word	0x0002	; ????
     674:	00 03       	mulsu	r16, r16
     676:	3d 14       	cp	r3, r13
     678:	00 00       	nop
     67a:	01 00       	.word	0x0001	; ????
     67c:	47 89       	ldd	r20, Z+23	; 0x17
     67e:	0e 00       	.word	0x000e	; ????
     680:	00 0e       	add	r0, r16
     682:	39 3b       	cpi	r19, 0xB9	; 185
     684:	00 00       	nop
     686:	00 01       	movw	r0, r0
     688:	70 02       	muls	r23, r16
     68a:	00 00       	nop
     68c:	77 02       	muls	r23, r23
     68e:	00 00       	nop
     690:	03 3d       	cpi	r16, 0xD3	; 211
     692:	14 00       	.word	0x0014	; ????
     694:	00 01       	movw	r0, r0
     696:	00 4e       	sbci	r16, 0xE0	; 224
     698:	ed 09       	sbc	r30, r13
     69a:	00 00       	nop
     69c:	0e 31       	cpi	r16, 0x1E	; 30
     69e:	01 83       	std	Z+1, r16	; 0x01
     6a0:	02 00       	.word	0x0002	; ????
     6a2:	00 03       	mulsu	r16, r16
     6a4:	3d 14       	cp	r3, r13
     6a6:	00 00       	nop
     6a8:	01 02       	muls	r16, r17
     6aa:	3b 00       	.word	0x003b	; ????
     6ac:	00 00       	nop
     6ae:	00 00       	nop
     6b0:	24 4a       	sbci	r18, 0xA4	; 164
     6b2:	09 00       	.word	0x0009	; ????
     6b4:	00 03       	mulsu	r16, r16
     6b6:	04 78       	andi	r16, 0x84	; 132
     6b8:	04 09       	sbc	r16, r4
     6ba:	00 00       	nop
     6bc:	38 03       	fmul	r19, r16
     6be:	04 79       	andi	r16, 0x94	; 148
     6c0:	2d 03       	fmul	r18, r21
     6c2:	00 00       	nop
     6c4:	6b 03       	fmul	r22, r19
     6c6:	04 7a       	andi	r16, 0xA4	; 164
     6c8:	1c 03       	fmul	r17, r20
     6ca:	00 00       	nop
     6cc:	38 01       	movw	r6, r16
     6ce:	04 7b       	andi	r16, 0xB4	; 180
     6d0:	c9 02       	muls	r28, r25
     6d2:	00 00       	nop
     6d4:	34 72       	andi	r19, 0x24	; 36
     6d6:	00 04       	cpc	r0, r0
     6d8:	7c 3b       	cpi	r23, 0xBC	; 188
     6da:	00 00       	nop
     6dc:	00 34       	cpi	r16, 0x40	; 64
     6de:	72 65       	ori	r23, 0x52	; 82
     6e0:	64 00       	.word	0x0064	; ????
     6e2:	04 7d       	andi	r16, 0xD4	; 212
     6e4:	3b 00       	.word	0x003b	; ????
     6e6:	00 00       	nop
     6e8:	00 39       	cpi	r16, 0x90	; 144
     6ea:	ac 02       	muls	r26, r28
     6ec:	00 00       	nop
     6ee:	02 23       	and	r16, r18
     6f0:	00 38       	cpi	r16, 0x80	; 128
     6f2:	01 04       	cpc	r0, r1
     6f4:	7f ee       	ldi	r23, 0xEF	; 239
     6f6:	02 00       	.word	0x0002	; ????
     6f8:	00 34       	cpi	r16, 0x40	; 64
     6fa:	67 00       	.word	0x0067	; ????
     6fc:	04 80       	ldd	r0, Z+4	; 0x04
     6fe:	3b 00       	.word	0x003b	; ????
     700:	00 00       	nop
     702:	4f 5e       	subi	r20, 0xEF	; 239
     704:	0c 00       	.word	0x000c	; ????
     706:	00 04       	cpc	r0, r0
     708:	81 3b       	cpi	r24, 0xB1	; 177
     70a:	00 00       	nop
     70c:	00 00       	nop
     70e:	39 d1       	rcall	.+626    	; 0x982 <__vector_11+0x5a>
     710:	02 00       	.word	0x0002	; ????
     712:	00 02       	muls	r16, r16
     714:	23 01       	movw	r4, r6
     716:	38 01       	movw	r6, r16
     718:	04 83       	std	Z+4, r16	; 0x04
     71a:	13 03       	mulsu	r17, r19
     71c:	00 00       	nop
     71e:	34 62       	ori	r19, 0x24	; 36
     720:	00 04       	cpc	r0, r0
     722:	84 3b       	cpi	r24, 0xB4	; 180
     724:	00 00       	nop
     726:	00 4f       	sbci	r16, 0xF0	; 240
     728:	1a 0e       	add	r1, r26
     72a:	00 00       	nop
     72c:	04 85       	ldd	r16, Z+12	; 0x0c
     72e:	3b 00       	.word	0x003b	; ????
     730:	00 00       	nop
     732:	00 39       	cpi	r16, 0x90	; 144
     734:	f6 02       	muls	r31, r22
     736:	00 00       	nop
     738:	02 23       	and	r16, r18
     73a:	02 00       	.word	0x0002	; ????
     73c:	6c a4       	ldd	r6, Y+44	; 0x2c
     73e:	02 00       	.word	0x0002	; ????
     740:	00 34       	cpi	r16, 0x40	; 64
     742:	72 61       	ori	r23, 0x12	; 18
     744:	77 00       	.word	0x0077	; ????
     746:	04 8d       	ldd	r16, Z+28	; 0x1c
     748:	09 09       	sbc	r16, r9
     74a:	00 00       	nop
     74c:	00 39       	cpi	r16, 0x90	; 144
     74e:	9c 02       	muls	r25, r28
     750:	00 00       	nop
     752:	02 23       	and	r16, r18
     754:	00 50       	subi	r16, 0x00	; 0
     756:	f7 0d       	add	r31, r7
     758:	00 00       	nop
     75a:	04 36       	cpi	r16, 0x64	; 100
     75c:	03 41       	sbci	r16, 0x13	; 19
     75e:	03 00       	.word	0x0003	; ????
     760:	00 6d       	ori	r16, 0xD0	; 208
     762:	f7 0d       	add	r31, r7
     764:	00 00       	nop
     766:	07 04       	cpc	r0, r7
     768:	34 00       	.word	0x0034	; ????
     76a:	00 00       	nop
     76c:	04 97       	sbiw	r24, 0x04	; 4
     76e:	02 3f       	cpi	r16, 0xF2	; 242
     770:	10 00       	.word	0x0010	; ????
     772:	00 79       	andi	r16, 0x90	; 144
     774:	08 00       	.word	0x0008	; ????
     776:	00 01       	movw	r0, r0
     778:	80 10       	cpse	r8, r0
     77a:	00 00       	nop
     77c:	ff f8       	.word	0xf8ff	; ????
     77e:	f0 00       	.word	0x00f0	; ????
     780:	01 20       	and	r0, r1
     782:	05 00       	.word	0x0005	; ????
     784:	00 cc       	rjmp	.-2048   	; 0xffffff86 <__eeprom_end+0xff7eff86>
     786:	66 99       	sbic	0x0c, 6	; 12
     788:	00 01       	movw	r0, r0
     78a:	d5 08       	sbc	r13, r5
     78c:	00 00       	nop
     78e:	d7 eb       	ldi	r29, 0xB7	; 183
     790:	fa 00       	.word	0x00fa	; ????
     792:	1c 3f       	cpi	r17, 0xFC	; 252
     794:	0d 00       	.word	0x000d	; ????
     796:	00 ff       	sbrs	r16, 0
     798:	ff 01       	movw	r30, r30
     79a:	8f 11       	cpse	r24, r15
     79c:	00 00       	nop
     79e:	d4 ff       	sbrs	r29, 4
     7a0:	7f 00       	.word	0x007f	; ????
     7a2:	01 86       	std	Z+9, r0	; 0x09
     7a4:	0d 00       	.word	0x000d	; ????
     7a6:	00 ff       	sbrs	r16, 0
     7a8:	ff f0       	brie	.+62     	; 0x7e8 <CPixelLEDController<(EOrder)10, 1, 4294967295ul>::show(CRGB const*, int, CRGB)+0x4c>
     7aa:	00 01       	movw	r0, r0
     7ac:	2b 0e       	add	r2, r27
     7ae:	00 00       	nop
     7b0:	dc f5       	brge	.+118    	; 0x828 <CPixelLEDController<(EOrder)10, 1, 4294967295ul>::show(CRGB const*, int, CRGB)+0x8c>
     7b2:	f5 00       	.word	0x00f5	; ????
     7b4:	01 12       	cpse	r0, r17
     7b6:	11 00       	.word	0x0011	; ????
     7b8:	00 c4       	rjmp	.+2048   	; 0xfba <__data_load_end+0x50>
     7ba:	e4 ff       	sbrs	r30, 4
     7bc:	00 13       	cpse	r16, r16
     7be:	a6 08       	sbc	r10, r6
     7c0:	00 00       	nop
     7c2:	00 01       	movw	r0, r0
     7c4:	29 04       	cpc	r2, r9
     7c6:	00 00       	nop
     7c8:	cd eb       	ldi	r28, 0xBD	; 189
     7ca:	ff 00       	.word	0x00ff	; ????
     7cc:	13 85       	ldd	r17, Z+11	; 0x0b
     7ce:	10 00       	.word	0x0010	; ????
     7d0:	00 ff       	sbrs	r16, 0
     7d2:	01 c6       	rjmp	.+3074   	; 0x13d6 <__data_load_end+0x46c>
     7d4:	0e 00       	.word	0x000e	; ????
     7d6:	00 e2       	ldi	r16, 0x20	; 32
     7d8:	2b 8a       	std	Y+19, r2	; 0x13
     7da:	00 01       	movw	r0, r0
     7dc:	00 0b       	sbc	r16, r16
     7de:	00 00       	nop
     7e0:	2a 2a       	or	r2, r26
     7e2:	a5 00       	.word	0x00a5	; ????
     7e4:	01 98       	cbi	0x00, 1	; 0
     7e6:	0e 00       	.word	0x000e	; ????
     7e8:	00 87       	std	Z+8, r16	; 0x08
     7ea:	b8 de       	rcall	.-656    	; 0x55c <L_1401+0x70>
     7ec:	00 01       	movw	r0, r0
     7ee:	19 0d       	add	r17, r9
     7f0:	00 00       	nop
     7f2:	a0 9e       	mul	r10, r16
     7f4:	5f 00       	.word	0x005f	; ????
     7f6:	01 28       	or	r0, r1
     7f8:	0b 00       	.word	0x000b	; ????
     7fa:	00 00       	nop
     7fc:	ff 7f       	andi	r31, 0xFF	; 255
     7fe:	00 01       	movw	r0, r0
     800:	fc 0c       	add	r15, r12
     802:	00 00       	nop
     804:	1e 69       	ori	r17, 0x9E	; 158
     806:	d2 00       	.word	0x00d2	; ????
     808:	01 5f       	subi	r16, 0xF1	; 241
     80a:	08 00       	.word	0x0008	; ????
     80c:	00 50       	subi	r16, 0x00	; 0
     80e:	7f ff       	.word	0xff7f	; ????
     810:	00 01       	movw	r0, r0
     812:	ad 0f       	add	r26, r29
     814:	00 00       	nop
     816:	ed 95 64 00 	jmp	0x7a00c8	; 0x7a00c8 <__EEPROM_REGION_LENGTH__+0x7900c8>
     81a:	01 be       	out	0x31, r0	; 49
     81c:	0b 00       	.word	0x000b	; ????
     81e:	00 dc       	rcall	.-2048   	; 0x20 <__FUSE_REGION_LENGTH__+0x1d>
     820:	f8 ff       	.word	0xfff8	; ????
     822:	00 01       	movw	r0, r0
     824:	80 03       	fmuls	r16, r16
     826:	00 00       	nop
     828:	3c 14       	cp	r3, r12
     82a:	dc 00       	.word	0x00dc	; ????
     82c:	1c 8c       	ldd	r1, Y+28	; 0x1c
     82e:	03 00       	.word	0x0003	; ????
     830:	00 ff       	sbrs	r16, 0
     832:	ff 13       	cpse	r31, r31
     834:	11 0e       	add	r1, r17
     836:	00 00       	nop
     838:	8b 1c       	adc	r8, r11
     83a:	88 03       	fmulsu	r16, r16
     83c:	00 00       	nop
     83e:	8b 8b       	std	Y+19, r24	; 0x13
     840:	01 86       	std	Z+9, r0	; 0x09
     842:	12 00       	.word	0x0012	; ????
     844:	00 0b       	sbc	r16, r16
     846:	86 b8       	out	0x06, r8	; 6
     848:	00 01       	movw	r0, r0
     84a:	35 02       	muls	r19, r21
     84c:	00 00       	nop
     84e:	a9 a9       	ldd	r26, Y+49	; 0x31
     850:	a9 00       	.word	0x00a9	; ????
     852:	01 37       	cpi	r16, 0x71	; 113
     854:	12 00       	.word	0x0012	; ????
     856:	00 a9       	ldd	r16, Z+48	; 0x30
     858:	a9 a9       	ldd	r26, Y+49	; 0x31
     85a:	00 1c       	adc	r0, r0
     85c:	6e 11       	cpse	r22, r14
     85e:	00 00       	nop
     860:	00 64       	ori	r16, 0x40	; 64
     862:	01 7f       	andi	r16, 0xF1	; 241
     864:	0a 00       	.word	0x000a	; ????
     866:	00 6b       	ori	r16, 0xB0	; 176
     868:	b7 bd       	out	0x27, r27	; 39
     86a:	00 01       	movw	r0, r0
     86c:	1a 14       	cp	r1, r10
     86e:	00 00       	nop
     870:	8b 00       	.word	0x008b	; ????
     872:	8b 00       	.word	0x008b	; ????
     874:	01 71       	andi	r16, 0x11	; 17
     876:	03 00       	.word	0x0003	; ????
     878:	00 2f       	mov	r16, r16
     87a:	6b 55       	subi	r22, 0x5B	; 91
     87c:	00 01       	movw	r0, r0
     87e:	a9 10       	cpse	r10, r9
     880:	00 00       	nop
     882:	00 8c       	ldd	r0, Z+24	; 0x18
     884:	ff 00       	.word	0x00ff	; ????
     886:	01 d9       	rcall	.-3582   	; 0xfffffa8a <__eeprom_end+0xff7efa8a>
     888:	0e 00       	.word	0x000e	; ????
     88a:	00 cc       	rjmp	.-2048   	; 0x8c <micros+0x1c>
     88c:	32 99       	sbic	0x06, 2	; 6
     88e:	00 01       	movw	r0, r0
     890:	8f 07       	cpc	r24, r31
     892:	00 00       	nop
     894:	00 00       	nop
     896:	8b 00       	.word	0x008b	; ????
     898:	01 79       	andi	r16, 0x91	; 145
     89a:	0c 00       	.word	0x000c	; ????
     89c:	00 7a       	andi	r16, 0xA0	; 160
     89e:	96 e9       	ldi	r25, 0x96	; 150
     8a0:	00 01       	movw	r0, r0
     8a2:	97 01       	movw	r18, r14
     8a4:	00 00       	nop
     8a6:	8f bc       	out	0x2f, r8	; 47
     8a8:	8f 00       	.word	0x008f	; ????
     8aa:	01 0b       	sbc	r16, r17
     8ac:	0a 00       	.word	0x000a	; ????
     8ae:	00 8b       	std	Z+16, r16	; 0x10
     8b0:	3d 48       	sbci	r19, 0x8D	; 141
     8b2:	00 01       	movw	r0, r0
     8b4:	59 09       	sbc	r21, r9
     8b6:	00 00       	nop
     8b8:	4f 4f       	sbci	r20, 0xFF	; 255
     8ba:	2f 00       	.word	0x002f	; ????
     8bc:	01 4e       	sbci	r16, 0xE1	; 225
     8be:	0e 00       	.word	0x000e	; ????
     8c0:	00 4f       	sbci	r16, 0xF0	; 240
     8c2:	4f 2f       	mov	r20, r31
     8c4:	00 1c       	adc	r0, r0
     8c6:	1b 0f       	add	r17, r27
     8c8:	00 00       	nop
     8ca:	d1 ce       	rjmp	.-606    	; 0x66e <L_3028+0x48>
     8cc:	01 67       	ori	r16, 0x71	; 113
     8ce:	07 00       	.word	0x0007	; ????
     8d0:	00 d3       	rcall	.+1536   	; 0xed2 <__udivmodsi4_loop+0x6>
     8d2:	00 94       	com	r0
     8d4:	00 01       	movw	r0, r0
     8d6:	97 0d       	add	r25, r7
     8d8:	00 00       	nop
     8da:	93 14       	cp	r9, r3
     8dc:	ff 00       	.word	0x00ff	; ????
     8de:	1c 29       	or	r17, r12
     8e0:	05 00       	.word	0x0005	; ????
     8e2:	00 ff       	sbrs	r16, 0
     8e4:	bf 01       	movw	r22, r30
     8e6:	23 0d       	add	r18, r3
     8e8:	00 00       	nop
     8ea:	69 69       	ori	r22, 0x99	; 153
     8ec:	69 00       	.word	0x0069	; ????
     8ee:	01 9a       	sbi	0x00, 1	; 0
     8f0:	11 00       	.word	0x0011	; ????
     8f2:	00 69       	ori	r16, 0x90	; 144
     8f4:	69 69       	ori	r22, 0x99	; 153
     8f6:	00 01       	movw	r0, r0
     8f8:	66 03       	mulsu	r22, r22
     8fa:	00 00       	nop
     8fc:	ff 90       	pop	r15
     8fe:	1e 00       	.word	0x001e	; ????
     900:	01 61       	ori	r16, 0x11	; 17
     902:	12 00       	.word	0x0012	; ????
     904:	00 22       	and	r0, r16
     906:	22 b2       	in	r2, 0x12	; 18
     908:	00 01       	movw	r0, r0
     90a:	b7 02       	muls	r27, r23
     90c:	00 00       	nop
     90e:	f0 fa       	bst	r15, 0
     910:	ff 00       	.word	0x00ff	; ????
     912:	01 d6       	rcall	.+3074   	; 0x1516 <__data_load_end+0x5ac>
     914:	0b 00       	.word	0x000b	; ????
     916:	00 22       	and	r0, r16
     918:	8b 22       	and	r8, r27
     91a:	00 01       	movw	r0, r0
     91c:	e2 08       	sbc	r14, r2
     91e:	00 00       	nop
     920:	ff 00       	.word	0x00ff	; ????
     922:	ff 00       	.word	0x00ff	; ????
     924:	01 56       	subi	r16, 0x61	; 97
     926:	10 00       	.word	0x0010	; ????
     928:	00 dc       	rcall	.-2048   	; 0x12a <CFastLED::show(unsigned char) [clone .constprop.18]+0x6e>
     92a:	dc dc       	rcall	.-1608   	; 0x2e4 <__stack+0x85>
     92c:	00 01       	movw	r0, r0
     92e:	a0 0c       	add	r10, r0
     930:	00 00       	nop
     932:	ff f8       	.word	0xf8ff	; ????
     934:	f8 00       	.word	0x00f8	; ????
     936:	01 5c       	subi	r16, 0xC1	; 193
     938:	0e 00       	.word	0x000e	; ????
     93a:	00 00       	nop
     93c:	d7 ff       	sbrs	r29, 7
     93e:	00 01       	movw	r0, r0
     940:	bc 09       	sbc	r27, r12
     942:	00 00       	nop
     944:	20 a5       	ldd	r18, Z+40	; 0x28
     946:	da 00       	.word	0x00da	; ????
     948:	01 62       	ori	r16, 0x21	; 33
     94a:	09 00       	.word	0x0009	; ????
     94c:	00 80       	ld	r0, Z
     94e:	80 80       	ld	r8, Z
     950:	00 01       	movw	r0, r0
     952:	57 0e       	add	r5, r23
     954:	00 00       	nop
     956:	80 80       	ld	r8, Z
     958:	80 00       	.word	0x0080	; ????
     95a:	1c 9e       	mul	r1, r28
     95c:	01 00       	.word	0x0001	; ????
     95e:	00 00       	nop
     960:	80 01       	movw	r16, r0
     962:	82 0f       	add	r24, r18
     964:	00 00       	nop
     966:	2f ff       	.word	0xff2f	; ????
     968:	ad 00       	.word	0x00ad	; ????
     96a:	01 ad       	ldd	r16, Z+57	; 0x39
     96c:	07 00       	.word	0x0007	; ????
     96e:	00 f0       	brcs	.+0      	; 0x970 <__vector_11+0x48>
     970:	ff f0       	brie	.+62     	; 0x9b0 <__vector_11+0x88>
     972:	00 01       	movw	r0, r0
     974:	1b 0b       	sbc	r17, r27
     976:	00 00       	nop
     978:	b4 69       	ori	r27, 0x94	; 148
     97a:	ff 00       	.word	0x00ff	; ????
     97c:	01 38       	cpi	r16, 0x81	; 129
     97e:	03 00       	.word	0x0003	; ????
     980:	00 5c       	subi	r16, 0xC0	; 192
     982:	5c cd       	rjmp	.-1352   	; 0x43c <__LOCK_REGION_LENGTH__+0x3c>
     984:	00 01       	movw	r0, r0
     986:	f3 0a       	sbc	r15, r19
     988:	00 00       	nop
     98a:	82 00       	.word	0x0082	; ????
     98c:	4b 00       	.word	0x004b	; ????
     98e:	01 44       	sbci	r16, 0x41	; 65
     990:	05 00       	.word	0x0005	; ????
     992:	00 f0       	brcs	.+0      	; 0x994 <__vector_11+0x6c>
     994:	ff ff       	.word	0xffff	; ????
     996:	00 01       	movw	r0, r0
     998:	83 0a       	sbc	r8, r19
     99a:	00 00       	nop
     99c:	8c e6       	ldi	r24, 0x6C	; 108
     99e:	f0 00       	.word	0x00f0	; ????
     9a0:	01 50       	subi	r16, 0x01	; 1
     9a2:	05 00       	.word	0x0005	; ????
     9a4:	00 fa       	bst	r0, 0
     9a6:	e6 e6       	ldi	r30, 0x66	; 102
     9a8:	00 01       	movw	r0, r0
     9aa:	a1 03       	fmuls	r18, r17
     9ac:	00 00       	nop
     9ae:	f5 f0       	brhs	.+60     	; 0x9ec <__vector_16+0x30>
     9b0:	ff 00       	.word	0x00ff	; ????
     9b2:	01 f5       	brne	.+64     	; 0x9f4 <__vector_16+0x38>
     9b4:	0f 00       	.word	0x000f	; ????
     9b6:	00 00       	nop
     9b8:	fc 7c       	andi	r31, 0xCC	; 204
     9ba:	00 01       	movw	r0, r0
     9bc:	15 08       	sbc	r1, r5
     9be:	00 00       	nop
     9c0:	cd fa       	.word	0xfacd	; ????
     9c2:	ff 00       	.word	0x00ff	; ????
     9c4:	01 ac       	ldd	r0, Z+57	; 0x39
     9c6:	08 00       	.word	0x0008	; ????
     9c8:	00 e6       	ldi	r16, 0x60	; 96
     9ca:	d8 ad       	ldd	r29, Y+56	; 0x38
     9cc:	00 01       	movw	r0, r0
     9ce:	5a 08       	sbc	r5, r10
     9d0:	00 00       	nop
     9d2:	80 80       	ld	r8, Z
     9d4:	f0 00       	.word	0x00f0	; ????
     9d6:	01 51       	subi	r16, 0x11	; 17
     9d8:	02 00       	.word	0x0002	; ????
     9da:	00 ff       	sbrs	r16, 0
     9dc:	ff e0       	ldi	r31, 0x0F	; 15
     9de:	00 01       	movw	r0, r0
     9e0:	f2 06       	cpc	r15, r18
     9e2:	00 00       	nop
     9e4:	d2 fa       	bst	r13, 2
     9e6:	fa 00       	.word	0x00fa	; ????
     9e8:	01 11       	cpse	r16, r1
     9ea:	10 00       	.word	0x0010	; ????
     9ec:	00 90 ee 90 	lds	r0, 0x90EE	; 0x8090ee <__bss_end+0x8ecf>
     9f0:	00 01       	movw	r0, r0
     9f2:	60 10       	cpse	r6, r0
     9f4:	00 00       	nop
     9f6:	d3 d3       	rcall	.+1958   	; 0x119e <__data_load_end+0x234>
     9f8:	d3 00       	.word	0x00d3	; ????
     9fa:	01 5b       	subi	r16, 0xB1	; 177
     9fc:	02 00       	.word	0x0002	; ????
     9fe:	00 c1       	rjmp	.+512    	; 0xc00 <main+0x9e>
     a00:	b6 ff       	sbrs	r27, 6
     a02:	00 01       	movw	r0, r0
     a04:	da 13       	cpse	r29, r26
     a06:	00 00       	nop
     a08:	7a a0       	ldd	r7, Y+34	; 0x22
     a0a:	ff 00       	.word	0x00ff	; ????
     a0c:	01 6b       	ori	r16, 0xB1	; 177
     a0e:	12 00       	.word	0x0012	; ????
     a10:	00 aa       	std	Z+48, r0	; 0x30
     a12:	b2 20       	and	r11, r2
     a14:	00 01       	movw	r0, r0
     a16:	18 02       	muls	r17, r24
     a18:	00 00       	nop
     a1a:	fa ce       	rjmp	.-524    	; 0x810 <CPixelLEDController<(EOrder)10, 1, 4294967295ul>::show(CRGB const*, int, CRGB)+0x74>
     a1c:	87 00       	.word	0x0087	; ????
     a1e:	01 c0       	rjmp	.+2      	; 0xa22 <__vector_16+0x66>
     a20:	06 00       	.word	0x0006	; ????
     a22:	00 99       	sbic	0x00, 0	; 0
     a24:	88 77       	andi	r24, 0x78	; 120
     a26:	00 01       	movw	r0, r0
     a28:	3f 0e       	add	r3, r31
     a2a:	00 00       	nop
     a2c:	99 88       	ldd	r9, Y+17	; 0x11
     a2e:	77 00       	.word	0x0077	; ????
     a30:	01 fb       	bst	r16, 1
     a32:	10 00       	.word	0x0010	; ????
     a34:	00 de       	rcall	.-1024   	; 0x636 <L_3028+0x10>
     a36:	c4 b0       	in	r12, 0x04	; 4
     a38:	00 01       	movw	r0, r0
     a3a:	bc 0f       	add	r27, r28
     a3c:	00 00       	nop
     a3e:	e0 ff       	sbrs	r30, 0
     a40:	ff 00       	.word	0x00ff	; ????
     a42:	1c 07       	cpc	r17, r28
     a44:	07 00       	.word	0x0007	; ????
     a46:	00 00       	nop
     a48:	ff 01       	movw	r30, r30
     a4a:	b0 0e       	add	r11, r16
     a4c:	00 00       	nop
     a4e:	32 cd       	rjmp	.-1436   	; 0x4b4 <L_925+0x34>
     a50:	32 00       	.word	0x0032	; ????
     a52:	01 98       	cbi	0x00, 1	; 0
     a54:	08 00       	.word	0x0008	; ????
     a56:	00 e6       	ldi	r16, 0x60	; 96
     a58:	f0 fa       	bst	r15, 0
     a5a:	00 01       	movw	r0, r0
     a5c:	1e 14       	cp	r1, r14
     a5e:	00 00       	nop
     a60:	ff 00       	.word	0x00ff	; ????
     a62:	ff 00       	.word	0x00ff	; ????
     a64:	01 23       	and	r16, r17
     a66:	0a 00       	.word	0x000a	; ????
     a68:	00 00       	nop
     a6a:	00 80       	ld	r0, Z
     a6c:	00 01       	movw	r0, r0
     a6e:	89 11       	cpse	r24, r9
     a70:	00 00       	nop
     a72:	aa cd       	rjmp	.-1196   	; 0x5c8 <L_2206+0x40>
     a74:	66 00       	.word	0x0066	; ????
     a76:	13 d6       	rcall	.+3110   	; 0x169e <__data_load_end+0x734>
     a78:	10 00       	.word	0x0010	; ????
     a7a:	00 cd       	rjmp	.-1536   	; 0x47c <__LOCK_REGION_LENGTH__+0x7c>
     a7c:	01 8a       	std	Z+17, r0	; 0x11
     a7e:	05 00       	.word	0x0005	; ????
     a80:	00 d3       	rcall	.+1536   	; 0x1082 <__data_load_end+0x118>
     a82:	55 ba       	out	0x15, r5	; 21
     a84:	00 01       	movw	r0, r0
     a86:	2a 10       	cpse	r2, r10
     a88:	00 00       	nop
     a8a:	db 70       	andi	r29, 0x0B	; 11
     a8c:	93 00       	.word	0x0093	; ????
     a8e:	01 97       	sbiw	r24, 0x01	; 1
     a90:	05 00       	.word	0x0005	; ????
     a92:	00 71       	andi	r16, 0x10	; 16
     a94:	b3 3c       	cpi	r27, 0xC3	; 195
     a96:	00 01       	movw	r0, r0
     a98:	b6 05       	cpc	r27, r6
     a9a:	00 00       	nop
     a9c:	ee 68       	ori	r30, 0x8E	; 142
     a9e:	7b 00       	.word	0x007b	; ????
     aa0:	1c 8e       	std	Y+28, r1	; 0x1c
     aa2:	0f 00       	.word	0x000f	; ????
     aa4:	00 9a       	sbi	0x00, 0	; 0
     aa6:	fa 01       	movw	r30, r20
     aa8:	89 0a       	sbc	r8, r25
     aaa:	00 00       	nop
     aac:	cc d1       	rcall	.+920    	; 0xe46 <__mulhi3>
     aae:	48 00       	.word	0x0048	; ????
     ab0:	01 08       	sbc	r0, r1
     ab2:	09 00       	.word	0x0009	; ????
     ab4:	00 85       	ldd	r16, Z+8	; 0x08
     ab6:	15 c7       	rjmp	.+3626   	; 0x18e2 <__data_load_end+0x978>
     ab8:	00 01       	movw	r0, r0
     aba:	8c 02       	muls	r24, r28
     abc:	00 00       	nop
     abe:	70 19       	sub	r23, r0
     ac0:	19 00       	.word	0x0019	; ????
     ac2:	01 38       	cpi	r16, 0x81	; 129
     ac4:	0f 00       	.word	0x000f	; ????
     ac6:	00 fa       	bst	r0, 0
     ac8:	ff f5       	brid	.+126    	; 0xb48 <__vector_15+0x20>
     aca:	00 01       	movw	r0, r0
     acc:	0b 08       	sbc	r0, r11
     ace:	00 00       	nop
     ad0:	e1 e4       	ldi	r30, 0x41	; 65
     ad2:	ff 00       	.word	0x00ff	; ????
     ad4:	01 b1       	in	r16, 0x01	; 1
     ad6:	06 00       	.word	0x0006	; ????
     ad8:	00 b5       	in	r16, 0x20	; 32
     ada:	e4 ff       	sbrs	r30, 4
     adc:	00 01       	movw	r0, r0
     ade:	ba 0e       	add	r11, r26
     ae0:	00 00       	nop
     ae2:	ad de       	rcall	.-678    	; 0x83e <CPixelLEDController<(EOrder)10, 1, 4294967295ul>::show(CRGB const*, int, CRGB)+0xa2>
     ae4:	ff 00       	.word	0x00ff	; ????
     ae6:	13 5d       	subi	r17, 0xD3	; 211
     ae8:	11 00       	.word	0x0011	; ????
     aea:	00 80       	ld	r0, Z
     aec:	01 7e       	andi	r16, 0xE1	; 225
     aee:	12 00       	.word	0x0012	; ????
     af0:	00 e6       	ldi	r16, 0x60	; 96
     af2:	f5 fd       	sbrc	r31, 5
     af4:	00 01       	movw	r0, r0
     af6:	4a 05       	cpc	r20, r10
     af8:	00 00       	nop
     afa:	00 80       	ld	r0, Z
     afc:	80 00       	.word	0x0080	; ????
     afe:	01 0a       	sbc	r0, r17
     b00:	0c 00       	.word	0x000c	; ????
     b02:	00 23       	and	r16, r16
     b04:	8e 6b       	ori	r24, 0xBE	; 190
     b06:	00 01       	movw	r0, r0
     b08:	ad 10       	cpse	r10, r13
     b0a:	00 00       	nop
     b0c:	00 a5       	ldd	r16, Z+40	; 0x28
     b0e:	ff 00       	.word	0x00ff	; ????
     b10:	01 ce       	rjmp	.-1022   	; 0x714 <L_3674+0x6a>
     b12:	02 00       	.word	0x0002	; ????
     b14:	00 00       	nop
     b16:	45 ff       	sbrs	r20, 5
     b18:	00 01       	movw	r0, r0
     b1a:	dd 0e       	add	r13, r29
     b1c:	00 00       	nop
     b1e:	d6 70       	andi	r29, 0x06	; 6
     b20:	da 00       	.word	0x00da	; ????
     b22:	01 b8       	out	0x01, r0	; 1
     b24:	09 00       	.word	0x0009	; ????
     b26:	00 aa       	std	Z+48, r0	; 0x30
     b28:	e8 ee       	ldi	r30, 0xE8	; 232
     b2a:	00 01       	movw	r0, r0
     b2c:	48 0c       	add	r4, r8
     b2e:	00 00       	nop
     b30:	98 fb       	.word	0xfb98	; ????
     b32:	98 00       	.word	0x0098	; ????
     b34:	01 27       	eor	r16, r17
     b36:	07 00       	.word	0x0007	; ????
     b38:	00 ee       	ldi	r16, 0xE0	; 224
     b3a:	ee af       	std	Y+62, r30	; 0x3e
     b3c:	00 01       	movw	r0, r0
     b3e:	cd 05       	cpc	r28, r13
     b40:	00 00       	nop
     b42:	93 70       	andi	r25, 0x03	; 3
     b44:	db 00       	.word	0x00db	; ????
     b46:	01 8c       	ldd	r0, Z+25	; 0x19
     b48:	0d 00       	.word	0x000d	; ????
     b4a:	00 d5       	rcall	.+2560   	; 0x154c <__data_load_end+0x5e2>
     b4c:	ef ff       	.word	0xffef	; ????
     b4e:	00 01       	movw	r0, r0
     b50:	8e 0e       	add	r8, r30
     b52:	00 00       	nop
     b54:	b9 da       	rcall	.-2702   	; 0xc8 <CFastLED::show(unsigned char) [clone .constprop.18]+0xc>
     b56:	ff 00       	.word	0x00ff	; ????
     b58:	01 79       	andi	r16, 0x91	; 145
     b5a:	12 00       	.word	0x0012	; ????
     b5c:	00 3f       	cpi	r16, 0xF0	; 240
     b5e:	85 cd       	rjmp	.-1270   	; 0x66a <L_3028+0x44>
     b60:	00 01       	movw	r0, r0
     b62:	9b 0d       	add	r25, r11
     b64:	00 00       	nop
     b66:	cb c0       	rjmp	.+406    	; 0xcfe <main+0x19c>
     b68:	ff 00       	.word	0x00ff	; ????
     b6a:	01 f1       	breq	.+64     	; 0xbac <main+0x4a>
     b6c:	0d 00       	.word	0x000d	; ????
     b6e:	00 33       	cpi	r16, 0x30	; 48
     b70:	55 cc       	rjmp	.-1878   	; 0x41c <__LOCK_REGION_LENGTH__+0x1c>
     b72:	00 01       	movw	r0, r0
     b74:	2b 12       	cpse	r2, r27
     b76:	00 00       	nop
     b78:	dd a0       	ldd	r13, Y+37	; 0x25
     b7a:	dd 00       	.word	0x00dd	; ????
     b7c:	01 05       	cpc	r16, r1
     b7e:	05 00       	.word	0x0005	; ????
     b80:	00 e6       	ldi	r16, 0x60	; 96
     b82:	e0 b0       	in	r14, 0x00	; 0
     b84:	00 01       	movw	r0, r0
     b86:	30 10       	cpse	r3, r0
     b88:	00 00       	nop
     b8a:	80 00       	.word	0x0080	; ????
     b8c:	80 00       	.word	0x0080	; ????
     b8e:	51 52       	subi	r21, 0x21	; 33
     b90:	65 64       	ori	r22, 0x45	; 69
     b92:	00 00       	nop
     b94:	00 ff       	sbrs	r16, 0
     b96:	00 01       	movw	r0, r0
     b98:	a2 02       	muls	r26, r18
     b9a:	00 00       	nop
     b9c:	8f 8f       	std	Y+31, r24	; 0x1f
     b9e:	bc 00       	.word	0x00bc	; ????
     ba0:	01 82       	std	Z+1, r0	; 0x01
     ba2:	02 00       	.word	0x0002	; ????
     ba4:	00 e1       	ldi	r16, 0x10	; 16
     ba6:	69 41       	sbci	r22, 0x19	; 25
     ba8:	00 01       	movw	r0, r0
     baa:	fa 0a       	sbc	r15, r26
     bac:	00 00       	nop
     bae:	13 45       	sbci	r17, 0x53	; 83
     bb0:	8b 00       	.word	0x008b	; ????
     bb2:	01 7d       	andi	r16, 0xD1	; 209
     bb4:	0c 00       	.word	0x000c	; ????
     bb6:	00 72       	andi	r16, 0x20	; 32
     bb8:	80 fa       	bst	r8, 0
     bba:	00 01       	movw	r0, r0
     bbc:	ad 09       	sbc	r26, r13
     bbe:	00 00       	nop
     bc0:	60 a4       	ldd	r6, Z+40	; 0x28
     bc2:	f4 00       	.word	0x00f4	; ????
     bc4:	01 9b       	sbis	0x00, 1	; 0
     bc6:	01 00       	.word	0x0001	; ????
     bc8:	00 57       	subi	r16, 0x70	; 112
     bca:	8b 2e       	mov	r8, r27
     bcc:	00 01       	movw	r0, r0
     bce:	e3 0f       	add	r30, r19
     bd0:	00 00       	nop
     bd2:	ee f5       	brtc	.+122    	; 0xc4e <main+0xec>
     bd4:	ff 00       	.word	0x00ff	; ????
     bd6:	01 04       	cpc	r0, r1
     bd8:	08 00       	.word	0x0008	; ????
     bda:	00 2d       	mov	r16, r0
     bdc:	52 a0       	ldd	r5, Z+34	; 0x22
     bde:	00 01       	movw	r0, r0
     be0:	89 06       	cpc	r8, r25
     be2:	00 00       	nop
     be4:	c0 c0       	rjmp	.+384    	; 0xd66 <main+0x204>
     be6:	c0 00       	.word	0x00c0	; ????
     be8:	01 2d       	mov	r16, r1
     bea:	05 00       	.word	0x0005	; ????
     bec:	00 eb       	ldi	r16, 0xB0	; 176
     bee:	ce 87       	std	Y+14, r28	; 0x0e
     bf0:	00 01       	movw	r0, r0
     bf2:	0f 0a       	sbc	r0, r31
     bf4:	00 00       	nop
     bf6:	cd 5a       	subi	r28, 0xAD	; 173
     bf8:	6a 00       	.word	0x006a	; ????
     bfa:	01 5d       	subi	r16, 0xD1	; 209
     bfc:	09 00       	.word	0x0009	; ????
     bfe:	00 90 80 70 	lds	r0, 0x7080	; 0x807080 <__bss_end+0x6e61>
     c02:	00 01       	movw	r0, r0
     c04:	52 0e       	add	r5, r18
     c06:	00 00       	nop
     c08:	90 80       	ld	r9, Z
     c0a:	70 00       	.word	0x0070	; ????
     c0c:	01 91       	ld	r16, Z+
     c0e:	09 00       	.word	0x0009	; ????
     c10:	00 fa       	bst	r0, 0
     c12:	fa ff       	.word	0xfffa	; ????
     c14:	00 1c       	adc	r0, r0
     c16:	94 0f       	add	r25, r20
     c18:	00 00       	nop
     c1a:	7f ff       	.word	0xff7f	; ????
     c1c:	01 00       	.word	0x0001	; ????
     c1e:	11 00       	.word	0x0011	; ????
     c20:	00 b4       	in	r0, 0x20	; 32
     c22:	82 46       	sbci	r24, 0x62	; 98
     c24:	00 51       	subi	r16, 0x10	; 16
     c26:	54 61       	ori	r21, 0x14	; 20
     c28:	6e 00       	.word	0x006e	; ????
     c2a:	8c b4       	in	r8, 0x2c	; 44
     c2c:	d2 00       	.word	0x00d2	; ????
     c2e:	1c 33       	cpi	r17, 0x3C	; 60
     c30:	0b 00       	.word	0x000b	; ????
     c32:	00 80       	ld	r0, Z
     c34:	80 01       	movw	r16, r0
     c36:	3c 05       	cpc	r19, r12
     c38:	00 00       	nop
     c3a:	d8 bf       	out	0x38, r29	; 56
     c3c:	d8 00       	.word	0x00d8	; ????
     c3e:	01 3e       	cpi	r16, 0xE1	; 225
     c40:	02 00       	.word	0x0002	; ????
     c42:	00 47       	sbci	r16, 0x70	; 112
     c44:	63 ff       	sbrs	r22, 3
     c46:	00 01       	movw	r0, r0
     c48:	2b 07       	cpc	r18, r27
     c4a:	00 00       	nop
     c4c:	d0 e0       	ldi	r29, 0x00	; 0
     c4e:	40 00       	.word	0x0040	; ????
     c50:	01 ca       	rjmp	.-3070   	; 0x54 <.do_clear_bss_start+0x4>
     c52:	0e 00       	.word	0x000e	; ????
     c54:	00 ee       	ldi	r16, 0xE0	; 224
     c56:	82 ee       	ldi	r24, 0xE2	; 226
     c58:	00 01       	movw	r0, r0
     c5a:	fc 03       	fmulsu	r23, r20
     c5c:	00 00       	nop
     c5e:	b3 de       	rcall	.-666    	; 0x9c6 <__vector_16+0xa>
     c60:	f5 00       	.word	0x00f5	; ????
     c62:	01 dc       	rcall	.-2046   	; 0x466 <__LOCK_REGION_LENGTH__+0x66>
     c64:	08 00       	.word	0x0008	; ????
     c66:	00 ff       	sbrs	r16, 0
     c68:	ff ff       	.word	0xffff	; ????
     c6a:	00 01       	movw	r0, r0
     c6c:	65 0f       	add	r22, r21
     c6e:	00 00       	nop
     c70:	f5 f5       	brhc	.+124    	; 0xcee <main+0x18c>
     c72:	f5 00       	.word	0x00f5	; ????
     c74:	01 00       	.word	0x0001	; ????
     c76:	07 00       	.word	0x0007	; ????
     c78:	00 00       	nop
     c7a:	ff ff       	.word	0xffff	; ????
     c7c:	00 01       	movw	r0, r0
     c7e:	e8 07       	cpc	r30, r24
     c80:	00 00       	nop
     c82:	32 cd       	rjmp	.-1436   	; 0x6e8 <L_3674+0x3e>
     c84:	9a 00       	.word	0x009a	; ????
     c86:	01 2f       	mov	r16, r17
     c88:	0a 00       	.word	0x000a	; ????
     c8a:	00 2d       	mov	r16, r0
     c8c:	e4 ff       	sbrs	r30, 4
     c8e:	00 01       	movw	r0, r0
     c90:	0b 04       	cpc	r0, r11
     c92:	00 00       	nop
     c94:	2a 9d       	mul	r18, r10
     c96:	ff 00       	.word	0x00ff	; ????
     c98:	00 48       	sbci	r16, 0x80	; 128
     c9a:	01 0c       	add	r0, r1
     c9c:	0d 00       	.word	0x000d	; ????
     c9e:	00 04       	cpc	r0, r0
     ca0:	a8 29       	or	r26, r8
     ca2:	0f 00       	.word	0x000f	; ????
     ca4:	00 01       	movw	r0, r0
     ca6:	8e 08       	sbc	r8, r14
     ca8:	00 00       	nop
     caa:	a4 08       	sbc	r10, r4
     cac:	00 00       	nop
     cae:	03 c9       	rjmp	.-3578   	; 0xfffffeb6 <__eeprom_end+0xff7efeb6>
     cb0:	0a 00       	.word	0x000a	; ????
     cb2:	00 01       	movw	r0, r0
     cb4:	02 3b       	cpi	r16, 0xB2	; 178
     cb6:	00 00       	nop
     cb8:	00 02       	muls	r16, r16
     cba:	3b 00       	.word	0x003b	; ????
     cbc:	00 00       	nop
     cbe:	02 3b       	cpi	r16, 0xB2	; 178
     cc0:	00 00       	nop
     cc2:	00 00       	nop
     cc4:	48 01       	movw	r8, r16
     cc6:	0c 0d       	add	r16, r12
     cc8:	00 00       	nop
     cca:	04 af       	std	Z+60, r16	; 0x3c
     ccc:	e7 0b       	sbc	r30, r23
     cce:	00 00       	nop
     cd0:	01 b9       	out	0x01, r16	; 1
     cd2:	08 00       	.word	0x0008	; ????
     cd4:	00 c5       	rjmp	.+2560   	; 0x16d6 <__data_load_end+0x76c>
     cd6:	08 00       	.word	0x0008	; ????
     cd8:	00 03       	mulsu	r16, r16
     cda:	c9 0a       	sbc	r12, r25
     cdc:	00 00       	nop
     cde:	01 02       	muls	r16, r17
     ce0:	29 00       	.word	0x0029	; ????
     ce2:	00 00       	nop
     ce4:	00 48       	sbci	r16, 0x80	; 128
     ce6:	01 0c       	add	r0, r1
     ce8:	0d 00       	.word	0x000d	; ????
     cea:	00 04       	cpc	r0, r0
     cec:	b6 59       	subi	r27, 0x96	; 150
     cee:	05 00       	.word	0x0005	; ????
     cf0:	00 01       	movw	r0, r0
     cf2:	da 08       	sbc	r13, r10
     cf4:	00 00       	nop
     cf6:	e6 08       	sbc	r14, r6
     cf8:	00 00       	nop
     cfa:	03 c9       	rjmp	.-3578   	; 0xffffff02 <__eeprom_end+0xff7eff02>
     cfc:	0a 00       	.word	0x000a	; ????
     cfe:	00 01       	movw	r0, r0
     d00:	02 c7       	rjmp	.+3588   	; 0x1b06 <__data_load_end+0xb9c>
     d02:	10 00       	.word	0x0010	; ????
     d04:	00 00       	nop
     d06:	52 01       	movw	r10, r4
     d08:	0c 0d       	add	r16, r12
     d0a:	00 00       	nop
     d0c:	04 be       	out	0x34, r0	; 52
     d0e:	fc 13       	cpse	r31, r28
     d10:	00 00       	nop
     d12:	01 f7       	brne	.-64     	; 0xcd4 <main+0x172>
     d14:	08 00       	.word	0x0008	; ????
     d16:	00 03       	mulsu	r16, r16
     d18:	c9 0a       	sbc	r12, r25
     d1a:	00 00       	nop
     d1c:	01 02       	muls	r16, r17
     d1e:	15 11       	cpse	r17, r5
     d20:	00 00       	nop
     d22:	00 00       	nop
     d24:	11 90       	ld	r1, Z+
     d26:	02 00       	.word	0x0002	; ????
     d28:	00 2d       	mov	r16, r0
     d2a:	3b 00       	.word	0x003b	; ????
     d2c:	00 00       	nop
     d2e:	19 09       	sbc	r17, r9
     d30:	00 00       	nop
     d32:	2e 87       	std	Y+14, r18	; 0x0e
     d34:	00 00       	nop
     d36:	00 02       	muls	r16, r16
     d38:	00 17       	cp	r16, r16
     d3a:	8c 13       	cpse	r24, r28
     d3c:	00 00       	nop
     d3e:	03 30       	cpi	r16, 0x03	; 3
     d40:	3b 00       	.word	0x003b	; ????
     d42:	00 00       	nop
     d44:	3a 6a       	ori	r19, 0xAA	; 170
     d46:	0c 00       	.word	0x000c	; ????
     d48:	00 0f       	add	r16, r16
     d4a:	03 3d       	cpi	r16, 0xD3	; 211
     d4c:	24 09       	sbc	r18, r4
     d4e:	00 00       	nop
     d50:	a2 0a       	sbc	r10, r18
     d52:	00 00       	nop
     d54:	53 64       	ori	r21, 0x43	; 67
     d56:	0c 00       	.word	0x000c	; ????
     d58:	00 b9       	out	0x00, r16	; 0
     d5a:	0a 00       	.word	0x000a	; ????
     d5c:	00 02       	muls	r16, r16
     d5e:	23 00       	.word	0x0023	; ????
     d60:	01 0f       	add	r16, r17
     d62:	5e 0f       	add	r21, r30
     d64:	00 00       	nop
     d66:	03 40       	sbci	r16, 0x03	; 3
     d68:	c9 0a       	sbc	r12, r25
     d6a:	00 00       	nop
     d6c:	02 23       	and	r16, r18
     d6e:	02 02       	muls	r16, r18
     d70:	0f 61       	ori	r16, 0x1F	; 31
     d72:	0e 00       	.word	0x000e	; ????
     d74:	00 03       	mulsu	r16, r16
     d76:	41 d4       	rcall	.+2178   	; 0x15fa <__data_load_end+0x690>
     d78:	0a 00       	.word	0x000a	; ????
     d7a:	00 02       	muls	r16, r16
     d7c:	23 04       	cpc	r2, r3
     d7e:	02 0f       	add	r16, r18
     d80:	be 08       	sbc	r11, r14
     d82:	00 00       	nop
     d84:	03 42       	sbci	r16, 0x23	; 35
     d86:	90 02       	muls	r25, r16
     d88:	00 00       	nop
     d8a:	02 23       	and	r16, r18
     d8c:	06 02       	muls	r16, r22
     d8e:	0f 5c       	subi	r16, 0xCF	; 207
     d90:	06 00       	.word	0x0006	; ????
     d92:	00 03       	mulsu	r16, r16
     d94:	43 90       	.word	0x9043	; ????
     d96:	02 00       	.word	0x0002	; ????
     d98:	00 02       	muls	r16, r16
     d9a:	23 09       	sbc	r18, r3
     d9c:	02 0f       	add	r16, r18
     d9e:	04 10       	cpse	r0, r4
     da0:	00 00       	nop
     da2:	03 44       	sbci	r16, 0x43	; 67
     da4:	19 09       	sbc	r17, r9
     da6:	00 00       	nop
     da8:	02 23       	and	r16, r18
     daa:	0c 02       	muls	r16, r28
     dac:	0f 37       	cpi	r16, 0x7F	; 127
     dae:	10 00       	.word	0x0010	; ????
     db0:	00 03       	mulsu	r16, r16
     db2:	45 b2       	in	r4, 0x15	; 21
     db4:	0a 00       	.word	0x000a	; ????
     db6:	00 02       	muls	r16, r16
     db8:	23 0d       	add	r18, r3
     dba:	02 1b       	sub	r16, r18
     dbc:	70 0d       	add	r23, r0
     dbe:	00 00       	nop
     dc0:	03 77       	andi	r16, 0x73	; 115
     dc2:	01 ab       	std	Z+49, r16	; 0x31
     dc4:	09 00       	.word	0x0009	; ????
     dc6:	00 c1       	rjmp	.+512    	; 0xfc8 <__data_load_end+0x5e>
     dc8:	09 00       	.word	0x0009	; ????
     dca:	00 03       	mulsu	r16, r16
     dcc:	d4 0a       	sbc	r13, r20
     dce:	00 00       	nop
     dd0:	01 02       	muls	r16, r17
     dd2:	12 12       	cpse	r1, r18
     dd4:	00 00       	nop
     dd6:	02 b2       	in	r0, 0x12	; 18
     dd8:	0a 00       	.word	0x000a	; ????
     dda:	00 02       	muls	r16, r16
     ddc:	3b 00       	.word	0x003b	; ????
     dde:	00 00       	nop
     de0:	00 1b       	sub	r16, r16
     de2:	0c 0d       	add	r16, r12
     de4:	00 00       	nop
     de6:	03 57       	subi	r16, 0x73	; 115
     de8:	01 d1       	rcall	.+514    	; 0xfec <__data_load_end+0x82>
     dea:	09 00       	.word	0x0009	; ????
     dec:	00 d8       	rcall	.-4096   	; 0xfffffdee <__eeprom_end+0xff7efdee>
     dee:	09 00       	.word	0x0009	; ????
     df0:	00 03       	mulsu	r16, r16
     df2:	d4 0a       	sbc	r13, r20
     df4:	00 00       	nop
     df6:	01 00       	.word	0x0001	; ????
     df8:	47 98       	cbi	0x08, 7	; 8
     dfa:	13 00       	.word	0x0013	; ????
     dfc:	00 03       	mulsu	r16, r16
     dfe:	d8 90       	.word	0x90d8	; ????
     e00:	02 00       	.word	0x0002	; ????
     e02:	00 01       	movw	r0, r0
     e04:	ec 09       	sbc	r30, r12
     e06:	00 00       	nop
     e08:	f8 09       	sbc	r31, r8
     e0a:	00 00       	nop
     e0c:	03 d4       	rcall	.+2054   	; 0x1614 <__data_load_end+0x6aa>
     e0e:	0a 00       	.word	0x000a	; ????
     e10:	00 01       	movw	r0, r0
     e12:	02 3b       	cpi	r16, 0xB2	; 178
     e14:	00 00       	nop
     e16:	00 00       	nop
     e18:	4d 37       	cpi	r20, 0x7D	; 125
     e1a:	11 00       	.word	0x0011	; ????
     e1c:	00 03       	mulsu	r16, r16
     e1e:	e1 90       	ld	r14, Z+
     e20:	02 00       	.word	0x0002	; ????
     e22:	00 01       	movw	r0, r0
     e24:	18 0a       	sbc	r1, r24
     e26:	00 00       	nop
     e28:	02 3b       	cpi	r16, 0xB2	; 178
     e2a:	00 00       	nop
     e2c:	00 02       	muls	r16, r16
     e2e:	12 12       	cpse	r1, r18
     e30:	00 00       	nop
     e32:	02 12       	cpse	r0, r18
     e34:	12 00       	.word	0x0012	; ????
     e36:	00 00       	nop
     e38:	3b 06       	cpc	r3, r27
     e3a:	0d 00       	.word	0x000d	; ????
     e3c:	00 03       	mulsu	r16, r16
     e3e:	a9 b2       	in	r10, 0x19	; 25
     e40:	0a 00       	.word	0x000a	; ????
     e42:	00 01       	movw	r0, r0
     e44:	02 10       	cpse	r0, r2
     e46:	05 24       	eor	r0, r5
     e48:	09 00       	.word	0x0009	; ????
     e4a:	00 01       	movw	r0, r0
     e4c:	34 0a       	sbc	r3, r20
     e4e:	00 00       	nop
     e50:	3b 0a       	sbc	r3, r27
     e52:	00 00       	nop
     e54:	03 d4       	rcall	.+2054   	; 0x165c <__data_load_end+0x6f2>
     e56:	0a 00       	.word	0x000a	; ????
     e58:	00 01       	movw	r0, r0
     e5a:	00 3b       	cpi	r16, 0xB0	; 176
     e5c:	c4 10       	cpse	r12, r4
     e5e:	00 00       	nop
     e60:	03 f9       	bld	r16, 3
     e62:	7c 00       	.word	0x007c	; ????
     e64:	00 00       	nop
     e66:	01 02       	muls	r16, r17
     e68:	10 06       	cpc	r1, r16
     e6a:	24 09       	sbc	r18, r4
     e6c:	00 00       	nop
     e6e:	01 57       	subi	r16, 0x71	; 113
     e70:	0a 00       	.word	0x000a	; ????
     e72:	00 5e       	subi	r16, 0xE0	; 224
     e74:	0a 00       	.word	0x000a	; ????
     e76:	00 03       	mulsu	r16, r16
     e78:	42 23       	and	r20, r18
     e7a:	00 00       	nop
     e7c:	01 00       	.word	0x0001	; ????
     e7e:	3b 23       	and	r19, r27
     e80:	0b 00       	.word	0x000b	; ????
     e82:	00 03       	mulsu	r16, r16
     e84:	a5 b2       	in	r10, 0x15	; 21
     e86:	0a 00       	.word	0x000a	; ????
     e88:	00 01       	movw	r0, r0
     e8a:	02 10       	cpse	r0, r2
     e8c:	04 24       	eor	r0, r4
     e8e:	09 00       	.word	0x0009	; ????
     e90:	00 01       	movw	r0, r0
     e92:	7a 0a       	sbc	r7, r26
     e94:	00 00       	nop
     e96:	81 0a       	sbc	r8, r17
     e98:	00 00       	nop
     e9a:	03 d4       	rcall	.+2054   	; 0x16a2 <__data_load_end+0x738>
     e9c:	0a 00       	.word	0x000a	; ????
     e9e:	00 01       	movw	r0, r0
     ea0:	00 54       	subi	r16, 0x40	; 64
     ea2:	11 0b       	sbc	r17, r17
     ea4:	00 00       	nop
     ea6:	03 63       	ori	r16, 0x33	; 51
     ea8:	01 02       	muls	r16, r17
     eaa:	10 03       	mulsu	r17, r16
     eac:	24 09       	sbc	r18, r4
     eae:	00 00       	nop
     eb0:	01 95       	neg	r16
     eb2:	0a 00       	.word	0x000a	; ????
     eb4:	00 03       	mulsu	r16, r16
     eb6:	d4 0a       	sbc	r13, r20
     eb8:	00 00       	nop
     eba:	01 02       	muls	r16, r17
     ebc:	b2 0a       	sbc	r11, r18
     ebe:	00 00       	nop
     ec0:	00 00       	nop
     ec2:	11 24       	eor	r1, r1
     ec4:	09 00       	.word	0x0009	; ????
     ec6:	00 4c       	sbci	r16, 0xC0	; 192
     ec8:	b2 0a       	sbc	r11, r18
     eca:	00 00       	nop
     ecc:	b2 0a       	sbc	r11, r18
     ece:	00 00       	nop
     ed0:	6e 00       	.word	0x006e	; ????
     ed2:	6f 02       	muls	r22, r31
     ed4:	05 69       	ori	r16, 0x95	; 149
     ed6:	6e 74       	andi	r22, 0x4E	; 78
     ed8:	00 0b       	sbc	r16, r16
     eda:	02 bf       	out	0x32, r16	; 50
     edc:	0a 00       	.word	0x000a	; ????
     ede:	00 70       	andi	r16, 0x00	; 0
     ee0:	02 91       	ld	r16, -Z
     ee2:	03 00       	.word	0x0003	; ????
     ee4:	00 a7       	std	Z+40, r16	; 0x28
     ee6:	0a 00       	.word	0x000a	; ????
     ee8:	00 0b       	sbc	r16, r16
     eea:	02 90       	ld	r0, -Z
     eec:	02 00       	.word	0x0002	; ????
     eee:	00 11       	cpse	r16, r0
     ef0:	c9 0a       	sbc	r12, r25
     ef2:	00 00       	nop
     ef4:	0b 02       	muls	r16, r27
     ef6:	24 09       	sbc	r18, r4
     ef8:	00 00       	nop
     efa:	11 d4       	rcall	.+2082   	; 0x171e <__data_load_end+0x7b4>
     efc:	0a 00       	.word	0x000a	; ????
     efe:	00 55       	subi	r16, 0x50	; 80
     f00:	38 0b       	sbc	r19, r24
     f02:	00 00       	nop
     f04:	0f 03       	fmul	r16, r23
     f06:	68 02       	muls	r22, r24
     f08:	24 09       	sbc	r18, r4
     f0a:	00 00       	nop
     f0c:	6e 0b       	sbc	r22, r30
     f0e:	00 00       	nop
     f10:	3c 24       	eor	r3, r12
     f12:	09 00       	.word	0x0009	; ????
     f14:	00 02       	muls	r16, r16
     f16:	23 00       	.word	0x0023	; ????
     f18:	01 2c       	mov	r0, r1
     f1a:	0c 0d       	add	r16, r12
     f1c:	00 00       	nop
     f1e:	03 85       	ldd	r16, Z+11	; 0x0b
     f20:	02 01       	movw	r0, r4
     f22:	0a 0b       	sbc	r16, r26
     f24:	00 00       	nop
     f26:	11 0b       	sbc	r17, r17
     f28:	00 00       	nop
     f2a:	03 49       	sbci	r16, 0x93	; 147
     f2c:	13 00       	.word	0x0013	; ????
     f2e:	00 01       	movw	r0, r0
     f30:	00 71       	andi	r16, 0x10	; 16
     f32:	32 11       	cpse	r19, r2
     f34:	00 00       	nop
     f36:	03 7b       	andi	r16, 0xB3	; 179
     f38:	02 01       	movw	r0, r4
     f3a:	02 10       	cpse	r0, r2
     f3c:	01 df       	rcall	.-510    	; 0xd40 <main+0x1de>
     f3e:	0a 00       	.word	0x000a	; ????
     f40:	00 02       	muls	r16, r16
     f42:	01 2b       	or	r16, r17
     f44:	0b 00       	.word	0x000b	; ????
     f46:	00 41       	sbci	r16, 0x10	; 16
     f48:	0b 00       	.word	0x000b	; ????
     f4a:	00 03       	mulsu	r16, r16
     f4c:	49 13       	cpse	r20, r25
     f4e:	00 00       	nop
     f50:	01 02       	muls	r16, r17
     f52:	b8 1f       	adc	r27, r24
     f54:	00 00       	nop
     f56:	02 b2       	in	r0, 0x12	; 18
     f58:	0a 00       	.word	0x000a	; ????
     f5a:	00 02       	muls	r16, r16
     f5c:	90 02       	muls	r25, r16
     f5e:	00 00       	nop
     f60:	00 72       	andi	r16, 0x20	; 32
     f62:	70 0d       	add	r23, r0
     f64:	00 00       	nop
     f66:	03 72       	andi	r16, 0x23	; 35
     f68:	02 01       	movw	r0, r4
     f6a:	02 10       	cpse	r0, r2
     f6c:	00 df       	rcall	.-512    	; 0xd6e <main+0x20c>
     f6e:	0a 00       	.word	0x000a	; ????
     f70:	00 02       	muls	r16, r16
     f72:	01 57       	subi	r16, 0x71	; 113
     f74:	0b 00       	.word	0x000b	; ????
     f76:	00 03       	mulsu	r16, r16
     f78:	49 13       	cpse	r20, r25
     f7a:	00 00       	nop
     f7c:	01 02       	muls	r16, r17
     f7e:	12 12       	cpse	r1, r18
     f80:	00 00       	nop
     f82:	02 b2       	in	r0, 0x12	; 18
     f84:	0a 00       	.word	0x000a	; ????
     f86:	00 02       	muls	r16, r16
     f88:	90 02       	muls	r25, r16
     f8a:	00 00       	nop
     f8c:	00 00       	nop
     f8e:	24 d1       	rcall	.+584    	; 0x11d8 <__data_load_end+0x26e>
     f90:	0e 00       	.word	0x000e	; ????
     f92:	00 01       	movw	r0, r0
     f94:	0a 11       	cpse	r16, r10
     f96:	99 0b       	sbc	r25, r25
     f98:	00 00       	nop
     f9a:	17 e6       	ldi	r17, 0x67	; 103
     f9c:	0d 00       	.word	0x000d	; ????
     f9e:	00 0a       	sbc	r0, r16
     fa0:	13 99       	sbic	0x02, 3	; 2
     fa2:	0b 00       	.word	0x000b	; ????
     fa4:	00 17       	cp	r16, r16
     fa6:	82 0e       	add	r8, r18
     fa8:	00 00       	nop
     faa:	0a 14       	cp	r0, r10
     fac:	3b 00       	.word	0x003b	; ????
     fae:	00 00       	nop
     fb0:	73 5f       	subi	r23, 0xF3	; 243
     fb2:	0a 00       	.word	0x000a	; ????
     fb4:	00 0a       	sbc	r0, r16
     fb6:	16 01       	movw	r2, r12
     fb8:	00 0b       	sbc	r16, r16
     fba:	02 46       	sbci	r16, 0x62	; 98
     fbc:	00 00       	nop
     fbe:	00 24       	eor	r0, r0
     fc0:	f3 13       	cpse	r31, r19
     fc2:	00 00       	nop
     fc4:	02 09       	sbc	r16, r2
     fc6:	10 01       	movw	r2, r0
     fc8:	0c 00       	.word	0x000c	; ????
     fca:	00 0f       	add	r16, r16
     fcc:	45 02       	muls	r20, r21
     fce:	00 00       	nop
     fd0:	09 12       	cpse	r0, r25
     fd2:	7c 00       	.word	0x007c	; ????
     fd4:	00 00       	nop
     fd6:	02 23       	and	r16, r18
     fd8:	00 03       	mulsu	r16, r16
     fda:	1b e2       	ldi	r17, 0x2B	; 43
     fdc:	0b 00       	.word	0x000b	; ????
     fde:	00 09       	sbc	r16, r0
     fe0:	19 01       	movw	r2, r18
     fe2:	ca 0b       	sbc	r28, r26
     fe4:	00 00       	nop
     fe6:	d1 0b       	sbc	r29, r17
     fe8:	00 00       	nop
     fea:	03 1a       	sub	r0, r19
     fec:	1b 00       	.word	0x001b	; ????
     fee:	00 01       	movw	r0, r0
     ff0:	00 1b       	sub	r16, r16
     ff2:	2a 0a       	sbc	r2, r26
     ff4:	00 00       	nop
     ff6:	09 21       	and	r16, r9
     ff8:	01 e1       	ldi	r16, 0x11	; 17
     ffa:	0b 00       	.word	0x000b	; ????
     ffc:	00 e8       	ldi	r16, 0x80	; 128
     ffe:	0b 00       	.word	0x000b	; ????
    1000:	00 03       	mulsu	r16, r16
    1002:	1a 1b       	sub	r17, r26
    1004:	00 00       	nop
    1006:	01 00       	.word	0x0001	; ????
    1008:	52 01       	movw	r10, r4
    100a:	0c 0d       	add	r16, r12
    100c:	00 00       	nop
    100e:	09 16       	cp	r0, r25
    1010:	e8 02       	muls	r30, r24
    1012:	00 00       	nop
    1014:	01 f9       	bld	r16, 1
    1016:	0b 00       	.word	0x000b	; ????
    1018:	00 03       	mulsu	r16, r16
    101a:	1a 1b       	sub	r17, r26
    101c:	00 00       	nop
    101e:	01 00       	.word	0x0001	; ????
    1020:	00 3a       	cpi	r16, 0xA0	; 160
    1022:	49 11       	cpse	r20, r9
    1024:	00 00       	nop
    1026:	11 06       	cpc	r1, r17
    1028:	68 24       	eor	r6, r8
    102a:	09 00       	.word	0x0009	; ????
    102c:	00 cf       	rjmp	.-512    	; 0xe2e <_GLOBAL__sub_I_pSmartMatrix+0x1a>
    102e:	0c 00       	.word	0x000c	; ????
    1030:	00 3c       	cpi	r16, 0xC0	; 192
    1032:	df 0a       	sbc	r13, r31
    1034:	00 00       	nop
    1036:	02 23       	and	r16, r18
    1038:	00 01       	movw	r0, r0
    103a:	0f ab       	std	Y+55, r16	; 0x37
    103c:	0c 00       	.word	0x000c	; ????
    103e:	00 06       	cpc	r0, r16
    1040:	6e 9f       	mul	r22, r30
    1042:	0b 00       	.word	0x000b	; ????
    1044:	00 02       	muls	r16, r16
    1046:	23 0f       	add	r18, r19
    1048:	03 56       	subi	r16, 0x63	; 99
    104a:	06 0b       	sbc	r16, r22
    104c:	00 00       	nop
    104e:	06 6b       	ori	r16, 0xB6	; 182
    1050:	7a 0b       	sbc	r23, r26
    1052:	00 00       	nop
    1054:	03 56       	subi	r16, 0x63	; 99
    1056:	85 01       	movw	r16, r10
    1058:	00 00       	nop
    105a:	06 6c       	ori	r16, 0xC6	; 198
    105c:	85 0b       	sbc	r24, r21
    105e:	00 00       	nop
    1060:	03 46       	sbci	r16, 0x63	; 99
    1062:	0c 0d       	add	r16, r12
    1064:	00 00       	nop
    1066:	01 01       	movw	r0, r2
    1068:	50 0c       	add	r5, r0
    106a:	00 00       	nop
    106c:	57 0c       	add	r5, r7
    106e:	00 00       	nop
    1070:	03 6d       	ori	r16, 0xD3	; 211
    1072:	13 00       	.word	0x0013	; ????
    1074:	00 01       	movw	r0, r0
    1076:	00 3b       	cpi	r16, 0xB0	; 176
    1078:	c4 10       	cpse	r12, r4
    107a:	00 00       	nop
    107c:	06 75       	andi	r16, 0x56	; 86
    107e:	7c 00       	.word	0x007c	; ????
    1080:	00 00       	nop
    1082:	01 02       	muls	r16, r17
    1084:	10 06       	cpc	r1, r16
    1086:	01 0c       	add	r0, r1
    1088:	00 00       	nop
    108a:	01 73       	andi	r16, 0x31	; 49
    108c:	0c 00       	.word	0x000c	; ????
    108e:	00 7a       	andi	r16, 0xA0	; 160
    1090:	0c 00       	.word	0x000c	; ????
    1092:	00 03       	mulsu	r16, r16
    1094:	e3 19       	sub	r30, r3
    1096:	00 00       	nop
    1098:	01 00       	.word	0x0001	; ????
    109a:	74 f4       	brge	.+28     	; 0x10b8 <__data_load_end+0x14e>
    109c:	07 00       	.word	0x0007	; ????
    109e:	00 06       	cpc	r0, r16
    10a0:	68 01       	movw	r12, r16
    10a2:	02 01       	movw	r0, r4
    10a4:	8e 0c       	add	r8, r14
    10a6:	00 00       	nop
    10a8:	02 49       	sbci	r16, 0x92	; 146
    10aa:	1b 00       	.word	0x001b	; ????
    10ac:	00 00       	nop
    10ae:	75 97       	sbiw	r30, 0x15	; 21
    10b0:	07 00       	.word	0x0007	; ????
    10b2:	00 06       	cpc	r0, r16
    10b4:	78 01       	movw	r14, r16
    10b6:	02 10       	cpse	r0, r2
    10b8:	07 01       	movw	r0, r14
    10ba:	0c 00       	.word	0x000c	; ????
    10bc:	00 02       	muls	r16, r16
    10be:	01 a7       	std	Z+41, r16	; 0x29
    10c0:	0c 00       	.word	0x000c	; ????
    10c2:	00 b3       	in	r16, 0x10	; 16
    10c4:	0c 00       	.word	0x000c	; ????
    10c6:	00 03       	mulsu	r16, r16
    10c8:	6d 13       	cpse	r22, r29
    10ca:	00 00       	nop
    10cc:	01 02       	muls	r16, r17
    10ce:	49 1b       	sub	r20, r25
    10d0:	00 00       	nop
    10d2:	00 54       	subi	r16, 0x40	; 64
    10d4:	e4 0e       	add	r14, r20
    10d6:	00 00       	nop
    10d8:	06 71       	andi	r16, 0x16	; 22
    10da:	01 02       	muls	r16, r17
    10dc:	10 02       	muls	r17, r16
    10de:	01 0c       	add	r0, r1
    10e0:	00 00       	nop
    10e2:	01 c7       	rjmp	.+3586   	; 0x1ee6 <__data_load_end+0xf7c>
    10e4:	0c 00       	.word	0x000c	; ????
    10e6:	00 03       	mulsu	r16, r16
    10e8:	6d 13       	cpse	r22, r29
    10ea:	00 00       	nop
    10ec:	01 00       	.word	0x0001	; ????
    10ee:	00 11       	cpse	r16, r0
    10f0:	01 0c       	add	r0, r1
    10f2:	00 00       	nop
    10f4:	55 96       	adiw	r26, 0x15	; 21
    10f6:	09 00       	.word	0x0009	; ????
    10f8:	00 11       	cpse	r16, r0
    10fa:	11 fd       	sbrc	r17, 1
    10fc:	01 24       	eor	r0, r1
    10fe:	09 00       	.word	0x0009	; ????
    1100:	00 01       	movw	r0, r0
    1102:	0d 00       	.word	0x000d	; ????
    1104:	00 3c       	cpi	r16, 0xC0	; 192
    1106:	01 0c       	add	r0, r1
    1108:	00 00       	nop
    110a:	02 23       	and	r16, r18
    110c:	00 01       	movw	r0, r0
    110e:	57 0c       	add	r5, r7
    1110:	0d 00       	.word	0x000d	; ????
    1112:	00 01       	movw	r0, r0
    1114:	01 f9       	bld	r16, 1
    1116:	0c 00       	.word	0x000c	; ????
    1118:	00 03       	mulsu	r16, r16
    111a:	93 13       	cpse	r25, r19
    111c:	00 00       	nop
    111e:	01 00       	.word	0x0001	; ????
    1120:	00 3a       	cpi	r16, 0xA0	; 160
    1122:	c6 05       	cpc	r28, r6
    1124:	00 00       	nop
    1126:	11 0d       	add	r17, r1
    1128:	82 24       	eor	r8, r2
    112a:	09 00       	.word	0x0009	; ????
    112c:	00 2d       	mov	r16, r0
    112e:	0d 00       	.word	0x000d	; ????
    1130:	00 3c       	cpi	r16, 0xC0	; 192
    1132:	d4 0c       	add	r13, r4
    1134:	00 00       	nop
    1136:	02 23       	and	r16, r18
    1138:	00 01       	movw	r0, r0
    113a:	57 0c       	add	r5, r7
    113c:	0d 00       	.word	0x000d	; ????
    113e:	00 01       	movw	r0, r0
    1140:	01 25       	eor	r16, r1
    1142:	0d 00       	.word	0x000d	; ????
    1144:	00 03       	mulsu	r16, r16
    1146:	ba 13       	cpse	r27, r26
    1148:	00 00       	nop
    114a:	01 00       	.word	0x0001	; ????
    114c:	00 3a       	cpi	r16, 0xA0	; 160
    114e:	6a 0c       	add	r6, r10
    1150:	00 00       	nop
    1152:	0f 03       	fmul	r16, r23
    1154:	3d 2d       	mov	r19, r13
    1156:	0d 00       	.word	0x000d	; ????
    1158:	00 1d       	adc	r16, r0
    115a:	0e 00       	.word	0x000e	; ????
    115c:	00 53       	subi	r16, 0x30	; 48
    115e:	64 0c       	add	r6, r4
    1160:	00 00       	nop
    1162:	b9 0a       	sbc	r11, r25
    1164:	00 00       	nop
    1166:	02 23       	and	r16, r18
    1168:	00 01       	movw	r0, r0
    116a:	0f 5e       	subi	r16, 0xEF	; 239
    116c:	0f 00       	.word	0x000f	; ????
    116e:	00 03       	mulsu	r16, r16
    1170:	40 c9       	rjmp	.-3456   	; 0x3f2 <ClocklessController<(unsigned char)3, 2, 5, 3, (EOrder)10, 0, false, 10>::showPixels(PixelController<(EOrder)10, 1, 4294967295ul>&)+0xa>
    1172:	0a 00       	.word	0x000a	; ????
    1174:	00 02       	muls	r16, r16
    1176:	23 02       	muls	r18, r19
    1178:	02 0f       	add	r16, r18
    117a:	61 0e       	add	r6, r17
    117c:	00 00       	nop
    117e:	03 41       	sbci	r16, 0x13	; 19
    1180:	1d 0e       	add	r1, r29
    1182:	00 00       	nop
    1184:	02 23       	and	r16, r18
    1186:	04 02       	muls	r16, r20
    1188:	0f be       	out	0x3f, r0	; 63
    118a:	08 00       	.word	0x0008	; ????
    118c:	00 03       	mulsu	r16, r16
    118e:	42 90       	ld	r4, -Z
    1190:	02 00       	.word	0x0002	; ????
    1192:	00 02       	muls	r16, r16
    1194:	23 06       	cpc	r2, r19
    1196:	02 0f       	add	r16, r18
    1198:	5c 06       	cpc	r5, r28
    119a:	00 00       	nop
    119c:	03 43       	sbci	r16, 0x33	; 51
    119e:	90 02       	muls	r25, r16
    11a0:	00 00       	nop
    11a2:	02 23       	and	r16, r18
    11a4:	09 02       	muls	r16, r25
    11a6:	0f 04       	cpc	r0, r15
    11a8:	10 00       	.word	0x0010	; ????
    11aa:	00 03       	mulsu	r16, r16
    11ac:	44 19       	sub	r20, r4
    11ae:	09 00       	.word	0x0009	; ????
    11b0:	00 02       	muls	r16, r16
    11b2:	23 0c       	add	r2, r3
    11b4:	02 0f       	add	r16, r18
    11b6:	37 10       	cpse	r3, r7
    11b8:	00 00       	nop
    11ba:	03 45       	sbci	r16, 0x53	; 83
    11bc:	b2 0a       	sbc	r11, r18
    11be:	00 00       	nop
    11c0:	02 23       	and	r16, r18
    11c2:	0d 02       	muls	r16, r29
    11c4:	1b 0f       	add	r17, r27
    11c6:	03 00       	.word	0x0003	; ????
    11c8:	00 03       	mulsu	r16, r16
    11ca:	7e 01       	movw	r14, r28
    11cc:	b4 0d       	add	r27, r4
    11ce:	00 00       	nop
    11d0:	c0 0d       	add	r28, r0
    11d2:	00 00       	nop
    11d4:	03 1d       	adc	r16, r3
    11d6:	0e 00       	.word	0x000e	; ????
    11d8:	00 01       	movw	r0, r0
    11da:	02 3b       	cpi	r16, 0xB2	; 178
    11dc:	00 00       	nop
    11de:	00 00       	nop
    11e0:	76 01       	movw	r14, r12
    11e2:	af 0d       	add	r26, r15
    11e4:	00 00       	nop
    11e6:	03 8d       	ldd	r16, Z+27	; 0x1b
    11e8:	c6 0d       	add	r28, r6
    11ea:	00 00       	nop
    11ec:	1d 0e       	add	r1, r29
    11ee:	00 00       	nop
    11f0:	01 77       	andi	r16, 0x71	; 113
    11f2:	01 99       	sbic	0x00, 1	; 0
    11f4:	0a 00       	.word	0x000a	; ????
    11f6:	00 03       	mulsu	r16, r16
    11f8:	b7 a9       	ldd	r27, Z+55	; 0x37
    11fa:	0a 00       	.word	0x000a	; ????
    11fc:	00 dd       	rcall	.-1536   	; 0xbfe <main+0x9c>
    11fe:	12 00       	.word	0x0012	; ????
    1200:	00 01       	movw	r0, r0
    1202:	ea 0d       	add	r30, r10
    1204:	00 00       	nop
    1206:	f6 0d       	add	r31, r6
    1208:	00 00       	nop
    120a:	03 1d       	adc	r16, r3
    120c:	0e 00       	.word	0x000e	; ????
    120e:	00 01       	movw	r0, r0
    1210:	02 3b       	cpi	r16, 0xB2	; 178
    1212:	00 00       	nop
    1214:	00 00       	nop
    1216:	78 01       	movw	r14, r16
    1218:	0a 11       	cpse	r16, r10
    121a:	00 00       	nop
    121c:	03 96       	adiw	r24, 0x03	; 3
    121e:	ff 11       	cpse	r31, r15
    1220:	00 00       	nop
    1222:	dd 12       	cpse	r13, r29
    1224:	00 00       	nop
    1226:	01 0b       	sbc	r16, r17
    1228:	0e 00       	.word	0x000e	; ????
    122a:	00 03       	mulsu	r16, r16
    122c:	1d 0e       	add	r1, r29
    122e:	00 00       	nop
    1230:	01 02       	muls	r16, r17
    1232:	c9 0a       	sbc	r12, r25
    1234:	00 00       	nop
    1236:	02 b2       	in	r0, 0x12	; 18
    1238:	0a 00       	.word	0x000a	; ????
    123a:	00 00       	nop
    123c:	00 0b       	sbc	r16, r16
    123e:	02 2d       	mov	r16, r2
    1240:	0d 00       	.word	0x000d	; ????
    1242:	00 11       	cpse	r16, r0
    1244:	1d 0e       	add	r1, r29
    1246:	00 00       	nop
    1248:	24 44       	sbci	r18, 0x44	; 68
    124a:	0d 00       	.word	0x000d	; ????
    124c:	00 04       	cpc	r0, r0
    124e:	12 10       	cpse	r1, r2
    1250:	5e 0e       	add	r5, r30
    1252:	00 00       	nop
    1254:	58 6f       	ori	r21, 0xF8	; 248
    1256:	70 00       	.word	0x0070	; ????
    1258:	12 11       	cpse	r17, r2
    125a:	3b 00       	.word	0x003b	; ????
    125c:	00 00       	nop
    125e:	02 23       	and	r16, r18
    1260:	00 58       	subi	r16, 0x80	; 128
    1262:	6c 65       	ori	r22, 0x5C	; 92
    1264:	6e 00       	.word	0x006e	; ????
    1266:	12 12       	cpse	r1, r18
    1268:	3b 00       	.word	0x003b	; ????
    126a:	00 00       	nop
    126c:	02 23       	and	r16, r18
    126e:	01 59       	subi	r16, 0x91	; 145
    1270:	58 07       	cpc	r21, r24
    1272:	00 00       	nop
    1274:	12 13       	cpse	r17, r18
    1276:	5e 0e       	add	r5, r30
    1278:	00 00       	nop
    127a:	02 23       	and	r16, r18
    127c:	02 00       	.word	0x0002	; ????
    127e:	0b 02       	muls	r16, r27
    1280:	3b 00       	.word	0x003b	; ????
    1282:	00 00       	nop
    1284:	17 eb       	ldi	r17, 0xB7	; 183
    1286:	08 00       	.word	0x0008	; ????
    1288:	00 0f       	add	r16, r16
    128a:	7d 6f       	ori	r23, 0xFD	; 253
    128c:	0e 00       	.word	0x000e	; ????
    128e:	00 23       	and	r16, r16
    1290:	01 06       	cpc	r0, r17
    1292:	d1 0f       	add	r29, r17
    1294:	00 00       	nop
    1296:	79 df       	rcall	.-270    	; 0x118a <__data_load_end+0x220>
    1298:	11 00       	.word	0x0011	; ????
    129a:	00 12       	cpse	r0, r16
    129c:	03 03       	mulsu	r16, r19
    129e:	01 fd       	sbrc	r16, 1
    12a0:	0f 00       	.word	0x000f	; ????
    12a2:	00 2f       	mov	r16, r16
    12a4:	22 08       	sbc	r2, r2
    12a6:	00 00       	nop
    12a8:	03 04       	cpc	r0, r3
    12aa:	01 fd       	sbrc	r16, 1
    12ac:	0f 00       	.word	0x000f	; ????
    12ae:	00 02       	muls	r16, r16
    12b0:	23 00       	.word	0x0023	; ????
    12b2:	2f 79       	andi	r18, 0x9F	; 159
    12b4:	07 00       	.word	0x0007	; ????
    12b6:	00 03       	mulsu	r16, r16
    12b8:	05 01       	movw	r0, r10
    12ba:	b2 0a       	sbc	r11, r18
    12bc:	00 00       	nop
    12be:	02 23       	and	r16, r18
    12c0:	02 2f       	mov	r16, r18
    12c2:	a2 0e       	add	r10, r18
    12c4:	00 00       	nop
    12c6:	03 06       	cpc	r0, r19
    12c8:	01 b2       	in	r0, 0x11	; 17
    12ca:	0a 00       	.word	0x000a	; ????
    12cc:	00 02       	muls	r16, r16
    12ce:	23 04       	cpc	r2, r3
    12d0:	5a 64       	ori	r21, 0x4A	; 74
    12d2:	00 03       	mulsu	r16, r16
    12d4:	07 01       	movw	r0, r14
    12d6:	09 09       	sbc	r16, r9
    12d8:	00 00       	nop
    12da:	02 23       	and	r16, r18
    12dc:	06 5a       	subi	r16, 0xA6	; 166
    12de:	65 00       	.word	0x0065	; ????
    12e0:	03 08       	sbc	r0, r3
    12e2:	01 09       	sbc	r16, r1
    12e4:	09 00       	.word	0x0009	; ????
    12e6:	00 02       	muls	r16, r16
    12e8:	23 09       	sbc	r18, r3
    12ea:	2f d2       	rcall	.+1118   	; 0x174a <__data_load_end+0x7e0>
    12ec:	07 00       	.word	0x0007	; ????
    12ee:	00 03       	mulsu	r16, r16
    12f0:	09 01       	movw	r0, r18
    12f2:	90 02       	muls	r25, r16
    12f4:	00 00       	nop
    12f6:	02 23       	and	r16, r18
    12f8:	0c 2f       	mov	r16, r28
    12fa:	48 06       	cpc	r4, r24
    12fc:	00 00       	nop
    12fe:	03 0a       	sbc	r0, r19
    1300:	01 64       	ori	r16, 0x41	; 65
    1302:	0e 00       	.word	0x000e	; ????
    1304:	00 02       	muls	r16, r16
    1306:	23 0f       	add	r18, r19
    1308:	2f 2c       	mov	r2, r15
    130a:	09 00       	.word	0x0009	; ????
    130c:	00 03       	mulsu	r16, r16
    130e:	0b 01       	movw	r0, r22
    1310:	03 10       	cpse	r0, r3
    1312:	00 00       	nop
    1314:	02 23       	and	r16, r18
    1316:	10 2c       	mov	r1, r0
    1318:	4c 0b       	sbc	r20, r28
    131a:	00 00       	nop
    131c:	03 74       	andi	r16, 0x43	; 67
    131e:	01 01       	movw	r0, r2
    1320:	08 0f       	add	r16, r24
    1322:	00 00       	nop
    1324:	0f 0f       	add	r16, r31
    1326:	00 00       	nop
    1328:	03 56       	subi	r16, 0x63	; 99
    132a:	1a 00       	.word	0x001a	; ????
    132c:	00 01       	movw	r0, r0
    132e:	00 7a       	andi	r16, 0xA0	; 160
    1330:	01 6f       	ori	r16, 0xF1	; 241
    1332:	06 00       	.word	0x0006	; ????
    1334:	00 03       	mulsu	r16, r16
    1336:	d6 01       	movw	r26, r12
    1338:	9f 04       	cpc	r9, r15
    133a:	00 00       	nop
    133c:	01 25       	eor	r16, r1
    133e:	0f 00       	.word	0x000f	; ????
    1340:	00 2c       	mov	r0, r0
    1342:	0f 00       	.word	0x000f	; ????
    1344:	00 03       	mulsu	r16, r16
    1346:	56 1a       	sub	r5, r22
    1348:	00 00       	nop
    134a:	01 00       	.word	0x0001	; ????
    134c:	5b 01       	movw	r10, r22
    134e:	7b 01       	movw	r14, r22
    1350:	00 00       	nop
    1352:	03 c6       	rjmp	.+3078   	; 0x1f5a <__data_load_end+0xff0>
    1354:	01 b1       	in	r16, 0x01	; 1
    1356:	0c 00       	.word	0x000c	; ????
    1358:	00 b2       	in	r0, 0x10	; 16
    135a:	0a 00       	.word	0x000a	; ????
    135c:	00 01       	movw	r0, r0
    135e:	46 0f       	add	r20, r22
    1360:	00 00       	nop
    1362:	4d 0f       	add	r20, r29
    1364:	00 00       	nop
    1366:	03 56       	subi	r16, 0x63	; 99
    1368:	1a 00       	.word	0x001a	; ????
    136a:	00 01       	movw	r0, r0
    136c:	00 5b       	subi	r16, 0xB0	; 176
    136e:	01 23       	and	r16, r17
    1370:	0b 00       	.word	0x000b	; ????
    1372:	00 03       	mulsu	r16, r16
    1374:	be 01       	movw	r22, r28
    1376:	c2 03       	fmuls	r20, r18
    1378:	00 00       	nop
    137a:	b2 0a       	sbc	r11, r18
    137c:	00 00       	nop
    137e:	01 67       	ori	r16, 0x71	; 113
    1380:	0f 00       	.word	0x000f	; ????
    1382:	00 6e       	ori	r16, 0xE0	; 224
    1384:	0f 00       	.word	0x000f	; ????
    1386:	00 03       	mulsu	r16, r16
    1388:	56 1a       	sub	r5, r22
    138a:	00 00       	nop
    138c:	01 00       	.word	0x0001	; ????
    138e:	2c 0c       	add	r2, r12
    1390:	0d 00       	.word	0x000d	; ????
    1392:	00 03       	mulsu	r16, r16
    1394:	3a 01       	movw	r6, r20
    1396:	01 7f       	andi	r16, 0xF1	; 241
    1398:	0f 00       	.word	0x000f	; ????
    139a:	00 9a       	sbi	0x00, 0	; 0
    139c:	0f 00       	.word	0x000f	; ????
    139e:	00 03       	mulsu	r16, r16
    13a0:	56 1a       	sub	r5, r22
    13a2:	00 00       	nop
    13a4:	01 02       	muls	r16, r17
    13a6:	b8 1f       	adc	r27, r24
    13a8:	00 00       	nop
    13aa:	02 b2       	in	r0, 0x12	; 18
    13ac:	0a 00       	.word	0x000a	; ????
    13ae:	00 02       	muls	r16, r16
    13b0:	be 1f       	adc	r27, r30
    13b2:	00 00       	nop
    13b4:	02 19       	sub	r16, r2
    13b6:	09 00       	.word	0x0009	; ????
    13b8:	00 00       	nop
    13ba:	2c b6       	in	r2, 0x3c	; 60
    13bc:	07 00       	.word	0x0007	; ????
    13be:	00 03       	mulsu	r16, r16
    13c0:	1f 01       	movw	r2, r30
    13c2:	01 ab       	std	Z+49, r16	; 0x31
    13c4:	0f 00       	.word	0x000f	; ????
    13c6:	00 b7       	in	r16, 0x30	; 48
    13c8:	0f 00       	.word	0x000f	; ????
    13ca:	00 03       	mulsu	r16, r16
    13cc:	56 1a       	sub	r5, r22
    13ce:	00 00       	nop
    13d0:	01 02       	muls	r16, r17
    13d2:	b2 0a       	sbc	r11, r18
    13d4:	00 00       	nop
    13d6:	00 2c       	mov	r0, r0
    13d8:	79 05       	cpc	r23, r9
    13da:	00 00       	nop
    13dc:	03 b5       	in	r16, 0x23	; 35
    13de:	01 01       	movw	r0, r2
    13e0:	c8 0f       	add	r28, r24
    13e2:	00 00       	nop
    13e4:	d4 0f       	add	r29, r20
    13e6:	00 00       	nop
    13e8:	03 56       	subi	r16, 0x63	; 99
    13ea:	1a 00       	.word	0x001a	; ????
    13ec:	00 01       	movw	r0, r0
    13ee:	02 19       	sub	r16, r2
    13f0:	09 00       	.word	0x0009	; ????
    13f2:	00 00       	nop
    13f4:	7b 0c       	add	r7, r11
    13f6:	0d 00       	.word	0x000d	; ????
    13f8:	00 03       	mulsu	r16, r16
    13fa:	45 01       	movw	r8, r10
    13fc:	01 e1       	ldi	r16, 0x11	; 17
    13fe:	0f 00       	.word	0x000f	; ????
    1400:	00 03       	mulsu	r16, r16
    1402:	56 1a       	sub	r5, r22
    1404:	00 00       	nop
    1406:	01 02       	muls	r16, r17
    1408:	12 12       	cpse	r1, r18
    140a:	00 00       	nop
    140c:	02 b2       	in	r0, 0x12	; 18
    140e:	0a 00       	.word	0x000a	; ????
    1410:	00 02       	muls	r16, r16
    1412:	be 1f       	adc	r27, r30
    1414:	00 00       	nop
    1416:	02 19       	sub	r16, r2
    1418:	09 00       	.word	0x0009	; ????
    141a:	00 00       	nop
    141c:	00 0b       	sbc	r16, r16
    141e:	02 4b       	sbci	r16, 0xB2	; 178
    1420:	00 00       	nop
    1422:	00 2d       	mov	r16, r0
    1424:	b2 0a       	sbc	r11, r18
    1426:	00 00       	nop
    1428:	13 10       	cpse	r1, r3
    142a:	00 00       	nop
    142c:	2e 87       	std	Y+14, r18	; 0x0e
    142e:	00 00       	nop
    1430:	00 00       	nop
    1432:	00 5c       	subi	r16, 0xC0	; 192
    1434:	0e 0f       	add	r16, r30
    1436:	00 00       	nop
    1438:	07 02       	muls	r16, r23
    143a:	87 00       	.word	0x0087	; ????
    143c:	00 00       	nop
    143e:	05 14       	cp	r0, r5
    1440:	31 10       	cpse	r3, r1
    1442:	00 00       	nop
    1444:	13 3a       	cpi	r17, 0xA3	; 163
    1446:	0a 00       	.word	0x000a	; ????
    1448:	00 00       	nop
    144a:	13 52       	subi	r17, 0x23	; 35
    144c:	0c 00       	.word	0x000c	; ????
    144e:	00 01       	movw	r0, r0
    1450:	00 24       	eor	r0, r0
    1452:	9e 08       	sbc	r9, r14
    1454:	00 00       	nop
    1456:	02 05       	cpc	r16, r2
    1458:	19 4c       	sbci	r17, 0xC9	; 201
    145a:	10 00       	.word	0x0010	; ????
    145c:	00 59       	subi	r16, 0x90	; 144
    145e:	14 0c       	add	r1, r4
    1460:	00 00       	nop
    1462:	05 1a       	sub	r0, r21
    1464:	13 10       	cpse	r1, r3
    1466:	00 00       	nop
    1468:	02 23       	and	r16, r18
    146a:	00 00       	nop
    146c:	5c b6       	in	r5, 0x3c	; 60
    146e:	13 00       	.word	0x0013	; ????
    1470:	00 07       	cpc	r16, r16
    1472:	02 87       	std	Z+10, r16	; 0x0a
    1474:	00 00       	nop
    1476:	00 05       	cpc	r16, r0
    1478:	23 70       	andi	r18, 0x03	; 3
    147a:	10 00       	.word	0x0010	; ????
    147c:	00 13       	cpse	r16, r16
    147e:	e6 13       	cpse	r30, r22
    1480:	00 00       	nop
    1482:	00 13       	cpse	r16, r16
    1484:	91 04       	cpc	r9, r1
    1486:	00 00       	nop
    1488:	01 13       	cpse	r16, r17
    148a:	18 03       	fmul	r17, r16
    148c:	00 00       	nop
    148e:	02 00       	.word	0x0002	; ????
    1490:	2b 4c       	sbci	r18, 0xCB	; 203
    1492:	10 00       	.word	0x0010	; ????
    1494:	00 17       	cp	r16, r16
    1496:	b1 05       	cpc	r27, r1
    1498:	00 00       	nop
    149a:	13 68       	ori	r17, 0x83	; 131
    149c:	3b 00       	.word	0x003b	; ????
    149e:	00 00       	nop
    14a0:	2b 75       	andi	r18, 0x5B	; 91
    14a2:	10 00       	.word	0x0010	; ????
    14a4:	00 7c       	andi	r16, 0xC0	; 192
    14a6:	07 02       	muls	r16, r23
    14a8:	87 00       	.word	0x0087	; ????
    14aa:	00 00       	nop
    14ac:	07 93       	lat	Z, r16
    14ae:	b7 10       	cpse	r11, r7
    14b0:	00 00       	nop
    14b2:	13 a6       	std	Z+43, r1	; 0x2b
    14b4:	0b 00       	.word	0x000b	; ????
    14b6:	00 00       	nop
    14b8:	13 42       	sbci	r17, 0x23	; 35
    14ba:	03 00       	.word	0x0003	; ????
    14bc:	00 01       	movw	r0, r0
    14be:	13 b8       	out	0x03, r1	; 3
    14c0:	11 00       	.word	0x0011	; ????
    14c2:	00 02       	muls	r16, r16
    14c4:	13 c9       	rjmp	.-3546   	; 0x6ec <L_3674+0x42>
    14c6:	0a 00       	.word	0x000a	; ????
    14c8:	00 03       	mulsu	r16, r16
    14ca:	13 40       	sbci	r17, 0x03	; 3
    14cc:	12 00       	.word	0x0012	; ????
    14ce:	00 04       	cpc	r0, r0
    14d0:	13 f8       	bld	r1, 3
    14d2:	01 00       	.word	0x0001	; ????
    14d4:	00 05       	cpc	r16, r0
    14d6:	00 17       	cp	r16, r16
    14d8:	48 07       	cpc	r20, r24
    14da:	00 00       	nop
    14dc:	07 9a       	sbi	0x00, 7	; 0
    14de:	85 10       	cpse	r8, r5
    14e0:	00 00       	nop
    14e2:	2b b7       	in	r18, 0x3b	; 59
    14e4:	10 00       	.word	0x0010	; ????
    14e6:	00 17       	cp	r16, r16
    14e8:	66 05       	cpc	r22, r6
    14ea:	00 00       	nop
    14ec:	14 1f       	adc	r17, r20
    14ee:	d2 10       	cpse	r13, r2
    14f0:	00 00       	nop
    14f2:	5d 66       	ori	r21, 0x6D	; 109
    14f4:	05 00       	.word	0x0005	; ????
    14f6:	00 07       	cpc	r16, r16
    14f8:	04 34       	cpi	r16, 0x44	; 68
    14fa:	00 00       	nop
    14fc:	00 14       	cp	r0, r0
    14fe:	10 64       	ori	r17, 0x40	; 64
    1500:	05 00       	.word	0x0005	; ????
    1502:	00 15       	cp	r16, r0
    1504:	11 00       	.word	0x0011	; ????
    1506:	00 01       	movw	r0, r0
    1508:	c7 0b       	sbc	r28, r23
    150a:	00 00       	nop
    150c:	f0 b0       	in	r15, 0x00	; 0
    150e:	ff 00       	.word	0x00ff	; ????
    1510:	01 c2       	rjmp	.+1026   	; 0x1914 <__data_load_end+0x9aa>
    1512:	07 00       	.word	0x0007	; ????
    1514:	00 f0       	brcs	.+0      	; 0x1516 <__data_load_end+0x5ac>
    1516:	b0 ff       	sbrs	r27, 0
    1518:	00 01       	movw	r0, r0
    151a:	dc 01       	movw	r26, r24
    151c:	00 00       	nop
    151e:	8c e0       	ldi	r24, 0x0C	; 12
    1520:	ff 00       	.word	0x00ff	; ????
    1522:	01 af       	std	Z+57, r16	; 0x39
    1524:	03 00       	.word	0x0003	; ????
    1526:	00 8c       	ldd	r0, Z+24	; 0x18
    1528:	e0 ff       	sbrs	r30, 0
    152a:	00 01       	movw	r0, r0
    152c:	0c 07       	cpc	r16, r28
    152e:	00 00       	nop
    1530:	ff ff       	.word	0xffff	; ????
    1532:	ff 00       	.word	0x00ff	; ????
    1534:	00 17       	cp	r16, r16
    1536:	09 14       	cp	r0, r9
    1538:	00 00       	nop
    153a:	14 60       	ori	r17, 0x04	; 4
    153c:	20 11       	cpse	r18, r0
    153e:	00 00       	nop
    1540:	5d 09       	sbc	r21, r13
    1542:	14 00       	.word	0x0014	; ????
    1544:	00 07       	cpc	r16, r16
    1546:	04 34       	cpi	r16, 0x44	; 68
    1548:	00 00       	nop
    154a:	00 14       	cp	r0, r0
    154c:	2f 07       	cpc	r18, r31
    154e:	14 00       	.word	0x0014	; ????
    1550:	00 ea       	ldi	r16, 0xA0	; 160
    1552:	11 00       	.word	0x0011	; ????
    1554:	00 01       	movw	r0, r0
    1556:	82 11       	cpse	r24, r2
    1558:	00 00       	nop
    155a:	29 93       	st	Y+, r18
    155c:	ff 00       	.word	0x00ff	; ????
    155e:	01 f2       	breq	.-128    	; 0x14e0 <__data_load_end+0x576>
    1560:	08 00       	.word	0x0008	; ????
    1562:	00 8f       	std	Z+24, r16	; 0x18
    1564:	c5 ff       	sbrs	r28, 5
    1566:	00 01       	movw	r0, r0
    1568:	69 0e       	add	r6, r25
    156a:	00 00       	nop
    156c:	aa d6       	rcall	.+3412   	; 0x22c2 <__TEXT_REGION_LENGTH__+0x2c2>
    156e:	ff 00       	.word	0x00ff	; ????
    1570:	01 fc       	sbrc	r0, 1
    1572:	0b 00       	.word	0x000b	; ????
    1574:	00 e0       	ldi	r16, 0x00	; 0
    1576:	f1 ff       	sbrs	r31, 1
    1578:	00 01       	movw	r0, r0
    157a:	01 0a       	sbc	r0, r17
    157c:	00 00       	nop
    157e:	f4 fa       	bst	r15, 4
    1580:	ff 00       	.word	0x00ff	; ????
    1582:	01 05       	cpc	r16, r1
    1584:	0e 00       	.word	0x000e	; ????
    1586:	00 fb       	bst	r16, 0
    1588:	ff ff       	.word	0xffff	; ????
    158a:	00 01       	movw	r0, r0
    158c:	94 12       	cpse	r9, r20
    158e:	00 00       	nop
    1590:	ff ff       	.word	0xffff	; ????
    1592:	ff 00       	.word	0x00ff	; ????
    1594:	01 a5       	ldd	r16, Z+41	; 0x29
    1596:	06 00       	.word	0x0006	; ????
    1598:	00 ff       	sbrs	r16, 0
    159a:	e2 c9       	rjmp	.-3132   	; 0x960 <__vector_11+0x38>
    159c:	00 01       	movw	r0, r0
    159e:	19 11       	cpse	r17, r9
    15a0:	00 00       	nop
    15a2:	ff 9c       	mul	r15, r15
    15a4:	40 00       	.word	0x0040	; ????
    15a6:	01 19       	sub	r16, r1
    15a8:	04 00       	.word	0x0004	; ????
    15aa:	00 e5       	ldi	r16, 0x50	; 80
    15ac:	f4 ff       	sbrs	r31, 4
    15ae:	00 01       	movw	r0, r0
    15b0:	db 05       	cpc	r29, r11
    15b2:	00 00       	nop
    15b4:	fa ff       	.word	0xfffa	; ????
    15b6:	f4 00       	.word	0x00f4	; ????
    15b8:	01 6d       	ori	r16, 0xD1	; 209
    15ba:	02 00       	.word	0x0002	; ????
    15bc:	00 ff       	sbrs	r16, 0
    15be:	eb d4       	rcall	.+2518   	; 0x1f96 <__data_load_end+0x102c>
    15c0:	00 01       	movw	r0, r0
    15c2:	1f 0c       	add	r1, r15
    15c4:	00 00       	nop
    15c6:	f2 f4       	brpl	.+60     	; 0x1604 <__data_load_end+0x69a>
    15c8:	ff 00       	.word	0x00ff	; ????
    15ca:	01 62       	ori	r16, 0x21	; 33
    15cc:	0b 00       	.word	0x000b	; ????
    15ce:	00 f7       	brcc	.-64     	; 0x1590 <__data_load_end+0x626>
    15d0:	ef ff       	.word	0xffef	; ????
    15d2:	00 01       	movw	r0, r0
    15d4:	6a 10       	cpse	r6, r10
    15d6:	00 00       	nop
    15d8:	ff 00       	.word	0x00ff	; ????
    15da:	a7 00       	.word	0x00a7	; ????
    15dc:	01 ef       	ldi	r16, 0xF1	; 241
    15de:	05 00       	.word	0x0005	; ????
    15e0:	00 ff       	sbrs	r16, 0
    15e2:	f7 d8       	rcall	.-3602   	; 0x7d2 <CPixelLEDController<(EOrder)10, 1, 4294967295ul>::show(CRGB const*, int, CRGB)+0x36>
    15e4:	00 01       	movw	r0, r0
    15e6:	7a 0d       	add	r23, r10
    15e8:	00 00       	nop
    15ea:	b2 d1       	rcall	.+868    	; 0x1950 <__data_load_end+0x9e6>
    15ec:	ff 00       	.word	0x00ff	; ????
    15ee:	01 3c       	cpi	r16, 0xC1	; 193
    15f0:	0c 00       	.word	0x000c	; ????
    15f2:	00 ff       	sbrs	r16, 0
    15f4:	fc f2       	brlt	.-66     	; 0x15b4 <__data_load_end+0x64a>
    15f6:	00 01       	movw	r0, r0
    15f8:	a4 01       	movw	r20, r8
    15fa:	00 00       	nop
    15fc:	4c b7       	in	r20, 0x3c	; 60
    15fe:	ff 00       	.word	0x00ff	; ????
    1600:	01 4c       	sbci	r16, 0xC1	; 193
    1602:	0d 00       	.word	0x000d	; ????
    1604:	00 ff       	sbrs	r16, 0
    1606:	ff ff       	.word	0xffff	; ????
    1608:	00 00       	nop
    160a:	17 41       	sbci	r17, 0x17	; 23
    160c:	06 00       	.word	0x0006	; ????
    160e:	00 0a       	sbc	r0, r16
    1610:	31 f5       	brne	.+76     	; 0x165e <__data_load_end+0x6f4>
    1612:	11 00       	.word	0x0011	; ????
    1614:	00 30       	cpi	r16, 0x00	; 0
    1616:	02 46       	sbci	r16, 0x62	; 98
    1618:	00 00       	nop
    161a:	00 50       	subi	r16, 0x00	; 0
    161c:	81 08       	sbc	r8, r1
    161e:	00 00       	nop
    1620:	15 92       	las	Z, r1
    1622:	01 3b       	cpi	r16, 0xB1	; 177
    1624:	00 00       	nop
    1626:	00 17       	cp	r16, r16
    1628:	98 0c       	add	r9, r8
    162a:	00 00       	nop
    162c:	0f 7f       	andi	r16, 0xFF	; 255
    162e:	b2 0a       	sbc	r11, r18
    1630:	00 00       	nop
    1632:	30 02       	muls	r19, r16
    1634:	04 09       	sbc	r16, r4
    1636:	00 00       	nop
    1638:	09 9b       	sbis	0x01, 1	; 1
    163a:	09 00       	.word	0x0009	; ????
    163c:	00 03       	mulsu	r16, r16
    163e:	26 12       	cpse	r2, r22
    1640:	00 00       	nop
    1642:	52 12       	cpse	r5, r18
    1644:	00 00       	nop
    1646:	07 f0       	brie	.+0      	; 0x1648 <__data_load_end+0x6de>
    1648:	0c 00       	.word	0x000c	; ????
    164a:	00 da       	rcall	.-3072   	; 0xa4c <__vector_16+0x90>
    164c:	0a 00       	.word	0x000a	; ????
    164e:	00 01       	movw	r0, r0
    1650:	06 d0       	rcall	.+12     	; 0x165e <__data_load_end+0x6f4>
    1652:	08 00       	.word	0x0008	; ????
    1654:	00 03       	mulsu	r16, r16
    1656:	77 12       	cpse	r7, r23
    1658:	12 00       	.word	0x0012	; ????
    165a:	00 06       	cpc	r0, r16
    165c:	39 10       	cpse	r3, r9
    165e:	00 00       	nop
    1660:	03 77       	andi	r16, 0x73	; 115
    1662:	b2 0a       	sbc	r11, r18
    1664:	00 00       	nop
    1666:	06 25       	eor	r16, r6
    1668:	02 00       	.word	0x0002	; ????
    166a:	00 03       	mulsu	r16, r16
    166c:	77 3b       	cpi	r23, 0xB7	; 183
    166e:	00 00       	nop
    1670:	00 00       	nop
    1672:	0b 02       	muls	r16, r27
    1674:	8e 00       	.word	0x008e	; ????
    1676:	00 00       	nop
    1678:	11 52       	subi	r17, 0x21	; 33
    167a:	12 00       	.word	0x0012	; ????
    167c:	00 09       	sbc	r16, r0
    167e:	e5 00       	.word	0x00e5	; ????
    1680:	00 00       	nop
    1682:	01 6b       	ori	r16, 0xB1	; 177
    1684:	12 00       	.word	0x0012	; ????
    1686:	00 76       	andi	r16, 0x60	; 96
    1688:	12 00       	.word	0x0012	; ????
    168a:	00 07       	cpc	r16, r16
    168c:	f0 0c       	add	r15, r0
    168e:	00 00       	nop
    1690:	58 12       	cpse	r5, r24
    1692:	00 00       	nop
    1694:	01 00       	.word	0x0001	; ????
    1696:	3d fc       	.word	0xfc3d	; ????
    1698:	00 00       	nop
    169a:	00 02       	muls	r16, r16
    169c:	ed 01       	movw	r28, r26
    169e:	86 12       	cpse	r8, r22
    16a0:	00 00       	nop
    16a2:	a7 12       	cpse	r10, r23
    16a4:	00 00       	nop
    16a6:	07 f0       	brie	.+0      	; 0x16a8 <__data_load_end+0x73e>
    16a8:	0c 00       	.word	0x000c	; ????
    16aa:	00 58       	subi	r16, 0x80	; 128
    16ac:	12 00       	.word	0x0012	; ????
    16ae:	00 01       	movw	r0, r0
    16b0:	06 23       	and	r16, r22
    16b2:	12 00       	.word	0x0012	; ????
    16b4:	00 02       	muls	r16, r16
    16b6:	ed 7c       	andi	r30, 0xCD	; 205
    16b8:	00 00       	nop
    16ba:	00 0a       	sbc	r0, r16
    16bc:	4f 09       	sbc	r20, r15
    16be:	00 00       	nop
    16c0:	02 ed       	ldi	r16, 0xD2	; 210
    16c2:	a7 12       	cpse	r10, r23
    16c4:	00 00       	nop
    16c6:	00 23       	and	r16, r16
    16c8:	01 02       	muls	r16, r17
    16ca:	5a 0a       	sbc	r5, r26
    16cc:	00 00       	nop
    16ce:	09 17       	cp	r16, r25
    16d0:	01 00       	.word	0x0001	; ????
    16d2:	00 01       	movw	r0, r0
    16d4:	bc 12       	cpse	r11, r28
    16d6:	00 00       	nop
    16d8:	dd 12       	cpse	r13, r29
    16da:	00 00       	nop
    16dc:	07 f0       	brie	.+0      	; 0x16de <__data_load_end+0x774>
    16de:	0c 00       	.word	0x000c	; ????
    16e0:	00 58       	subi	r16, 0x80	; 128
    16e2:	12 00       	.word	0x0012	; ????
    16e4:	00 01       	movw	r0, r0
    16e6:	06 23       	and	r16, r22
    16e8:	12 00       	.word	0x0012	; ????
    16ea:	00 02       	muls	r16, r16
    16ec:	ed 7c       	andi	r30, 0xCD	; 205
    16ee:	00 00       	nop
    16f0:	00 06       	cpc	r0, r16
    16f2:	4f 09       	sbc	r20, r15
    16f4:	00 00       	nop
    16f6:	02 ed       	ldi	r16, 0xD2	; 210
    16f8:	a7 12       	cpse	r10, r23
    16fa:	00 00       	nop
    16fc:	00 30       	cpi	r16, 0x00	; 0
    16fe:	02 2d       	mov	r16, r2
    1700:	0d 00       	.word	0x000d	; ????
    1702:	00 3e       	cpi	r16, 0xE0	; 224
    1704:	38 01       	movw	r6, r16
    1706:	00 00       	nop
    1708:	01 30       	cpi	r16, 0x01	; 1
    170a:	13 00       	.word	0x0013	; ????
    170c:	00 06       	cpc	r0, r16
    170e:	30 02       	muls	r19, r16
    1710:	00 00       	nop
    1712:	02 2a       	or	r0, r18
    1714:	1d 0e       	add	r1, r29
    1716:	00 00       	nop
    1718:	06 d0       	rcall	.+12     	; 0x1726 <__data_load_end+0x7bc>
    171a:	08 00       	.word	0x0008	; ????
    171c:	00 02       	muls	r16, r16
    171e:	2b c9       	rjmp	.-3498   	; 0x976 <__vector_11+0x4e>
    1720:	0a 00       	.word	0x000a	; ????
    1722:	00 06       	cpc	r0, r16
    1724:	e4 06       	cpc	r14, r20
    1726:	00 00       	nop
    1728:	02 2c       	mov	r0, r2
    172a:	b2 0a       	sbc	r11, r18
    172c:	00 00       	nop
    172e:	06 f3       	brts	.-64     	; 0x16f0 <__data_load_end+0x786>
    1730:	09 00       	.word	0x0009	; ????
    1732:	00 02       	muls	r16, r16
    1734:	2c b2       	in	r2, 0x1c	; 28
    1736:	0a 00       	.word	0x000a	; ????
    1738:	00 0a       	sbc	r0, r16
    173a:	22 06       	cpc	r2, r18
    173c:	00 00       	nop
    173e:	02 2d       	mov	r16, r2
    1740:	b2 0a       	sbc	r11, r18
    1742:	00 00       	nop
    1744:	0a 39       	cpi	r16, 0x9A	; 154
    1746:	10 00       	.word	0x0010	; ????
    1748:	00 02       	muls	r16, r16
    174a:	2e b2       	in	r2, 0x1e	; 30
    174c:	0a 00       	.word	0x000a	; ????
    174e:	00 00       	nop
    1750:	09 c1       	rjmp	.+530    	; 0x1964 <__data_load_end+0x9fa>
    1752:	09 00       	.word	0x0009	; ????
    1754:	00 03       	mulsu	r16, r16
    1756:	3e 13       	cpse	r19, r30
    1758:	00 00       	nop
    175a:	49 13       	cpse	r20, r25
    175c:	00 00       	nop
    175e:	07 f0       	brie	.+0      	; 0x1760 <__data_load_end+0x7f6>
    1760:	0c 00       	.word	0x000c	; ????
    1762:	00 da       	rcall	.-3072   	; 0xb64 <main+0x2>
    1764:	0a 00       	.word	0x000a	; ????
    1766:	00 01       	movw	r0, r0
    1768:	00 0b       	sbc	r16, r16
    176a:	02 df       	rcall	.-508    	; 0x1570 <__data_load_end+0x606>
    176c:	0a 00       	.word	0x000a	; ????
    176e:	00 11       	cpse	r16, r0
    1770:	49 13       	cpse	r20, r25
    1772:	00 00       	nop
    1774:	09 f9       	.word	0xf909	; ????
    1776:	0a 00       	.word	0x000a	; ????
    1778:	00 03       	mulsu	r16, r16
    177a:	62 13       	cpse	r22, r18
    177c:	00 00       	nop
    177e:	6d 13       	cpse	r22, r29
    1780:	00 00       	nop
    1782:	07 f0       	brie	.+0      	; 0x1784 <__data_load_end+0x81a>
    1784:	0c 00       	.word	0x000c	; ????
    1786:	00 4f       	sbci	r16, 0xF0	; 240
    1788:	13 00       	.word	0x0013	; ????
    178a:	00 01       	movw	r0, r0
    178c:	00 0b       	sbc	r16, r16
    178e:	02 01       	movw	r0, r4
    1790:	0c 00       	.word	0x000c	; ????
    1792:	00 11       	cpse	r16, r0
    1794:	6d 13       	cpse	r22, r29
    1796:	00 00       	nop
    1798:	3d 41       	sbci	r19, 0x1D	; 29
    179a:	0c 00       	.word	0x000c	; ????
    179c:	00 06       	cpc	r0, r16
    179e:	68 03       	fmul	r22, r16
    17a0:	88 13       	cpse	r24, r24
    17a2:	00 00       	nop
    17a4:	93 13       	cpse	r25, r19
    17a6:	00 00       	nop
    17a8:	07 f0       	brie	.+0      	; 0x17aa <__data_load_end+0x840>
    17aa:	0c 00       	.word	0x000c	; ????
    17ac:	00 73       	andi	r16, 0x30	; 48
    17ae:	13 00       	.word	0x0013	; ????
    17b0:	00 01       	movw	r0, r0
    17b2:	00 0b       	sbc	r16, r16
    17b4:	02 d4       	rcall	.+2052   	; 0x1fba <__data_load_end+0x1050>
    17b6:	0c 00       	.word	0x000c	; ????
    17b8:	00 11       	cpse	r16, r0
    17ba:	93 13       	cpse	r25, r19
    17bc:	00 00       	nop
    17be:	7d ee       	ldi	r23, 0xED	; 237
    17c0:	0c 00       	.word	0x000c	; ????
    17c2:	00 11       	cpse	r16, r0
    17c4:	fd 01       	movw	r30, r26
    17c6:	03 af       	std	Z+59, r16	; 0x3b
    17c8:	13 00       	.word	0x0013	; ????
    17ca:	00 ba       	out	0x10, r0	; 16
    17cc:	13 00       	.word	0x0013	; ????
    17ce:	00 07       	cpc	r16, r16
    17d0:	f0 0c       	add	r15, r0
    17d2:	00 00       	nop
    17d4:	99 13       	cpse	r25, r25
    17d6:	00 00       	nop
    17d8:	01 00       	.word	0x0001	; ????
    17da:	0b 02       	muls	r16, r27
    17dc:	01 0d       	add	r16, r1
    17de:	00 00       	nop
    17e0:	11 ba       	out	0x11, r1	; 17
    17e2:	13 00       	.word	0x0013	; ????
    17e4:	00 3d       	cpi	r16, 0xD0	; 208
    17e6:	1a 0d       	add	r17, r10
    17e8:	00 00       	nop
    17ea:	0d 82       	std	Y+5, r0	; 0x05
    17ec:	03 d5       	rcall	.+2566   	; 0x21f4 <__TEXT_REGION_LENGTH__+0x1f4>
    17ee:	13 00       	.word	0x0013	; ????
    17f0:	00 e0       	ldi	r16, 0x00	; 0
    17f2:	13 00       	.word	0x0013	; ????
    17f4:	00 07       	cpc	r16, r16
    17f6:	f0 0c       	add	r15, r0
    17f8:	00 00       	nop
    17fa:	c0 13       	cpse	r28, r16
    17fc:	00 00       	nop
    17fe:	01 00       	.word	0x0001	; ????
    1800:	30 02       	muls	r19, r16
    1802:	24 09       	sbc	r18, r4
    1804:	00 00       	nop
    1806:	3e 5d       	subi	r19, 0xDE	; 222
    1808:	01 00       	.word	0x0001	; ????
    180a:	00 03       	mulsu	r16, r16
    180c:	25 14       	cp	r2, r5
    180e:	00 00       	nop
    1810:	25 d0       	rcall	.+74     	; 0x185c <__data_load_end+0x8f2>
    1812:	08 00       	.word	0x0008	; ????
    1814:	00 0d       	add	r16, r0
    1816:	5f 01       	movw	r10, r30
    1818:	c9 0a       	sbc	r12, r25
    181a:	00 00       	nop
    181c:	25 e4       	ldi	r18, 0x45	; 69
    181e:	06 00       	.word	0x0006	; ????
    1820:	00 0d       	add	r16, r0
    1822:	5f 01       	movw	r10, r30
    1824:	b2 0a       	sbc	r11, r18
    1826:	00 00       	nop
    1828:	25 f3       	brhs	.-56     	; 0x17f2 <__data_load_end+0x888>
    182a:	09 00       	.word	0x0009	; ????
    182c:	00 0d       	add	r16, r0
    182e:	5f 01       	movw	r10, r30
    1830:	b2 0a       	sbc	r11, r18
    1832:	00 00       	nop
    1834:	49 63       	ori	r20, 0x39	; 57
    1836:	00 0d       	add	r16, r0
    1838:	60 01       	movw	r12, r0
    183a:	01 0d       	add	r16, r1
    183c:	00 00       	nop
    183e:	05 03       	mulsu	r16, r21
    1840:	ac 00       	.word	0x00ac	; ????
    1842:	80 00       	.word	0x0080	; ????
    1844:	00 1e       	adc	r0, r16
    1846:	b4 10       	cpse	r11, r4
    1848:	00 00       	nop
    184a:	07 b2       	in	r0, 0x17	; 23
    184c:	01 3d       	cpi	r16, 0xD1	; 209
    184e:	14 00       	.word	0x0014	; ????
    1850:	00 06       	cpc	r0, r16
    1852:	c3 02       	muls	r28, r19
    1854:	00 00       	nop
    1856:	07 b2       	in	r0, 0x17	; 23
    1858:	3b 00       	.word	0x003b	; ????
    185a:	00 00       	nop
    185c:	00 0b       	sbc	r16, r16
    185e:	02 e1       	ldi	r16, 0x12	; 18
    1860:	01 00       	.word	0x0001	; ????
    1862:	00 11       	cpse	r16, r0
    1864:	3d 14       	cp	r3, r13
    1866:	00 00       	nop
    1868:	09 ed       	ldi	r16, 0xD9	; 217
    186a:	01 00       	.word	0x0001	; ????
    186c:	00 01       	movw	r0, r0
    186e:	56 14       	cp	r5, r6
    1870:	00 00       	nop
    1872:	6c 14       	cp	r6, r12
    1874:	00 00       	nop
    1876:	07 f0       	brie	.+0      	; 0x1878 <__data_load_end+0x90e>
    1878:	0c 00       	.word	0x000c	; ????
    187a:	00 43       	sbci	r16, 0x30	; 48
    187c:	14 00       	.word	0x0014	; ????
    187e:	00 01       	movw	r0, r0
    1880:	06 fe       	sbrs	r0, 6
    1882:	08 00       	.word	0x0008	; ????
    1884:	00 0e       	add	r0, r16
    1886:	2d 3b       	cpi	r18, 0xBD	; 189
    1888:	00 00       	nop
    188a:	00 00       	nop
    188c:	0b 02       	muls	r16, r27
    188e:	72 14       	cp	r7, r2
    1890:	00 00       	nop
    1892:	7e 7d       	andi	r23, 0xDE	; 222
    1894:	14 00       	.word	0x0014	; ????
    1896:	00 02       	muls	r16, r16
    1898:	3b 00       	.word	0x003b	; ????
    189a:	00 00       	nop
    189c:	00 09       	sbc	r16, r0
    189e:	09 02       	muls	r16, r25
    18a0:	00 00       	nop
    18a2:	01 8b       	std	Z+17, r16	; 0x11
    18a4:	14 00       	.word	0x0014	; ????
    18a6:	00 a1       	ldd	r16, Z+32	; 0x20
    18a8:	14 00       	.word	0x0014	; ????
    18aa:	00 07       	cpc	r16, r16
    18ac:	f0 0c       	add	r15, r0
    18ae:	00 00       	nop
    18b0:	43 14       	cp	r4, r3
    18b2:	00 00       	nop
    18b4:	01 06       	cpc	r0, r17
    18b6:	ec 0f       	add	r30, r28
    18b8:	00 00       	nop
    18ba:	0e 3d       	cpi	r16, 0xDE	; 222
    18bc:	6c 14       	cp	r6, r12
    18be:	00 00       	nop
    18c0:	00 0b       	sbc	r16, r16
    18c2:	02 a7       	std	Z+42, r16	; 0x2a
    18c4:	14 00       	.word	0x0014	; ????
    18c6:	00 7f       	andi	r16, 0xF0	; 240
    18c8:	09 25       	eor	r16, r9
    18ca:	02 00       	.word	0x0002	; ????
    18cc:	00 01       	movw	r0, r0
    18ce:	b6 14       	cp	r11, r6
    18d0:	00 00       	nop
    18d2:	cc 14       	cp	r12, r12
    18d4:	00 00       	nop
    18d6:	07 f0       	brie	.+0      	; 0x18d8 <__data_load_end+0x96e>
    18d8:	0c 00       	.word	0x000c	; ????
    18da:	00 43       	sbci	r16, 0x30	; 48
    18dc:	14 00       	.word	0x0014	; ????
    18de:	00 01       	movw	r0, r0
    18e0:	06 ec       	ldi	r16, 0xC6	; 198
    18e2:	0f 00       	.word	0x000f	; ????
    18e4:	00 0e       	add	r0, r16
    18e6:	41 a1       	ldd	r20, Z+33	; 0x21
    18e8:	14 00       	.word	0x0014	; ????
    18ea:	00 00       	nop
    18ec:	09 41       	sbci	r16, 0x19	; 25
    18ee:	02 00       	.word	0x0002	; ????
    18f0:	00 01       	movw	r0, r0
    18f2:	da 14       	cp	r13, r10
    18f4:	00 00       	nop
    18f6:	e5 14       	cp	r14, r5
    18f8:	00 00       	nop
    18fa:	07 f0       	brie	.+0      	; 0x18fc <__data_load_end+0x992>
    18fc:	0c 00       	.word	0x000c	; ????
    18fe:	00 43       	sbci	r16, 0x30	; 48
    1900:	14 00       	.word	0x0014	; ????
    1902:	00 01       	movw	r0, r0
    1904:	00 09       	sbc	r16, r0
    1906:	5c 02       	muls	r21, r28
    1908:	00 00       	nop
    190a:	01 f3       	breq	.-64     	; 0x18cc <__data_load_end+0x962>
    190c:	14 00       	.word	0x0014	; ????
    190e:	00 fe       	sbrs	r0, 0
    1910:	14 00       	.word	0x0014	; ????
    1912:	00 07       	cpc	r16, r16
    1914:	f0 0c       	add	r15, r0
    1916:	00 00       	nop
    1918:	43 14       	cp	r4, r3
    191a:	00 00       	nop
    191c:	01 00       	.word	0x0001	; ????
    191e:	1e 51       	subi	r17, 0x1E	; 30
    1920:	06 00       	.word	0x0006	; ????
    1922:	00 05       	cpc	r16, r0
    1924:	fe 01       	movw	r30, r28
    1926:	16 15       	cp	r17, r6
    1928:	00 00       	nop
    192a:	06 1c       	adc	r0, r6
    192c:	06 00       	.word	0x0006	; ????
    192e:	00 05       	cpc	r16, r0
    1930:	fe b2       	in	r15, 0x1e	; 30
    1932:	0a 00       	.word	0x000a	; ????
    1934:	00 00       	nop
    1936:	09 7e       	andi	r16, 0xE9	; 233
    1938:	01 00       	.word	0x0001	; ????
    193a:	00 03       	mulsu	r16, r16
    193c:	24 15       	cp	r18, r4
    193e:	00 00       	nop
    1940:	2f 15       	cp	r18, r15
    1942:	00 00       	nop
    1944:	07 f0       	brie	.+0      	; 0x1946 <__data_load_end+0x9dc>
    1946:	0c 00       	.word	0x000c	; ????
    1948:	00 58       	subi	r16, 0x80	; 128
    194a:	12 00       	.word	0x0012	; ????
    194c:	00 01       	movw	r0, r0
    194e:	00 09       	sbc	r16, r0
    1950:	77 02       	muls	r23, r23
    1952:	00 00       	nop
    1954:	01 3d       	cpi	r16, 0xD1	; 209
    1956:	15 00       	.word	0x0015	; ????
    1958:	00 53       	subi	r16, 0x30	; 48
    195a:	15 00       	.word	0x0015	; ????
    195c:	00 07       	cpc	r16, r16
    195e:	f0 0c       	add	r15, r0
    1960:	00 00       	nop
    1962:	43 14       	cp	r4, r3
    1964:	00 00       	nop
    1966:	01 06       	cpc	r0, r17
    1968:	d0 08       	sbc	r13, r0
    196a:	00 00       	nop
    196c:	0e 31       	cpi	r16, 0x1E	; 30
    196e:	3b 00       	.word	0x003b	; ????
    1970:	00 00       	nop
    1972:	00 3d       	cpi	r16, 0xD0	; 208
    1974:	96 01       	movw	r18, r12
    1976:	00 00       	nop
    1978:	02 dd       	rcall	.-1532   	; 0x137e <__data_load_end+0x414>
    197a:	01 63       	ori	r16, 0x31	; 49
    197c:	15 00       	.word	0x0015	; ????
    197e:	00 86       	std	Z+8, r0	; 0x08
    1980:	15 00       	.word	0x0015	; ????
    1982:	00 07       	cpc	r16, r16
    1984:	f0 0c       	add	r15, r0
    1986:	00 00       	nop
    1988:	58 12       	cpse	r5, r24
    198a:	00 00       	nop
    198c:	01 0a       	sbc	r0, r17
    198e:	28 08       	sbc	r2, r8
    1990:	00 00       	nop
    1992:	02 dd       	rcall	.-1532   	; 0x1398 <__data_load_end+0x42e>
    1994:	b2 0a       	sbc	r11, r18
    1996:	00 00       	nop
    1998:	10 0d       	add	r17, r0
    199a:	6e 6f       	ori	r22, 0xFE	; 254
    199c:	77 00       	.word	0x0077	; ????
    199e:	02 e2       	ldi	r16, 0x22	; 34
    19a0:	29 00       	.word	0x0029	; ????
    19a2:	00 00       	nop
    19a4:	00 00       	nop
    19a6:	09 ac       	ldd	r0, Y+57	; 0x39
    19a8:	01 00       	.word	0x0001	; ????
    19aa:	00 01       	movw	r0, r0
    19ac:	94 15       	cp	r25, r4
    19ae:	00 00       	nop
    19b0:	cc 15       	cp	r28, r12
    19b2:	00 00       	nop
    19b4:	07 f0       	brie	.+0      	; 0x19b6 <__data_load_end+0xa4c>
    19b6:	0c 00       	.word	0x000c	; ????
    19b8:	00 58       	subi	r16, 0x80	; 128
    19ba:	12 00       	.word	0x0012	; ????
    19bc:	00 01       	movw	r0, r0
    19be:	06 28       	or	r0, r6
    19c0:	08 00       	.word	0x0008	; ????
    19c2:	00 02       	muls	r16, r16
    19c4:	dd b2       	in	r13, 0x1d	; 29
    19c6:	0a 00       	.word	0x000a	; ????
    19c8:	00 80       	ld	r0, Z
    19ca:	01 62       	ori	r16, 0x21	; 33
    19cc:	72 00       	.word	0x0072	; ????
    19ce:	02 de       	rcall	.-1020   	; 0x15d4 <__data_load_end+0x66a>
    19d0:	b2 0a       	sbc	r11, r18
    19d2:	00 00       	nop
    19d4:	05 03       	mulsu	r16, r21
    19d6:	0a 02       	muls	r16, r26
    19d8:	80 00       	.word	0x0080	; ????
    19da:	0c 19       	sub	r16, r12
    19dc:	0a 00       	.word	0x000a	; ????
    19de:	00 02       	muls	r16, r16
    19e0:	df 29       	or	r29, r15
    19e2:	00 00       	nop
    19e4:	00 05       	cpc	r16, r0
    19e6:	03 06       	cpc	r0, r19
    19e8:	02 80       	ldd	r0, Z+2	; 0x02
    19ea:	00 00       	nop
    19ec:	09 c8       	rjmp	.-4078   	; 0xa00 <__vector_16+0x44>
    19ee:	01 00       	.word	0x0001	; ????
    19f0:	00 01       	movw	r0, r0
    19f2:	da 15       	cp	r29, r10
    19f4:	00 00       	nop
    19f6:	06 16       	cp	r0, r22
    19f8:	00 00       	nop
    19fa:	07 f0       	brie	.+0      	; 0x19fc <__data_load_end+0xa92>
    19fc:	0c 00       	.word	0x000c	; ????
    19fe:	00 58       	subi	r16, 0x80	; 128
    1a00:	12 00       	.word	0x0012	; ????
    1a02:	00 01       	movw	r0, r0
    1a04:	06 a3       	std	Z+38, r16	; 0x26
    1a06:	0a 00       	.word	0x000a	; ????
    1a08:	00 02       	muls	r16, r16
    1a0a:	36 3b       	cpi	r19, 0xB6	; 182
    1a0c:	00 00       	nop
    1a0e:	00 0a       	sbc	r0, r16
    1a10:	ee 0a       	sbc	r14, r30
    1a12:	00 00       	nop
    1a14:	02 40       	sbci	r16, 0x02	; 2
    1a16:	1d 0e       	add	r1, r29
    1a18:	00 00       	nop
    1a1a:	10 0d       	add	r17, r0
    1a1c:	64 00       	.word	0x0064	; ????
    1a1e:	02 42       	sbci	r16, 0x22	; 34
    1a20:	3b 00       	.word	0x003b	; ????
    1a22:	00 00       	nop
    1a24:	00 00       	nop
    1a26:	81 01       	movw	r16, r2
    1a28:	43 09       	sbc	r20, r3
    1a2a:	00 00       	nop
    1a2c:	01 60       	ori	r16, 0x01	; 1
    1a2e:	01 34       	cpi	r16, 0x41	; 65
    1a30:	00 00       	nop
    1a32:	00 70       	andi	r16, 0x00	; 0
    1a34:	00 00       	nop
    1a36:	00 bc       	out	0x20, r0	; 32
    1a38:	00 00       	nop
    1a3a:	00 03       	mulsu	r16, r16
    1a3c:	92 20       	and	r9, r2
    1a3e:	02 01       	movw	r0, r4
    1a40:	4f 16       	cp	r4, r31
    1a42:	00 00       	nop
    1a44:	26 6d       	ori	r18, 0xD6	; 214
    1a46:	00 01       	movw	r0, r0
    1a48:	67 01       	movw	r12, r14
    1a4a:	34 00       	.word	0x0034	; ????
    1a4c:	00 00       	nop
    1a4e:	00 00       	nop
    1a50:	00 00       	nop
    1a52:	49 74       	andi	r20, 0x49	; 73
    1a54:	00 01       	movw	r0, r0
    1a56:	68 01       	movw	r12, r16
    1a58:	3b 00       	.word	0x003b	; ????
    1a5a:	00 00       	nop
    1a5c:	01 62       	ori	r16, 0x21	; 33
    1a5e:	3f 26       	eor	r3, r31
    1a60:	11 00       	.word	0x0011	; ????
    1a62:	00 01       	movw	r0, r0
    1a64:	68 01       	movw	r12, r16
    1a66:	3b 00       	.word	0x003b	; ????
    1a68:	00 00       	nop
    1a6a:	1e 00       	.word	0x001e	; ????
    1a6c:	00 00       	nop
    1a6e:	00 09       	sbc	r16, r0
    1a70:	a4 0d       	add	r26, r4
    1a72:	00 00       	nop
    1a74:	03 5d       	subi	r16, 0xD3	; 211
    1a76:	16 00       	.word	0x0016	; ????
    1a78:	00 73       	andi	r16, 0x30	; 48
    1a7a:	16 00       	.word	0x0016	; ????
    1a7c:	00 07       	cpc	r16, r16
    1a7e:	f0 0c       	add	r15, r0
    1a80:	00 00       	nop
    1a82:	23 0e       	add	r2, r19
    1a84:	00 00       	nop
    1a86:	01 06       	cpc	r0, r17
    1a88:	25 02       	muls	r18, r21
    1a8a:	00 00       	nop
    1a8c:	03 7e       	andi	r16, 0xE3	; 227
    1a8e:	3b 00       	.word	0x003b	; ????
    1a90:	00 00       	nop
    1a92:	00 09       	sbc	r16, r0
    1a94:	d8 09       	sbc	r29, r8
    1a96:	00 00       	nop
    1a98:	03 81       	ldd	r16, Z+3	; 0x03
    1a9a:	16 00       	.word	0x0016	; ????
    1a9c:	00 97       	sbiw	r24, 0x00	; 0
    1a9e:	16 00       	.word	0x0016	; ????
    1aa0:	00 07       	cpc	r16, r16
    1aa2:	f0 0c       	add	r15, r0
    1aa4:	00 00       	nop
    1aa6:	da 0a       	sbc	r13, r26
    1aa8:	00 00       	nop
    1aaa:	01 06       	cpc	r0, r17
    1aac:	a3 0a       	sbc	r10, r19
    1aae:	00 00       	nop
    1ab0:	03 d8       	rcall	.-4090   	; 0xab8 <__vector_16+0xfc>
    1ab2:	3b 00       	.word	0x003b	; ????
    1ab4:	00 00       	nop
    1ab6:	00 3e       	cpi	r16, 0xE0	; 224
    1ab8:	f8 09       	sbc	r31, r8
    1aba:	00 00       	nop
    1abc:	03 fc       	sbrc	r0, 3
    1abe:	16 00       	.word	0x0016	; ????
    1ac0:	00 06       	cpc	r0, r16
    1ac2:	a3 0a       	sbc	r10, r19
    1ac4:	00 00       	nop
    1ac6:	03 e1       	ldi	r16, 0x13	; 19
    1ac8:	3b 00       	.word	0x003b	; ????
    1aca:	00 00       	nop
    1acc:	06 d8       	rcall	.-4084   	; 0xada <__vector_16+0x11e>
    1ace:	02 00       	.word	0x0002	; ????
    1ad0:	00 03       	mulsu	r16, r16
    1ad2:	e1 12       	cpse	r14, r17
    1ad4:	12 00       	.word	0x0012	; ????
    1ad6:	00 06       	cpc	r0, r16
    1ad8:	7e 07       	cpc	r23, r30
    1ada:	00 00       	nop
    1adc:	03 e1       	ldi	r16, 0x13	; 19
    1ade:	12 12       	cpse	r1, r18
    1ae0:	00 00       	nop
    1ae2:	0d 61       	ori	r16, 0x1D	; 29
    1ae4:	64 6a       	ori	r22, 0xA4	; 164
    1ae6:	00 03       	mulsu	r16, r16
    1ae8:	e5 90       	lpm	r14, Z+
    1aea:	02 00       	.word	0x0002	; ????
    1aec:	00 10       	cpse	r0, r0
    1aee:	0d 69       	ori	r16, 0x9D	; 157
    1af0:	00 03       	mulsu	r16, r16
    1af2:	e8 3b       	cpi	r30, 0xB8	; 184
    1af4:	00 00       	nop
    1af6:	00 10       	cpse	r0, r0
    1af8:	0d 63       	ori	r16, 0x3D	; 61
    1afa:	63 00       	.word	0x0063	; ????
    1afc:	03 e9       	ldi	r16, 0x93	; 147
    1afe:	3b 00       	.word	0x003b	; ????
    1b00:	00 00       	nop
    1b02:	0d 63       	ori	r16, 0x3D	; 61
    1b04:	74 00       	.word	0x0074	; ????
    1b06:	03 ea       	ldi	r16, 0xA3	; 163
    1b08:	3b 00       	.word	0x003b	; ????
    1b0a:	00 00       	nop
    1b0c:	10 0a       	sbc	r1, r16
    1b0e:	26 0e       	add	r2, r22
    1b10:	00 00       	nop
    1b12:	03 ec       	ldi	r16, 0xC3	; 195
    1b14:	29 00       	.word	0x0029	; ????
    1b16:	00 00       	nop
    1b18:	00 00       	nop
    1b1a:	00 00       	nop
    1b1c:	82 01       	movw	r16, r4
    1b1e:	38 0d       	add	r19, r8
    1b20:	00 00       	nop
    1b22:	01 52       	subi	r16, 0x21	; 33
    1b24:	01 34       	cpi	r16, 0x41	; 65
    1b26:	00 00       	nop
    1b28:	00 01       	movw	r0, r0
    1b2a:	25 17       	cp	r18, r21
    1b2c:	00 00       	nop
    1b2e:	15 6d       	ori	r17, 0xD5	; 213
    1b30:	00 01       	movw	r0, r0
    1b32:	54 01       	movw	r10, r8
    1b34:	34 00       	.word	0x0034	; ????
    1b36:	00 00       	nop
    1b38:	1d 26       	eor	r1, r29
    1b3a:	11 00       	.word	0x0011	; ????
    1b3c:	00 01       	movw	r0, r0
    1b3e:	55 01       	movw	r10, r10
    1b40:	3b 00       	.word	0x003b	; ????
    1b42:	00 00       	nop
    1b44:	00 83       	st	Z, r16
    1b46:	01 cc       	rjmp	.-2046   	; 0x134a <__data_load_end+0x3e0>
    1b48:	15 00       	.word	0x0015	; ????
    1b4a:	00 bc       	out	0x20, r0	; 32
    1b4c:	00 00       	nop
    1b4e:	00 04       	cpc	r0, r0
    1b50:	03 00       	.word	0x0003	; ????
    1b52:	00 3d       	cpi	r16, 0xD0	; 208
    1b54:	00 00       	nop
    1b56:	00 01       	movw	r0, r0
    1b58:	92 19       	sub	r25, r2
    1b5a:	00 00       	nop
    1b5c:	04 e4       	ldi	r16, 0x44	; 68
    1b5e:	15 00       	.word	0x0015	; ????
    1b60:	00 48       	sbci	r16, 0x80	; 128
    1b62:	01 00       	.word	0x0001	; ????
    1b64:	00 05       	cpc	r16, r0
    1b66:	ef 15       	cp	r30, r15
    1b68:	00 00       	nop
    1b6a:	71 01       	movw	r14, r2
    1b6c:	00 00       	nop
    1b6e:	40 da       	rcall	.-2944   	; 0xff0 <__data_load_end+0x86>
    1b70:	15 00       	.word	0x0015	; ????
    1b72:	00 06       	cpc	r0, r16
    1b74:	03 0c       	add	r0, r3
    1b76:	02 80       	ldd	r0, Z+2	; 0x02
    1b78:	00 9f       	mul	r16, r16
    1b7a:	27 92       	lat	Z, r2
    1b7c:	19 00       	.word	0x0019	; ????
    1b7e:	00 68       	ori	r16, 0x80	; 128
    1b80:	01 00       	.word	0x0001	; ????
    1b82:	00 70       	andi	r16, 0x00	; 0
    1b84:	01 00       	.word	0x0001	; ????
    1b86:	00 02       	muls	r16, r16
    1b88:	40 5e       	subi	r20, 0xE0	; 224
    1b8a:	fa 15       	cp	r31, r10
    1b8c:	00 00       	nop
    1b8e:	00 00       	nop
    1b90:	00 00       	nop
    1b92:	c2 18       	sub	r12, r2
    1b94:	00 00       	nop
    1b96:	16 fb       	bst	r17, 6
    1b98:	15 00       	.word	0x0015	; ????
    1b9a:	00 31       	cpi	r16, 0x10	; 16
    1b9c:	4f 16       	cp	r4, r31
    1b9e:	00 00       	nop
    1ba0:	70 01       	movw	r14, r0
    1ba2:	00 00       	nop
    1ba4:	18 00       	.word	0x0018	; ????
    1ba6:	00 00       	nop
    1ba8:	02 44       	sbci	r16, 0x42	; 66
    1baa:	89 18       	sub	r8, r9
    1bac:	00 00       	nop
    1bae:	04 67       	ori	r16, 0x74	; 116
    1bb0:	16 00       	.word	0x0016	; ????
    1bb2:	00 99       	sbic	0x00, 0	; 0
    1bb4:	01 00       	.word	0x0001	; ????
    1bb6:	00 04       	cpc	r0, r0
    1bb8:	5d 16       	cp	r5, r29
    1bba:	00 00       	nop
    1bbc:	ac 01       	movw	r20, r24
    1bbe:	00 00       	nop
    1bc0:	31 73       	andi	r19, 0x31	; 49
    1bc2:	16 00       	.word	0x0016	; ????
    1bc4:	00 70       	andi	r16, 0x00	; 0
    1bc6:	01 00       	.word	0x0001	; ????
    1bc8:	00 30       	cpi	r16, 0x00	; 0
    1bca:	00 00       	nop
    1bcc:	00 03       	mulsu	r16, r16
    1bce:	7f 65       	ori	r23, 0x5F	; 95
    1bd0:	18 00       	.word	0x0018	; ????
    1bd2:	00 04       	cpc	r0, r0
    1bd4:	8b 16       	cp	r8, r27
    1bd6:	00 00       	nop
    1bd8:	c4 01       	movw	r24, r8
    1bda:	00 00       	nop
    1bdc:	04 81       	ldd	r16, Z+4	; 0x04
    1bde:	16 00       	.word	0x0016	; ????
    1be0:	00 d7       	rcall	.+3584   	; 0x29e2 <__TEXT_REGION_LENGTH__+0x9e2>
    1be2:	01 00       	.word	0x0001	; ????
    1be4:	00 35       	cpi	r16, 0x50	; 80
    1be6:	97 16       	cp	r9, r23
    1be8:	00 00       	nop
    1bea:	70 01       	movw	r14, r0
    1bec:	00 00       	nop
    1bee:	30 00       	.word	0x0030	; ????
    1bf0:	00 00       	nop
    1bf2:	03 d9       	rcall	.-3578   	; 0xdfa <main+0x298>
    1bf4:	04 b7       	in	r16, 0x34	; 52
    1bf6:	16 00       	.word	0x0016	; ????
    1bf8:	00 ef       	ldi	r16, 0xF0	; 240
    1bfa:	01 00       	.word	0x0001	; ????
    1bfc:	00 04       	cpc	r0, r0
    1bfe:	ac 16       	cp	r10, r28
    1c00:	00 00       	nop
    1c02:	04 02       	muls	r16, r20
    1c04:	00 00       	nop
    1c06:	04 a1       	ldd	r16, Z+36	; 0x24
    1c08:	16 00       	.word	0x0016	; ????
    1c0a:	00 c4       	rjmp	.+2048   	; 0x240c <__TEXT_REGION_LENGTH__+0x40c>
    1c0c:	01 00       	.word	0x0001	; ????
    1c0e:	00 1f       	adc	r16, r16
    1c10:	30 00       	.word	0x0030	; ????
    1c12:	00 00       	nop
    1c14:	5f c2       	rjmp	.+1214   	; 0x20d4 <__TEXT_REGION_LENGTH__+0xd4>
    1c16:	16 00       	.word	0x0016	; ????
    1c18:	00 02       	muls	r16, r16
    1c1a:	8c 01       	movw	r16, r24
    1c1c:	5e cd       	rjmp	.-1348   	; 0x16da <__data_load_end+0x770>
    1c1e:	16 00       	.word	0x0016	; ????
    1c20:	00 48       	sbci	r16, 0x80	; 128
    1c22:	00 00       	nop
    1c24:	00 3e       	cpi	r16, 0xE0	; 224
    1c26:	18 00       	.word	0x0018	; ????
    1c28:	00 05       	cpc	r16, r0
    1c2a:	ce 16       	cp	r12, r30
    1c2c:	00 00       	nop
    1c2e:	36 02       	muls	r19, r22
    1c30:	00 00       	nop
    1c32:	20 d7       	rcall	.+3648   	; 0x2a74 <__TEXT_REGION_LENGTH__+0xa74>
    1c34:	16 00       	.word	0x0016	; ????
    1c36:	00 60       	ori	r16, 0x00	; 0
    1c38:	00 00       	nop
    1c3a:	00 05       	cpc	r16, r0
    1c3c:	d8 16       	cp	r13, r24
    1c3e:	00 00       	nop
    1c40:	61 02       	muls	r22, r17
    1c42:	00 00       	nop
    1c44:	05 e2       	ldi	r16, 0x25	; 37
    1c46:	16 00       	.word	0x0016	; ????
    1c48:	00 80       	ld	r0, Z
    1c4a:	02 00       	.word	0x0002	; ????
    1c4c:	00 20       	and	r0, r0
    1c4e:	ec 16       	cp	r14, r28
    1c50:	00 00       	nop
    1c52:	78 00       	.word	0x0078	; ????
    1c54:	00 00       	nop
    1c56:	16 ed       	ldi	r17, 0xD6	; 214
    1c58:	16 00       	.word	0x0016	; ????
    1c5a:	00 00       	nop
    1c5c:	00 00       	nop
    1c5e:	12 98       	cbi	0x02, 2	; 2
    1c60:	19 00       	.word	0x0019	; ????
    1c62:	00 a4       	ldd	r0, Z+40	; 0x28
    1c64:	01 00       	.word	0x0001	; ????
    1c66:	00 aa       	std	Z+48, r0	; 0x30
    1c68:	01 00       	.word	0x0001	; ????
    1c6a:	00 03       	mulsu	r16, r16
    1c6c:	e5 14       	cp	r14, r5
    1c6e:	99 02       	muls	r25, r25
    1c70:	00 00       	nop
    1c72:	14 99       	sbic	0x02, 4	; 2
    1c74:	02 00       	.word	0x0002	; ????
    1c76:	00 14       	cp	r0, r0
    1c78:	99 02       	muls	r25, r25
    1c7a:	00 00       	nop
    1c7c:	14 ad       	ldd	r17, Z+60	; 0x3c
    1c7e:	02 00       	.word	0x0002	; ????
    1c80:	00 00       	nop
    1c82:	00 00       	nop
    1c84:	00 84       	ldd	r0, Z+8	; 0x08
    1c86:	01 24       	eor	r0, r1
    1c88:	02 00       	.word	0x0002	; ????
    1c8a:	00 02       	muls	r16, r16
    1c8c:	78 00       	.word	0x0078	; ????
    1c8e:	19 06       	cpc	r1, r25
    1c90:	68 93       	.word	0x9368	; ????
    1c92:	01 69       	ori	r16, 0x91	; 145
    1c94:	93 01       	movw	r18, r6
    1c96:	02 7e       	andi	r16, 0xE2	; 226
    1c98:	00 19       	sub	r16, r0
    1c9a:	09 60       	ori	r16, 0x09	; 9
    1c9c:	93 01       	movw	r18, r6
    1c9e:	61 93       	st	Z+, r22
    1ca0:	01 62       	ori	r16, 0x21	; 33
    1ca2:	93 01       	movw	r18, r6
    1ca4:	02 80       	ldd	r0, Z+2	; 0x02
    1ca6:	00 00       	nop
    1ca8:	00 0e       	add	r0, r16
    1caa:	9e 19       	sub	r25, r14
    1cac:	00 00       	nop
    1cae:	96 01       	movw	r18, r12
    1cb0:	00 00       	nop
    1cb2:	9a 01       	movw	r18, r20
    1cb4:	00 00       	nop
    1cb6:	02 43       	sbci	r16, 0x32	; 50
    1cb8:	a7 18       	sub	r10, r7
    1cba:	00 00       	nop
    1cbc:	14 c2       	rjmp	.+1064   	; 0x20e6 <__TEXT_REGION_LENGTH__+0xe6>
    1cbe:	02 00       	.word	0x0002	; ????
    1cc0:	00 14       	cp	r0, r0
    1cc2:	d6 02       	muls	r29, r22
    1cc4:	00 00       	nop
    1cc6:	00 12       	cpse	r0, r16
    1cc8:	9e 19       	sub	r25, r14
    1cca:	00 00       	nop
    1ccc:	24 02       	muls	r18, r20
    1cce:	00 00       	nop
    1cd0:	34 02       	muls	r19, r20
    1cd2:	00 00       	nop
    1cd4:	02 45       	sbci	r16, 0x52	; 82
    1cd6:	14 ee       	ldi	r17, 0xE4	; 228
    1cd8:	02 00       	.word	0x0002	; ????
    1cda:	00 14       	cp	r0, r0
    1cdc:	01 03       	mulsu	r16, r17
    1cde:	00 00       	nop
    1ce0:	00 00       	nop
    1ce2:	31 86       	std	Z+9, r3	; 0x09
    1ce4:	15 00       	.word	0x0015	; ????
    1ce6:	00 34       	cpi	r16, 0x40	; 64
    1ce8:	02 00       	.word	0x0002	; ????
    1cea:	00 90 00 00 	lds	r0, 0x0000	; 0x800000 <__EEPROM_REGION_LENGTH__+0x7f0000>
    1cee:	00 02       	muls	r16, r16
    1cf0:	48 73       	andi	r20, 0x38	; 56
    1cf2:	19 00       	.word	0x0019	; ????
    1cf4:	00 08       	sbc	r0, r0
    1cf6:	94 15       	cp	r25, r4
    1cf8:	00 00       	nop
    1cfa:	04 9e       	mul	r0, r20
    1cfc:	15 00       	.word	0x0015	; ????
    1cfe:	00 19       	sub	r16, r0
    1d00:	03 00       	.word	0x0003	; ????
    1d02:	00 1f       	adc	r16, r16
    1d04:	90 00       	.word	0x0090	; ????
    1d06:	00 00       	nop
    1d08:	20 53       	subi	r18, 0x30	; 48
    1d0a:	15 00       	.word	0x0015	; ????
    1d0c:	00 a8       	ldd	r0, Z+48	; 0x30
    1d0e:	00 00       	nop
    1d10:	00 08       	sbc	r0, r0
    1d12:	63 15       	cp	r22, r3
    1d14:	00 00       	nop
    1d16:	1f a8       	ldd	r1, Y+55	; 0x37
    1d18:	00 00       	nop
    1d1a:	00 16       	cp	r0, r16
    1d1c:	6d 15       	cp	r22, r13
    1d1e:	00 00       	nop
    1d20:	20 78       	andi	r18, 0x80	; 128
    1d22:	15 00       	.word	0x0015	; ????
    1d24:	00 a8       	ldd	r0, Z+48	; 0x30
    1d26:	00 00       	nop
    1d28:	00 05       	cpc	r16, r0
    1d2a:	79 15       	cp	r23, r9
    1d2c:	00 00       	nop
    1d2e:	2d 03       	fmul	r18, r21
    1d30:	00 00       	nop
    1d32:	0e fc       	.word	0xfc0e	; ????
    1d34:	16 00       	.word	0x0016	; ????
    1d36:	00 50       	subi	r16, 0x00	; 0
    1d38:	02 00       	.word	0x0002	; ????
    1d3a:	00 66       	ori	r16, 0x60	; 96
    1d3c:	02 00       	.word	0x0002	; ????
    1d3e:	00 02       	muls	r16, r16
    1d40:	e2 42       	sbci	r30, 0x22	; 34
    1d42:	19 00       	.word	0x0019	; ????
    1d44:	00 18       	sub	r0, r0
    1d46:	50 02       	muls	r21, r16
    1d48:	00 00       	nop
    1d4a:	66 02       	muls	r22, r22
    1d4c:	00 00       	nop
    1d4e:	05 0e       	add	r0, r21
    1d50:	17 00       	.word	0x0017	; ????
    1d52:	00 4b       	sbci	r16, 0xB0	; 176
    1d54:	03 00       	.word	0x0003	; ????
    1d56:	00 05       	cpc	r16, r0
    1d58:	18 17       	cp	r17, r24
    1d5a:	00 00       	nop
    1d5c:	69 03       	fmul	r22, r17
    1d5e:	00 00       	nop
    1d60:	00 00       	nop
    1d62:	12 fc       	sbrc	r1, 2
    1d64:	16 00       	.word	0x0016	; ????
    1d66:	00 b4       	in	r0, 0x20	; 32
    1d68:	02 00       	.word	0x0002	; ????
    1d6a:	00 ca       	rjmp	.-3072   	; 0x116c <__data_load_end+0x202>
    1d6c:	02 00       	.word	0x0002	; ????
    1d6e:	00 02       	muls	r16, r16
    1d70:	e9 18       	sub	r14, r9
    1d72:	b4 02       	muls	r27, r20
    1d74:	00 00       	nop
    1d76:	ca 02       	muls	r28, r26
    1d78:	00 00       	nop
    1d7a:	05 0e       	add	r0, r21
    1d7c:	17 00       	.word	0x0017	; ????
    1d7e:	00 7c       	andi	r16, 0xC0	; 192
    1d80:	03 00       	.word	0x0003	; ????
    1d82:	00 05       	cpc	r16, r0
    1d84:	18 17       	cp	r17, r24
    1d86:	00 00       	nop
    1d88:	9a 03       	fmulsu	r17, r18
	...
    1d92:	00 28       	or	r0, r0
    1d94:	02 01       	movw	r0, r4
    1d96:	00 00       	nop
    1d98:	06 16       	cp	r0, r22
    1d9a:	00 00       	nop
    1d9c:	28 36       	cpi	r18, 0x68	; 104
    1d9e:	01 00       	.word	0x0001	; ????
    1da0:	00 06       	cpc	r0, r16
    1da2:	16 00       	.word	0x0016	; ????
    1da4:	00 41       	sbci	r16, 0x10	; 16
    1da6:	66 01       	movw	r12, r12
    1da8:	00 00       	nop
    1daa:	19 01       	movw	r2, r18
    1dac:	68 02       	muls	r22, r24
    1dae:	7d 00       	.word	0x007d	; ????
    1db0:	00 00       	nop
    1db2:	1a c0       	rjmp	.+52     	; 0x1de8 <__data_load_end+0xe7e>
    1db4:	0d 00       	.word	0x000d	; ????
    1db6:	00 03       	mulsu	r16, r16
    1db8:	1a 79       	andi	r17, 0x9A	; 154
    1dba:	08 00       	.word	0x0008	; ????
    1dbc:	00 03       	mulsu	r16, r16
    1dbe:	1a d1       	rcall	.+564    	; 0x1ff4 <__data_load_end+0x108a>
    1dc0:	0d 00       	.word	0x000d	; ????
    1dc2:	00 03       	mulsu	r16, r16
    1dc4:	85 01       	movw	r16, r10
    1dc6:	bf 13       	cpse	r27, r31
    1dc8:	00 00       	nop
    1dca:	05 75       	andi	r16, 0x55	; 85
    1dcc:	04 03       	mulsu	r16, r20
    1dce:	00 00       	nop
    1dd0:	1a 03       	fmul	r17, r18
    1dd2:	00 00       	nop
    1dd4:	03 92       	.word	0x9203	; ????
    1dd6:	20 02       	muls	r18, r16
    1dd8:	01 ce       	rjmp	.-1022   	; 0x19dc <__data_load_end+0xa72>
    1dda:	19 00       	.word	0x0019	; ????
    1ddc:	00 86       	std	Z+8, r0	; 0x08
    1dde:	01 61       	ori	r16, 0x11	; 17
    1de0:	72 67       	ori	r23, 0x72	; 114
    1de2:	00 05       	cpc	r16, r0
    1de4:	75 3b       	cpi	r23, 0xB5	; 181
    1de6:	00 00       	nop
    1de8:	00 ad       	ldd	r16, Z+56	; 0x38
    1dea:	03 00       	.word	0x0003	; ????
    1dec:	00 00       	nop
    1dee:	87 01       	movw	r16, r14
    1df0:	34 06       	cpc	r3, r20
    1df2:	00 00       	nop
    1df4:	05 7d       	andi	r16, 0xD5	; 213
    1df6:	1a 03       	fmul	r17, r18
    1df8:	00 00       	nop
    1dfa:	30 03       	mulsu	r19, r16
    1dfc:	00 00       	nop
    1dfe:	03 92       	.word	0x9203	; ????
    1e00:	20 02       	muls	r18, r16
    1e02:	01 0b       	sbc	r16, r17
    1e04:	02 cf       	rjmp	.-508    	; 0x1c0a <__data_load_end+0xca0>
    1e06:	0c 00       	.word	0x000c	; ????
    1e08:	00 11       	cpse	r16, r0
    1e0a:	e3 19       	sub	r30, r3
    1e0c:	00 00       	nop
    1e0e:	09 57       	subi	r16, 0x79	; 121
    1e10:	0c 00       	.word	0x000c	; ????
    1e12:	00 03       	mulsu	r16, r16
    1e14:	fc 19       	sub	r31, r12
    1e16:	00 00       	nop
    1e18:	07 1a       	sub	r0, r23
    1e1a:	00 00       	nop
    1e1c:	07 f0       	brie	.+0      	; 0x1e1e <__data_load_end+0xeb4>
    1e1e:	0c 00       	.word	0x000c	; ????
    1e20:	00 e9       	ldi	r16, 0x90	; 144
    1e22:	19 00       	.word	0x0019	; ????
    1e24:	00 01       	movw	r0, r0
    1e26:	00 60       	ori	r16, 0x00	; 0
    1e28:	ee 19       	sub	r30, r14
    1e2a:	00 00       	nop
    1e2c:	30 03       	mulsu	r19, r16
    1e2e:	00 00       	nop
    1e30:	36 03       	mulsu	r19, r22
    1e32:	00 00       	nop
    1e34:	03 92       	.word	0x9203	; ????
    1e36:	20 02       	muls	r18, r16
    1e38:	21 1a       	sub	r2, r17
    1e3a:	00 00       	nop
    1e3c:	01 2b       	or	r16, r17
    1e3e:	1a 00       	.word	0x001a	; ????
    1e40:	00 04       	cpc	r0, r0
    1e42:	fc 19       	sub	r31, r12
    1e44:	00 00       	nop
    1e46:	ce 03       	fmulsu	r20, r22
    1e48:	00 00       	nop
    1e4a:	00 88       	ldd	r0, Z+16	; 0x10
    1e4c:	01 70       	andi	r16, 0x01	; 1
    1e4e:	0f 00       	.word	0x000f	; ????
    1e50:	00 07       	cpc	r16, r16
    1e52:	cb 3b       	cpi	r28, 0xBB	; 187
    1e54:	00 00       	nop
    1e56:	00 36       	cpi	r16, 0x60	; 96
    1e58:	03 00       	.word	0x0003	; ????
    1e5a:	00 62       	ori	r16, 0x20	; 32
    1e5c:	03 00       	.word	0x0003	; ????
    1e5e:	00 03       	mulsu	r16, r16
    1e60:	92 20       	and	r9, r2
    1e62:	02 01       	movw	r0, r4
    1e64:	56 1a       	sub	r5, r22
    1e66:	00 00       	nop
    1e68:	0c ad       	ldd	r16, Y+60	; 0x3c
    1e6a:	05 00       	.word	0x0005	; ????
    1e6c:	00 07       	cpc	r16, r16
    1e6e:	cc 3b       	cpi	r28, 0xBC	; 188
    1e70:	00 00       	nop
    1e72:	00 01       	movw	r0, r0
    1e74:	68 00       	.word	0x0068	; ????
    1e76:	0b 02       	muls	r16, r27
    1e78:	76 0e       	add	r7, r22
    1e7a:	00 00       	nop
    1e7c:	11 56       	subi	r17, 0x61	; 97
    1e7e:	1a 00       	.word	0x001a	; ????
    1e80:	00 42       	sbci	r16, 0x20	; 32
    1e82:	f7 0e       	add	r15, r23
    1e84:	00 00       	nop
    1e86:	62 03       	mulsu	r22, r18
    1e88:	00 00       	nop
    1e8a:	e8 03       	fmulsu	r22, r16
    1e8c:	00 00       	nop
    1e8e:	f4 03       	fmuls	r23, r20
    1e90:	00 00       	nop
    1e92:	7b 1a       	sub	r7, r27
    1e94:	00 00       	nop
    1e96:	01 0e       	add	r0, r17
    1e98:	1b 00       	.word	0x001b	; ????
    1e9a:	00 21       	and	r16, r0
    1e9c:	f0 0c       	add	r15, r0
    1e9e:	00 00       	nop
    1ea0:	5c 1a       	sub	r5, r28
    1ea2:	00 00       	nop
    1ea4:	01 57       	subi	r16, 0x71	; 113
    1ea6:	04 00       	.word	0x0004	; ????
    1ea8:	00 49       	sbci	r16, 0x90	; 144
    1eaa:	52 00       	.word	0x0052	; ????
    1eac:	03 77       	andi	r16, 0x73	; 115
    1eae:	01 3b       	cpi	r16, 0xB1	; 177
    1eb0:	00 00       	nop
    1eb2:	00 05       	cpc	r16, r0
    1eb4:	03 87       	std	Z+11, r16	; 0x0b
    1eb6:	00 80       	ld	r0, Z
    1eb8:	00 89       	ldd	r16, Z+16	; 0x10
    1eba:	01 8c       	ldd	r0, Z+25	; 0x19
    1ebc:	01 00       	.word	0x0001	; ????
    1ebe:	00 03       	mulsu	r16, r16
    1ec0:	7c 01       	movw	r14, r24
    1ec2:	3b 00       	.word	0x003b	; ????
    1ec4:	00 00       	nop
    1ec6:	03 26       	eor	r0, r19
    1ec8:	51 00       	.word	0x0051	; ????
    1eca:	03 82       	std	Z+3, r0	; 0x03
    1ecc:	01 3b       	cpi	r16, 0xB1	; 177
    1ece:	00 00       	nop
    1ed0:	00 9a       	sbi	0x00, 0	; 0
    1ed2:	04 00       	.word	0x0004	; ????
    1ed4:	00 1f       	adc	r16, r16
    1ed6:	c0 00       	.word	0x00c0	; ????
    1ed8:	00 00       	nop
    1eda:	26 69       	ori	r18, 0x96	; 150
    1edc:	00 03       	mulsu	r16, r16
    1ede:	9d 01       	movw	r18, r26
    1ee0:	b2 0a       	sbc	r11, r18
    1ee2:	00 00       	nop
    1ee4:	c4 04       	cpc	r12, r4
    1ee6:	00 00       	nop
    1ee8:	1f d8       	rcall	.-4034   	; 0xf28 <__udivmodhi4_ep+0xe>
    1eea:	00 00       	nop
    1eec:	00 26       	eor	r0, r16
    1eee:	73 00       	.word	0x0073	; ????
    1ef0:	03 9e       	mul	r0, r19
    1ef2:	01 3b       	cpi	r16, 0xB1	; 177
    1ef4:	00 00       	nop
    1ef6:	00 1f       	adc	r16, r16
    1ef8:	05 00       	.word	0x0005	; ????
    1efa:	00 8a       	std	Z+16, r0	; 0x10
    1efc:	01 0e       	add	r0, r17
    1efe:	1b 00       	.word	0x001b	; ????
    1f00:	00 9c       	mul	r0, r0
    1f02:	03 00       	.word	0x0003	; ????
    1f04:	00 f0       	brcs	.+0      	; 0x1f06 <__data_load_end+0xf9c>
    1f06:	00 00       	nop
    1f08:	00 03       	mulsu	r16, r16
    1f0a:	a0 01       	movw	r20, r0
    1f0c:	3f a3       	std	Y+39, r19	; 0x27
    1f0e:	0a 00       	.word	0x000a	; ????
    1f10:	00 03       	mulsu	r16, r16
    1f12:	74 01       	movw	r14, r8
    1f14:	fb 11       	cpse	r31, r11
    1f16:	00 00       	nop
    1f18:	56 05       	cpc	r21, r6
    1f1a:	00 00       	nop
    1f1c:	26 69       	ori	r18, 0x96	; 150
    1f1e:	00 03       	mulsu	r16, r16
    1f20:	74 01       	movw	r14, r8
    1f22:	3b 00       	.word	0x003b	; ????
    1f24:	00 00       	nop
    1f26:	69 05       	cpc	r22, r9
    1f28:	00 00       	nop
    1f2a:	00 00       	nop
    1f2c:	00 00       	nop
    1f2e:	61 08       	sbc	r6, r1
    1f30:	03 00       	.word	0x0003	; ????
    1f32:	00 08       	sbc	r0, r0
    1f34:	1e 3b       	cpi	r17, 0xBE	; 190
    1f36:	00 00       	nop
    1f38:	00 03       	mulsu	r16, r16
    1f3a:	0b 02       	muls	r16, r27
    1f3c:	9f 0b       	sbc	r25, r31
    1f3e:	00 00       	nop
    1f40:	11 1a       	sub	r1, r17
    1f42:	1b 00       	.word	0x001b	; ????
    1f44:	00 09       	sbc	r16, r0
    1f46:	ba 0b       	sbc	r27, r26
    1f48:	00 00       	nop
    1f4a:	03 33       	cpi	r16, 0x33	; 51
    1f4c:	1b 00       	.word	0x001b	; ????
    1f4e:	00 49       	sbci	r16, 0x90	; 144
    1f50:	1b 00       	.word	0x001b	; ????
    1f52:	00 07       	cpc	r16, r16
    1f54:	f0 0c       	add	r15, r0
    1f56:	00 00       	nop
    1f58:	20 1b       	sub	r18, r16
    1f5a:	00 00       	nop
    1f5c:	01 0a       	sbc	r0, r17
    1f5e:	e1 0d       	add	r30, r1
    1f60:	00 00       	nop
    1f62:	09 1a       	sub	r0, r25
    1f64:	7c 00       	.word	0x007c	; ????
    1f66:	00 00       	nop
    1f68:	00 30       	cpi	r16, 0x00	; 0
    1f6a:	02 76       	andi	r16, 0x62	; 98
    1f6c:	0e 00       	.word	0x000e	; ????
    1f6e:	00 3e       	cpi	r16, 0xE0	; 224
    1f70:	7a 0c       	add	r7, r10
    1f72:	00 00       	nop
    1f74:	03 49       	sbci	r16, 0x93	; 147
    1f76:	1c 00       	.word	0x001c	; ????
    1f78:	00 25       	eor	r16, r0
    1f7a:	35 05       	cpc	r19, r5
    1f7c:	00 00       	nop
    1f7e:	06 68       	ori	r16, 0x86	; 134
    1f80:	01 49       	sbci	r16, 0x91	; 145
    1f82:	1b 00       	.word	0x001b	; ????
    1f84:	00 1d       	adc	r16, r0
    1f86:	d0 08       	sbc	r13, r0
    1f88:	00 00       	nop
    1f8a:	06 69       	ori	r16, 0x96	; 150
    1f8c:	01 5e       	subi	r16, 0xE1	; 225
    1f8e:	0e 00       	.word	0x000e	; ????
    1f90:	00 1d       	adc	r16, r0
    1f92:	4d 08       	sbc	r4, r13
    1f94:	00 00       	nop
    1f96:	06 6a       	ori	r16, 0xA6	; 166
    1f98:	01 29       	or	r16, r1
    1f9a:	0c 00       	.word	0x000c	; ????
    1f9c:	00 1d       	adc	r16, r0
    1f9e:	a1 0b       	sbc	r26, r17
    1fa0:	00 00       	nop
    1fa2:	06 6b       	ori	r16, 0xB6	; 182
    1fa4:	01 35       	cpi	r16, 0x51	; 81
    1fa6:	0c 00       	.word	0x000c	; ????
    1fa8:	00 1d       	adc	r16, r0
    1faa:	ac 02       	muls	r26, r28
    1fac:	00 00       	nop
    1fae:	06 6c       	ori	r16, 0xC6	; 198
    1fb0:	01 3b       	cpi	r16, 0xB1	; 177
    1fb2:	00 00       	nop
    1fb4:	00 15       	cp	r16, r0
    1fb6:	68 69       	ori	r22, 0x98	; 152
    1fb8:	00 06       	cpc	r0, r16
    1fba:	6f 01       	movw	r12, r30
    1fbc:	35 0c       	add	r3, r5
    1fbe:	00 00       	nop
    1fc0:	15 6c       	ori	r17, 0xC5	; 197
    1fc2:	6f 00       	.word	0x006f	; ????
    1fc4:	06 70       	andi	r16, 0x06	; 6
    1fc6:	01 35       	cpi	r16, 0x51	; 81
    1fc8:	0c 00       	.word	0x000c	; ????
    1fca:	00 15       	cp	r16, r0
    1fcc:	62 30       	cpi	r22, 0x02	; 2
    1fce:	00 06       	cpc	r0, r16
    1fd0:	74 01       	movw	r14, r8
    1fd2:	3b 00       	.word	0x003b	; ????
    1fd4:	00 00       	nop
    1fd6:	15 62       	ori	r17, 0x25	; 37
    1fd8:	31 00       	.word	0x0031	; ????
    1fda:	06 76       	andi	r16, 0x66	; 102
    1fdc:	01 3b       	cpi	r16, 0xB1	; 177
    1fde:	00 00       	nop
    1fe0:	00 1d       	adc	r16, r0
    1fe2:	7b 01       	movw	r14, r22
    1fe4:	00 00       	nop
    1fe6:	06 7e       	andi	r16, 0xE6	; 230
    1fe8:	01 07       	cpc	r16, r17
    1fea:	12 00       	.word	0x0012	; ????
    1fec:	00 1d       	adc	r16, r0
    1fee:	e7 09       	sbc	r30, r7
    1ff0:	00 00       	nop
    1ff2:	06 7f       	andi	r16, 0xF6	; 246
    1ff4:	01 7c       	andi	r16, 0xC1	; 193
    1ff6:	00 00       	nop
    1ff8:	00 15       	cp	r16, r0
    1ffa:	73 30       	cpi	r23, 0x03	; 3
    1ffc:	00 06       	cpc	r0, r16
    1ffe:	81 01       	movw	r16, r2
    2000:	3b 00       	.word	0x003b	; ????
    2002:	00 00       	nop
    2004:	15 73       	andi	r17, 0x35	; 53
    2006:	31 00       	.word	0x0031	; ????
    2008:	06 82       	std	Z+6, r0	; 0x06
    200a:	01 3b       	cpi	r16, 0xB1	; 177
    200c:	00 00       	nop
    200e:	00 15       	cp	r16, r0
    2010:	73 32       	cpi	r23, 0x23	; 35
    2012:	00 06       	cpc	r0, r16
    2014:	83 01       	movw	r16, r6
    2016:	3b 00       	.word	0x003b	; ????
    2018:	00 00       	nop
    201a:	15 64       	ori	r17, 0x45	; 69
    201c:	30 00       	.word	0x0030	; ????
    201e:	06 87       	std	Z+14, r16	; 0x0e
    2020:	01 3b       	cpi	r16, 0xB1	; 177
    2022:	00 00       	nop
    2024:	00 15       	cp	r16, r0
    2026:	64 31       	cpi	r22, 0x14	; 20
    2028:	00 06       	cpc	r0, r16
    202a:	88 01       	movw	r16, r16
    202c:	3b 00       	.word	0x003b	; ????
    202e:	00 00       	nop
    2030:	15 64       	ori	r17, 0x45	; 69
    2032:	32 00       	.word	0x0032	; ????
    2034:	06 89       	ldd	r16, Z+22	; 0x16
    2036:	01 3b       	cpi	r16, 0xB1	; 177
    2038:	00 00       	nop
    203a:	00 15       	cp	r16, r0
    203c:	65 30       	cpi	r22, 0x05	; 5
    203e:	00 06       	cpc	r0, r16
    2040:	8a 01       	movw	r16, r20
    2042:	3b 00       	.word	0x003b	; ????
    2044:	00 00       	nop
    2046:	15 65       	ori	r17, 0x55	; 85
    2048:	31 00       	.word	0x0031	; ????
    204a:	06 8b       	std	Z+22, r16	; 0x16
    204c:	01 3b       	cpi	r16, 0xB1	; 177
    204e:	00 00       	nop
    2050:	00 15       	cp	r16, r0
    2052:	65 32       	cpi	r22, 0x25	; 37
    2054:	00 06       	cpc	r0, r16
    2056:	8c 01       	movw	r16, r24
    2058:	3b 00       	.word	0x003b	; ????
    205a:	00 00       	nop
    205c:	1d 65       	ori	r17, 0x5D	; 93
    205e:	02 00       	.word	0x0002	; ????
    2060:	00 06       	cpc	r0, r16
    2062:	8e 01       	movw	r16, r28
    2064:	3b 00       	.word	0x003b	; ????
    2066:	00 00       	nop
    2068:	00 09       	sbc	r16, r0
    206a:	d1 0b       	sbc	r29, r17
    206c:	00 00       	nop
    206e:	03 57       	subi	r16, 0x73	; 115
    2070:	1c 00       	.word	0x001c	; ????
    2072:	00 62       	ori	r16, 0x20	; 32
    2074:	1c 00       	.word	0x001c	; ????
    2076:	00 07       	cpc	r16, r16
    2078:	f0 0c       	add	r15, r0
    207a:	00 00       	nop
    207c:	20 1b       	sub	r18, r16
    207e:	00 00       	nop
    2080:	01 00       	.word	0x0001	; ????
    2082:	8b 01       	movw	r16, r22
    2084:	8e 0c       	add	r8, r14
    2086:	00 00       	nop
    2088:	e8 03       	fmulsu	r22, r16
    208a:	00 00       	nop
    208c:	92 07       	cpc	r25, r18
    208e:	00 00       	nop
    2090:	7c 05       	cpc	r23, r12
    2092:	00 00       	nop
    2094:	7d 1c       	adc	r7, r13
    2096:	00 00       	nop
    2098:	01 00       	.word	0x0001	; ????
    209a:	1f 00       	.word	0x001f	; ????
    209c:	00 21       	and	r16, r0
    209e:	f0 0c       	add	r15, r0
    20a0:	00 00       	nop
    20a2:	73 13       	cpse	r23, r19
    20a4:	00 00       	nop
    20a6:	01 54       	subi	r16, 0x41	; 65
    20a8:	06 00       	.word	0x0006	; ????
    20aa:	00 62       	ori	r16, 0x20	; 32
    20ac:	35 05       	cpc	r19, r5
    20ae:	00 00       	nop
    20b0:	06 78       	andi	r16, 0x86	; 134
    20b2:	49 1b       	sub	r20, r25
    20b4:	00 00       	nop
    20b6:	8c 06       	cpc	r8, r28
    20b8:	00 00       	nop
    20ba:	43 a0       	ldd	r4, Z+35	; 0x23
    20bc:	0d 00       	.word	0x000d	; ????
    20be:	00 06       	cpc	r0, r16
    20c0:	83 29       	or	r24, r3
    20c2:	00 00       	nop
    20c4:	00 c2       	rjmp	.+1024   	; 0x24c6 <__TEXT_REGION_LENGTH__+0x4c6>
    20c6:	06 00       	.word	0x0006	; ????
    20c8:	00 0e       	add	r0, r16
    20ca:	25 1b       	sub	r18, r21
    20cc:	00 00       	nop
    20ce:	0a 04       	cpc	r0, r10
    20d0:	00 00       	nop
    20d2:	1c 04       	cpc	r1, r12
    20d4:	00 00       	nop
    20d6:	06 7a       	andi	r16, 0xA6	; 166
    20d8:	e2 1c       	adc	r14, r2
    20da:	00 00       	nop
    20dc:	04 33       	cpi	r16, 0x34	; 52
    20de:	1b 00       	.word	0x001b	; ????
    20e0:	00 1a       	sub	r0, r16
    20e2:	07 00       	.word	0x0007	; ????
    20e4:	00 18       	sub	r0, r0
    20e6:	0a 04       	cpc	r0, r10
    20e8:	00 00       	nop
    20ea:	1c 04       	cpc	r1, r12
    20ec:	00 00       	nop
    20ee:	05 3d       	cpi	r16, 0xD5	; 213
    20f0:	1b 00       	.word	0x001b	; ????
    20f2:	00 2f       	mov	r16, r16
    20f4:	07 00       	.word	0x0007	; ????
    20f6:	00 28       	or	r0, r0
    20f8:	0c 04       	cpc	r0, r12
    20fa:	00 00       	nop
    20fc:	06 16       	cp	r0, r22
    20fe:	00 00       	nop
    2100:	00 00       	nop
    2102:	0e 4f       	sbci	r16, 0xFE	; 254
    2104:	1b 00       	.word	0x001b	; ????
    2106:	00 2a       	or	r0, r16
    2108:	04 00       	.word	0x0004	; ????
    210a:	00 aa       	std	Z+48, r0	; 0x30
    210c:	06 00       	.word	0x0006	; ????
    210e:	00 06       	cpc	r0, r16
    2110:	7e 15       	cp	r23, r14
    2112:	1e 00       	.word	0x001e	; ????
    2114:	00 04       	cpc	r0, r0
    2116:	59 1b       	sub	r21, r25
    2118:	00 00       	nop
    211a:	49 07       	cpc	r20, r25
    211c:	00 00       	nop
    211e:	18 2a       	or	r1, r24
    2120:	04 00       	.word	0x0004	; ????
    2122:	00 aa       	std	Z+48, r0	; 0x30
    2124:	06 00       	.word	0x0006	; ????
    2126:	00 05       	cpc	r16, r0
    2128:	65 1b       	sub	r22, r21
    212a:	00 00       	nop
    212c:	61 07       	cpc	r22, r17
    212e:	00 00       	nop
    2130:	16 71       	andi	r17, 0x16	; 22
    2132:	1b 00       	.word	0x001b	; ????
    2134:	00 16       	cp	r0, r16
    2136:	7d 1b       	sub	r23, r29
    2138:	00 00       	nop
    213a:	05 89       	ldd	r16, Z+21	; 0x15
    213c:	1b 00       	.word	0x001b	; ????
    213e:	00 79       	andi	r16, 0x90	; 144
    2140:	07 00       	.word	0x0007	; ????
    2142:	00 05       	cpc	r16, r0
    2144:	95 1b       	sub	r25, r21
    2146:	00 00       	nop
    2148:	98 07       	cpc	r25, r24
    214a:	00 00       	nop
    214c:	05 a0       	ldd	r0, Z+37	; 0x25
    214e:	1b 00       	.word	0x001b	; ????
    2150:	00 ab       	std	Z+48, r16	; 0x30
    2152:	07 00       	.word	0x0007	; ????
    2154:	00 05       	cpc	r16, r0
    2156:	ab 1b       	sub	r26, r27
    2158:	00 00       	nop
    215a:	be 07       	cpc	r27, r30
    215c:	00 00       	nop
    215e:	05 b6       	in	r0, 0x35	; 53
    2160:	1b 00       	.word	0x001b	; ????
    2162:	00 dd       	rcall	.-1536   	; 0x1b64 <__data_load_end+0xbfa>
    2164:	07 00       	.word	0x0007	; ????
    2166:	00 16       	cp	r0, r16
    2168:	c1 1b       	sub	r28, r17
    216a:	00 00       	nop
    216c:	05 cd       	rjmp	.-1526   	; 0x1b78 <__data_load_end+0xc0e>
    216e:	1b 00       	.word	0x001b	; ????
    2170:	00 fc       	sbrc	r0, 0
    2172:	07 00       	.word	0x0007	; ????
    2174:	00 05       	cpc	r16, r0
    2176:	d9 1b       	sub	r29, r25
    2178:	00 00       	nop
    217a:	14 08       	sbc	r1, r4
    217c:	00 00       	nop
    217e:	05 e4       	ldi	r16, 0x45	; 69
    2180:	1b 00       	.word	0x001b	; ????
    2182:	00 27       	eor	r16, r16
    2184:	08 00       	.word	0x0008	; ????
    2186:	00 05       	cpc	r16, r0
    2188:	ef 1b       	sub	r30, r31
    218a:	00 00       	nop
    218c:	3a 08       	sbc	r3, r10
    218e:	00 00       	nop
    2190:	05 fa       	bst	r0, 5
    2192:	1b 00       	.word	0x001b	; ????
    2194:	00 4d       	sbci	r16, 0xD0	; 208
    2196:	08 00       	.word	0x0008	; ????
    2198:	00 05       	cpc	r16, r0
    219a:	05 1c       	adc	r0, r5
    219c:	00 00       	nop
    219e:	6b 08       	sbc	r6, r11
    21a0:	00 00       	nop
    21a2:	05 10       	cpse	r0, r5
    21a4:	1c 00       	.word	0x001c	; ????
    21a6:	00 7e       	andi	r16, 0xE0	; 224
    21a8:	08 00       	.word	0x0008	; ????
    21aa:	00 05       	cpc	r16, r0
    21ac:	1b 1c       	adc	r1, r11
    21ae:	00 00       	nop
    21b0:	91 08       	sbc	r9, r1
    21b2:	00 00       	nop
    21b4:	05 26       	eor	r0, r21
    21b6:	1c 00       	.word	0x001c	; ????
    21b8:	00 a4       	ldd	r0, Z+40	; 0x28
    21ba:	08 00       	.word	0x0008	; ????
    21bc:	00 05       	cpc	r16, r0
    21be:	31 1c       	adc	r3, r1
    21c0:	00 00       	nop
    21c2:	b7 08       	sbc	r11, r7
    21c4:	00 00       	nop
    21c6:	05 3c       	cpi	r16, 0xC5	; 197
    21c8:	1c 00       	.word	0x001c	; ????
    21ca:	00 ca       	rjmp	.-3072   	; 0x15cc <__data_load_end+0x662>
    21cc:	08 00       	.word	0x0008	; ????
    21ce:	00 44       	sbci	r16, 0x40	; 64
    21d0:	00 1f       	adc	r16, r16
    21d2:	00 00       	nop
    21d4:	3c 04       	cpc	r3, r12
    21d6:	00 00       	nop
    21d8:	48 04       	cpc	r4, r8
    21da:	00 00       	nop
    21dc:	06 79       	andi	r16, 0x96	; 150
    21de:	01 c9       	rjmp	.-3582   	; 0x13e2 <__data_load_end+0x478>
    21e0:	1d 00       	.word	0x001d	; ????
    21e2:	00 14       	cp	r0, r0
    21e4:	e9 08       	sbc	r14, r9
    21e6:	00 00       	nop
    21e8:	00 44       	sbci	r16, 0x40	; 64
    21ea:	06 1f       	adc	r16, r22
    21ec:	00 00       	nop
    21ee:	48 04       	cpc	r4, r8
    21f0:	00 00       	nop
    21f2:	50 04       	cpc	r5, r0
    21f4:	00 00       	nop
    21f6:	06 7e       	andi	r16, 0xE6	; 230
    21f8:	01 e3       	ldi	r16, 0x31	; 49
    21fa:	1d 00       	.word	0x001d	; ????
    21fc:	00 14       	cp	r0, r0
    21fe:	01 09       	sbc	r16, r1
    2200:	00 00       	nop
    2202:	00 44       	sbci	r16, 0x40	; 64
    2204:	0c 1f       	adc	r16, r28
    2206:	00 00       	nop
    2208:	6a 05       	cpc	r22, r10
    220a:	00 00       	nop
    220c:	6c 05       	cpc	r22, r12
    220e:	00 00       	nop
    2210:	06 be       	out	0x36, r0	; 54
    2212:	01 fd       	sbrc	r16, 1
    2214:	1d 00       	.word	0x001d	; ????
    2216:	00 14       	cp	r0, r0
    2218:	19 09       	sbc	r17, r9
    221a:	00 00       	nop
    221c:	00 29       	or	r16, r0
    221e:	19 1f       	adc	r17, r25
    2220:	00 00       	nop
    2222:	08 06       	cpc	r0, r24
    2224:	00 00       	nop
    2226:	0a 06       	cpc	r0, r26
    2228:	00 00       	nop
    222a:	06 d2       	rcall	.+1036   	; 0x2638 <__TEXT_REGION_LENGTH__+0x638>
    222c:	01 14       	cp	r0, r1
    222e:	31 09       	sbc	r19, r1
    2230:	00 00       	nop
    2232:	00 00       	nop
    2234:	00 0e       	add	r0, r16
    2236:	26 1f       	adc	r18, r22
    2238:	00 00       	nop
    223a:	aa 06       	cpc	r10, r26
    223c:	00 00       	nop
    223e:	b0 06       	cpc	r11, r16
    2240:	00 00       	nop
    2242:	06 83       	std	Z+6, r16	; 0x06
    2244:	37 1e       	adc	r3, r23
    2246:	00 00       	nop
    2248:	63 f0       	brvs	.+24     	; 0x2262 <__TEXT_REGION_LENGTH__+0x262>
    224a:	0c 00       	.word	0x000c	; ????
    224c:	00 5c       	subi	r16, 0xC0	; 192
    224e:	1a 00       	.word	0x001a	; ????
    2250:	00 01       	movw	r0, r0
    2252:	49 09       	sbc	r20, r9
    2254:	00 00       	nop
    2256:	00 0e       	add	r0, r16
    2258:	2c 1f       	adc	r18, r28
    225a:	00 00       	nop
    225c:	d6 06       	cpc	r13, r22
    225e:	00 00       	nop
    2260:	e2 06       	cpc	r14, r18
    2262:	00 00       	nop
    2264:	06 88       	ldd	r0, Z+22	; 0x16
    2266:	75 1e       	adc	r7, r21
    2268:	00 00       	nop
    226a:	0a a3       	std	Y+34, r16	; 0x22
    226c:	0a 00       	.word	0x000a	; ????
    226e:	00 06       	cpc	r0, r16
    2270:	78 fb       	.word	0xfb78	; ????
    2272:	11 00       	.word	0x0011	; ????
    2274:	00 0d       	add	r16, r0
    2276:	69 00       	.word	0x0069	; ????
    2278:	06 78       	andi	r16, 0x86	; 134
    227a:	7c 00       	.word	0x007c	; ????
    227c:	00 00       	nop
    227e:	18 d6       	rcall	.+3120   	; 0x2eb0 <__TEXT_REGION_LENGTH__+0xeb0>
    2280:	06 00       	.word	0x0006	; ????
    2282:	00 e2       	ldi	r16, 0x20	; 32
    2284:	06 00       	.word	0x0006	; ????
    2286:	00 1d       	adc	r16, r0
    2288:	a6 05       	cpc	r26, r6
    228a:	00 00       	nop
    228c:	08 db       	rcall	.-2544   	; 0x189e <__data_load_end+0x934>
    228e:	01 7c       	andi	r16, 0xC1	; 193
    2290:	00 00       	nop
    2292:	00 00       	nop
    2294:	00 8c       	ldd	r0, Z+24	; 0x18
    2296:	01 04       	cpc	r0, r1
    2298:	07 00       	.word	0x0007	; ????
    229a:	00 68       	ori	r16, 0x80	; 128
    229c:	07 00       	.word	0x0007	; ????
    229e:	00 dd       	rcall	.-1536   	; 0x1ca0 <__data_load_end+0xd36>
    22a0:	1e 00       	.word	0x001e	; ????
    22a2:	00 43       	sbci	r16, 0x30	; 48
    22a4:	cf 06       	cpc	r12, r31
    22a6:	00 00       	nop
    22a8:	06 99       	sbic	0x00, 6	; 0
    22aa:	7c 00       	.word	0x007c	; ????
    22ac:	00 00       	nop
    22ae:	61 09       	sbc	r22, r1
    22b0:	00 00       	nop
    22b2:	12 2c       	mov	r1, r2
    22b4:	1f 00       	.word	0x001f	; ????
    22b6:	00 1a       	sub	r0, r16
    22b8:	07 00       	.word	0x0007	; ????
    22ba:	00 2a       	or	r0, r16
    22bc:	07 00       	.word	0x0007	; ????
    22be:	00 06       	cpc	r0, r16
    22c0:	9a 43       	sbci	r25, 0x3A	; 58
    22c2:	a3 0a       	sbc	r10, r19
    22c4:	00 00       	nop
    22c6:	06 78       	andi	r16, 0x86	; 134
    22c8:	fb 11       	cpse	r31, r11
    22ca:	00 00       	nop
    22cc:	99 09       	sbc	r25, r9
    22ce:	00 00       	nop
    22d0:	8d 01       	movw	r16, r26
    22d2:	69 00       	.word	0x0069	; ????
    22d4:	06 78       	andi	r16, 0x86	; 134
    22d6:	7c 00       	.word	0x007c	; ????
    22d8:	00 00       	nop
    22da:	ad 09       	sbc	r26, r13
    22dc:	00 00       	nop
    22de:	18 1a       	sub	r1, r24
    22e0:	07 00       	.word	0x0007	; ????
    22e2:	00 2a       	or	r0, r16
    22e4:	07 00       	.word	0x0007	; ????
    22e6:	00 32       	cpi	r16, 0x20	; 32
    22e8:	a6 05       	cpc	r26, r6
    22ea:	00 00       	nop
    22ec:	08 db       	rcall	.-2544   	; 0x18fe <__data_load_end+0x994>
    22ee:	01 7c       	andi	r16, 0xC1	; 193
    22f0:	00 00       	nop
    22f2:	00 06       	cpc	r0, r16
    22f4:	62 93       	st	-Z, r22
    22f6:	01 63       	ori	r16, 0x31	; 49
    22f8:	93 01       	movw	r18, r6
    22fa:	00 00       	nop
    22fc:	00 12       	cpse	r0, r16
    22fe:	49 1c       	adc	r4, r9
    2300:	00 00       	nop
    2302:	6a 07       	cpc	r22, r26
    2304:	00 00       	nop
    2306:	72 07       	cpc	r23, r18
    2308:	00 00       	nop
    230a:	06 b3       	in	r16, 0x16	; 22
    230c:	04 57       	subi	r16, 0x74	; 116
    230e:	1c 00       	.word	0x001c	; ????
    2310:	00 c5       	rjmp	.+2560   	; 0x2d12 <__TEXT_REGION_LENGTH__+0xd12>
    2312:	09 00       	.word	0x0009	; ????
    2314:	00 28       	or	r0, r0
    2316:	6c 07       	cpc	r22, r28
    2318:	00 00       	nop
    231a:	06 16       	cp	r0, r22
    231c:	00 00       	nop
    231e:	00 00       	nop
    2320:	1a 0f       	add	r17, r26
    2322:	0f 00       	.word	0x000f	; ????
    2324:	00 03       	mulsu	r16, r16
    2326:	1a 2c       	mov	r1, r10
    2328:	0f 00       	.word	0x000f	; ????
    232a:	00 03       	mulsu	r16, r16
    232c:	64 01       	movw	r12, r8
    232e:	5f 64       	ori	r21, 0x4F	; 79
    2330:	63 00       	.word	0x0063	; ????
    2332:	06 37       	cpi	r16, 0x76	; 118
    2334:	ef 11       	cpse	r30, r15
    2336:	00 00       	nop
    2338:	03 64       	ori	r16, 0x43	; 67
    233a:	01 5f       	subi	r16, 0xF1	; 241
    233c:	64 63       	ori	r22, 0x34	; 52
    233e:	00 06       	cpc	r0, r16
    2340:	33 88       	ldd	r3, Z+19	; 0x13
    2342:	08 00       	.word	0x0008	; ????
    2344:	00 03       	mulsu	r16, r16
    2346:	1a 4d       	sbci	r17, 0xDA	; 218
    2348:	0f 00       	.word	0x000f	; ????
    234a:	00 03       	mulsu	r16, r16
    234c:	8e 01       	movw	r16, r28
    234e:	c6 09       	sbc	r28, r6
    2350:	00 00       	nop
    2352:	08 d8       	rcall	.-4080   	; 0x1364 <__data_load_end+0x3fa>
    2354:	01 7c       	andi	r16, 0xC1	; 193
    2356:	00 00       	nop
    2358:	00 03       	mulsu	r16, r16
    235a:	4a 18       	sub	r4, r10
    235c:	0a 00       	.word	0x000a	; ????
    235e:	00 92 07 00 	sts	0x0007, r0	; 0x800007 <__EEPROM_REGION_LENGTH__+0x7f0007>
    2362:	00 98       	cbi	0x00, 0	; 0
    2364:	07 00       	.word	0x0007	; ????
    2366:	00 03       	mulsu	r16, r16
    2368:	92 20       	and	r9, r2
    236a:	02 54       	subi	r16, 0x42	; 66
    236c:	1f 00       	.word	0x001f	; ????
    236e:	00 01       	movw	r0, r0
    2370:	63 1f       	adc	r22, r19
    2372:	00 00       	nop
    2374:	21 f0       	breq	.+8      	; 0x237e <__TEXT_REGION_LENGTH__+0x37e>
    2376:	0c 00       	.word	0x000c	; ????
    2378:	00 da       	rcall	.-3072   	; 0x177a <__data_load_end+0x810>
    237a:	0a 00       	.word	0x000a	; ????
    237c:	00 01       	movw	r0, r0
    237e:	da 09       	sbc	r29, r10
    2380:	00 00       	nop
    2382:	00 09       	sbc	r16, r0
    2384:	b3 0c       	add	r11, r3
    2386:	00 00       	nop
    2388:	03 71       	andi	r16, 0x13	; 19
    238a:	1f 00       	.word	0x001f	; ????
    238c:	00 7c       	andi	r16, 0xC0	; 192
    238e:	1f 00       	.word	0x001f	; ????
    2390:	00 07       	cpc	r16, r16
    2392:	f0 0c       	add	r15, r0
    2394:	00 00       	nop
    2396:	73 13       	cpse	r23, r19
    2398:	00 00       	nop
    239a:	01 00       	.word	0x0001	; ????
    239c:	1a 90       	ld	r1, -Y
    239e:	0b 00       	.word	0x000b	; ????
    23a0:	00 03       	mulsu	r16, r16
    23a2:	60 63       	ori	r22, 0x30	; 48
    23a4:	1f 00       	.word	0x001f	; ????
    23a6:	00 98       	cbi	0x00, 0	; 0
    23a8:	07 00       	.word	0x0007	; ????
    23aa:	00 9c       	mul	r0, r0
    23ac:	07 00       	.word	0x0007	; ????
    23ae:	00 03       	mulsu	r16, r16
    23b0:	92 20       	and	r9, r2
    23b2:	02 9c       	mul	r0, r2
    23b4:	1f 00       	.word	0x001f	; ????
    23b6:	00 01       	movw	r0, r0
    23b8:	b8 1f       	adc	r27, r24
    23ba:	00 00       	nop
    23bc:	40 71       	andi	r20, 0x10	; 16
    23be:	1f 00       	.word	0x001f	; ????
    23c0:	00 06       	cpc	r0, r16
    23c2:	68 93       	.word	0x9368	; ????
    23c4:	01 69       	ori	r16, 0x91	; 145
    23c6:	93 01       	movw	r18, r6
    23c8:	27 7c       	andi	r18, 0xC7	; 199
    23ca:	1f 00       	.word	0x001f	; ????
    23cc:	00 98       	cbi	0x00, 0	; 0
    23ce:	07 00       	.word	0x0007	; ????
    23d0:	00 9a       	sbi	0x00, 0	; 0
    23d2:	07 00       	.word	0x0007	; ????
    23d4:	00 06       	cpc	r0, r16
    23d6:	72 00       	.word	0x0072	; ????
    23d8:	0b 02       	muls	r16, r27
    23da:	04 09       	sbc	r16, r4
    23dc:	00 00       	nop
    23de:	30 02       	muls	r19, r16
    23e0:	90 02       	muls	r25, r16
    23e2:	00 00       	nop
    23e4:	09 6e       	ori	r16, 0xE9	; 233
    23e6:	0f 00       	.word	0x000f	; ????
    23e8:	00 03       	mulsu	r16, r16
    23ea:	d2 1f       	adc	r29, r18
    23ec:	00 00       	nop
    23ee:	09 20       	and	r0, r9
    23f0:	00 00       	nop
    23f2:	07 f0       	brie	.+0      	; 0x23f4 <__TEXT_REGION_LENGTH__+0x3f4>
    23f4:	0c 00       	.word	0x000c	; ????
    23f6:	00 5c       	subi	r16, 0xC0	; 192
    23f8:	1a 00       	.word	0x001a	; ????
    23fa:	00 01       	movw	r0, r0
    23fc:	2a 64       	ori	r18, 0x4A	; 74
    23fe:	00 03       	mulsu	r16, r16
    2400:	3a 01       	movw	r6, r20
    2402:	b8 1f       	adc	r27, r24
    2404:	00 00       	nop
    2406:	2a 6c       	ori	r18, 0xCA	; 202
    2408:	65 6e       	ori	r22, 0xE5	; 229
    240a:	00 03       	mulsu	r16, r16
    240c:	3a 01       	movw	r6, r20
    240e:	b2 0a       	sbc	r11, r18
    2410:	00 00       	nop
    2412:	2a 73       	andi	r18, 0x3A	; 58
    2414:	00 03       	mulsu	r16, r16
    2416:	3a 01       	movw	r6, r20
    2418:	be 1f       	adc	r27, r30
    241a:	00 00       	nop
    241c:	25 46       	sbci	r18, 0x65	; 101
    241e:	08 00       	.word	0x0008	; ????
    2420:	00 03       	mulsu	r16, r16
    2422:	3a 01       	movw	r6, r20
    2424:	19 09       	sbc	r17, r9
    2426:	00 00       	nop
    2428:	00 09       	sbc	r16, r0
    242a:	9a 0f       	add	r25, r26
    242c:	00 00       	nop
    242e:	03 17       	cp	r16, r19
    2430:	20 00       	.word	0x0020	; ????
    2432:	00 46       	sbci	r16, 0x60	; 96
    2434:	20 00       	.word	0x0020	; ????
    2436:	00 07       	cpc	r16, r16
    2438:	f0 0c       	add	r15, r0
    243a:	00 00       	nop
    243c:	5c 1a       	sub	r5, r28
    243e:	00 00       	nop
    2440:	01 2a       	or	r0, r17
    2442:	6c 65       	ori	r22, 0x5C	; 92
    2444:	6e 00       	.word	0x006e	; ????
    2446:	03 1f       	adc	r16, r19
    2448:	01 b2       	in	r0, 0x11	; 17
    244a:	0a 00       	.word	0x000a	; ????
    244c:	00 1d       	adc	r16, r0
    244e:	22 06       	cpc	r2, r18
    2450:	00 00       	nop
    2452:	03 20       	and	r0, r3
    2454:	01 b2       	in	r0, 0x11	; 17
    2456:	0a 00       	.word	0x000a	; ????
    2458:	00 10       	cpse	r0, r0
    245a:	15 69       	ori	r17, 0x95	; 149
    245c:	00 03       	mulsu	r16, r16
    245e:	21 01       	movw	r4, r2
    2460:	b2 0a       	sbc	r11, r18
    2462:	00 00       	nop
    2464:	00 00       	nop
    2466:	09 b7       	in	r16, 0x39	; 57
    2468:	0f 00       	.word	0x000f	; ????
    246a:	00 03       	mulsu	r16, r16
    246c:	54 20       	and	r5, r4
    246e:	00 00       	nop
    2470:	6b 20       	and	r6, r11
    2472:	00 00       	nop
    2474:	07 f0       	brie	.+0      	; 0x2476 <__TEXT_REGION_LENGTH__+0x476>
    2476:	0c 00       	.word	0x000c	; ????
    2478:	00 5c       	subi	r16, 0xC0	; 192
    247a:	1a 00       	.word	0x001a	; ????
    247c:	00 01       	movw	r0, r0
    247e:	25 46       	sbci	r18, 0x65	; 101
    2480:	08 00       	.word	0x0008	; ????
    2482:	00 03       	mulsu	r16, r16
    2484:	b5 01       	movw	r22, r10
    2486:	19 09       	sbc	r17, r9
    2488:	00 00       	nop
    248a:	00 42       	sbci	r16, 0x20	; 32
    248c:	11 0b       	sbc	r17, r17
    248e:	00 00       	nop
    2490:	9c 07       	cpc	r25, r28
    2492:	00 00       	nop
    2494:	52 08       	sbc	r5, r2
    2496:	00 00       	nop
    2498:	00 0a       	sbc	r0, r16
    249a:	00 00       	nop
    249c:	85 20       	and	r8, r5
    249e:	00 00       	nop
    24a0:	01 b2       	in	r0, 0x11	; 17
    24a2:	21 00       	.word	0x0021	; ????
    24a4:	00 21       	and	r16, r0
    24a6:	f0 0c       	add	r15, r0
    24a8:	00 00       	nop
    24aa:	4f 13       	cpse	r20, r31
    24ac:	00 00       	nop
    24ae:	01 bc       	out	0x21, r0	; 33
    24b0:	0a 00       	.word	0x000a	; ????
    24b2:	00 33       	cpi	r16, 0x30	; 48
    24b4:	d0 08       	sbc	r13, r0
    24b6:	00 00       	nop
    24b8:	03 7b       	andi	r16, 0xB3	; 179
    24ba:	02 b8       	out	0x02, r0	; 2
    24bc:	1f 00       	.word	0x001f	; ????
    24be:	00 02       	muls	r16, r16
    24c0:	0b 00       	.word	0x000b	; ????
    24c2:	00 33       	cpi	r16, 0x30	; 48
    24c4:	39 10       	cpse	r3, r9
    24c6:	00 00       	nop
    24c8:	03 7b       	andi	r16, 0xB3	; 179
    24ca:	02 b2       	in	r0, 0x12	; 18
    24cc:	0a 00       	.word	0x000a	; ????
    24ce:	00 38       	cpi	r16, 0x80	; 128
    24d0:	0b 00       	.word	0x000b	; ????
    24d2:	00 33       	cpi	r16, 0x30	; 48
    24d4:	a3 0a       	sbc	r10, r19
    24d6:	00 00       	nop
    24d8:	03 7b       	andi	r16, 0xB3	; 179
    24da:	02 90       	ld	r0, -Z
    24dc:	02 00       	.word	0x0002	; ????
    24de:	00 7e       	andi	r16, 0xE0	; 224
    24e0:	0b 00       	.word	0x000b	; ????
    24e2:	00 32       	cpi	r16, 0x20	; 32
    24e4:	35 05       	cpc	r19, r5
    24e6:	00 00       	nop
    24e8:	03 7c       	andi	r16, 0xC3	; 195
    24ea:	02 76       	andi	r16, 0x62	; 98
    24ec:	0e 00       	.word	0x000e	; ????
    24ee:	00 02       	muls	r16, r16
    24f0:	8c 01       	movw	r16, r24
    24f2:	45 c4       	rjmp	.+2186   	; 0x2d7e <__TEXT_REGION_LENGTH__+0xd7e>
    24f4:	1f 00       	.word	0x001f	; ????
    24f6:	00 de       	rcall	.-1024   	; 0x20f8 <__TEXT_REGION_LENGTH__+0xf8>
    24f8:	07 00       	.word	0x0007	; ????
    24fa:	00 08       	sbc	r0, r0
    24fc:	01 00       	.word	0x0001	; ????
    24fe:	00 03       	mulsu	r16, r16
    2500:	7c 02       	muls	r23, r28
    2502:	95 21       	and	r25, r5
    2504:	00 00       	nop
    2506:	04 fc       	sbrc	r0, 4
    2508:	1f 00       	.word	0x001f	; ????
    250a:	00 ac       	ldd	r0, Z+56	; 0x38
    250c:	0b 00       	.word	0x000b	; ????
    250e:	00 04       	cpc	r0, r0
    2510:	f2 1f       	adc	r31, r18
    2512:	00 00       	nop
    2514:	ca 0b       	sbc	r28, r26
    2516:	00 00       	nop
    2518:	04 e6       	ldi	r16, 0x64	; 100
    251a:	1f 00       	.word	0x001f	; ????
    251c:	00 f2       	brcs	.-128    	; 0x249e <__TEXT_REGION_LENGTH__+0x49e>
    251e:	0b 00       	.word	0x000b	; ????
    2520:	00 04       	cpc	r0, r0
    2522:	dc 1f       	adc	r29, r28
    2524:	00 00       	nop
    2526:	26 0c       	add	r2, r6
    2528:	00 00       	nop
    252a:	04 d2       	rcall	.+1032   	; 0x2934 <__TEXT_REGION_LENGTH__+0x934>
    252c:	1f 00       	.word	0x001f	; ????
    252e:	00 5c       	subi	r16, 0xC0	; 192
    2530:	0c 00       	.word	0x000c	; ????
    2532:	00 45       	sbci	r16, 0x50	; 80
    2534:	46 20       	and	r4, r6
    2536:	00 00       	nop
    2538:	f0 07       	cpc	r31, r16
    253a:	00 00       	nop
    253c:	20 01       	movw	r4, r0
    253e:	00 00       	nop
    2540:	03 3b       	cpi	r16, 0xB3	; 179
    2542:	01 4b       	sbci	r16, 0xB1	; 177
    2544:	21 00       	.word	0x0021	; ????
    2546:	00 04       	cpc	r0, r0
    2548:	5e 20       	and	r5, r14
    254a:	00 00       	nop
    254c:	7e 0c       	add	r7, r14
    254e:	00 00       	nop
    2550:	08 54       	subi	r16, 0x48	; 72
    2552:	20 00       	.word	0x0020	; ????
    2554:	00 65       	ori	r16, 0x50	; 80
    2556:	fa 07       	cpc	r31, r26
    2558:	00 00       	nop
    255a:	61 1a       	sub	r6, r17
    255c:	00 00       	nop
    255e:	19 06       	cpc	r1, r25
    2560:	68 93       	.word	0x9368	; ????
    2562:	01 69       	ori	r16, 0x91	; 145
    2564:	93 01       	movw	r18, r6
    2566:	02 91       	ld	r16, -Z
    2568:	62 00       	.word	0x0062	; ????
    256a:	00 29       	or	r16, r0
    256c:	09 20       	and	r0, r9
    256e:	00 00       	nop
    2570:	fe 07       	cpc	r31, r30
    2572:	00 00       	nop
    2574:	02 08       	sbc	r0, r2
    2576:	00 00       	nop
    2578:	03 3d       	cpi	r16, 0xD3	; 211
    257a:	01 08       	sbc	r0, r1
    257c:	21 20       	and	r2, r1
    257e:	00 00       	nop
    2580:	04 17       	cp	r16, r20
    2582:	20 00       	.word	0x0020	; ????
    2584:	00 9c       	mul	r0, r0
    2586:	0c 00       	.word	0x000c	; ????
    2588:	00 18       	sub	r0, r0
    258a:	fe 07       	cpc	r31, r30
    258c:	00 00       	nop
    258e:	02 08       	sbc	r0, r2
    2590:	00 00       	nop
    2592:	05 2d       	mov	r16, r5
    2594:	20 00       	.word	0x0020	; ????
    2596:	00 b1       	in	r16, 0x00	; 0
    2598:	0c 00       	.word	0x000c	; ????
    259a:	00 22       	and	r0, r16
    259c:	39 20       	and	r3, r9
    259e:	00 00       	nop
    25a0:	fe 07       	cpc	r31, r30
    25a2:	00 00       	nop
    25a4:	02 08       	sbc	r0, r2
    25a6:	00 00       	nop
    25a8:	05 3a       	cpi	r16, 0xA5	; 165
    25aa:	20 00       	.word	0x0020	; ????
    25ac:	00 b1       	in	r16, 0x00	; 0
    25ae:	0c 00       	.word	0x000c	; ????
    25b0:	00 00       	nop
    25b2:	00 00       	nop
    25b4:	00 41       	sbci	r16, 0x10	; 16
    25b6:	20 08       	sbc	r2, r0
    25b8:	00 00       	nop
    25ba:	19 06       	cpc	r1, r25
    25bc:	68 93       	.word	0x9368	; ????
    25be:	01 69       	ori	r16, 0x91	; 145
    25c0:	93 01       	movw	r18, r6
    25c2:	02 7c       	andi	r16, 0xC2	; 194
    25c4:	00 19       	sub	r16, r0
    25c6:	06 66       	ori	r16, 0x66	; 102
    25c8:	93 01       	movw	r18, r6
    25ca:	67 93       	lat	Z, r22
    25cc:	01 02       	muls	r16, r17
    25ce:	91 62       	ori	r25, 0x21	; 33
    25d0:	00 00       	nop
    25d2:	09 d4       	rcall	.+2066   	; 0x2de6 <__TEXT_REGION_LENGTH__+0xde6>
    25d4:	0f 00       	.word	0x000f	; ????
    25d6:	00 03       	mulsu	r16, r16
    25d8:	c0 21       	and	r28, r0
    25da:	00 00       	nop
    25dc:	f7 21       	and	r31, r7
    25de:	00 00       	nop
    25e0:	07 f0       	brie	.+0      	; 0x25e2 <__TEXT_REGION_LENGTH__+0x5e2>
    25e2:	0c 00       	.word	0x000c	; ????
    25e4:	00 5c       	subi	r16, 0xC0	; 192
    25e6:	1a 00       	.word	0x001a	; ????
    25e8:	00 01       	movw	r0, r0
    25ea:	2a 64       	ori	r18, 0x4A	; 74
    25ec:	00 03       	mulsu	r16, r16
    25ee:	45 01       	movw	r8, r10
    25f0:	12 12       	cpse	r1, r18
    25f2:	00 00       	nop
    25f4:	2a 6c       	ori	r18, 0xCA	; 202
    25f6:	65 6e       	ori	r22, 0xE5	; 229
    25f8:	00 03       	mulsu	r16, r16
    25fa:	45 01       	movw	r8, r10
    25fc:	b2 0a       	sbc	r11, r18
    25fe:	00 00       	nop
    2600:	2a 73       	andi	r18, 0x3A	; 58
    2602:	00 03       	mulsu	r16, r16
    2604:	45 01       	movw	r8, r10
    2606:	be 1f       	adc	r27, r30
    2608:	00 00       	nop
    260a:	25 46       	sbci	r18, 0x65	; 101
    260c:	08 00       	.word	0x0008	; ????
    260e:	00 03       	mulsu	r16, r16
    2610:	45 01       	movw	r8, r10
    2612:	19 09       	sbc	r17, r9
    2614:	00 00       	nop
    2616:	00 42       	sbci	r16, 0x20	; 32
    2618:	41 0b       	sbc	r20, r17
    261a:	00 00       	nop
    261c:	52 08       	sbc	r5, r2
    261e:	00 00       	nop
    2620:	d6 08       	sbc	r13, r6
    2622:	00 00       	nop
    2624:	c5 0c       	add	r12, r5
    2626:	00 00       	nop
    2628:	11 22       	and	r1, r17
    262a:	00 00       	nop
    262c:	01 42       	sbci	r16, 0x21	; 33
    262e:	23 00       	.word	0x0023	; ????
    2630:	00 21       	and	r16, r0
    2632:	f0 0c       	add	r15, r0
    2634:	00 00       	nop
    2636:	4f 13       	cpse	r20, r31
    2638:	00 00       	nop
    263a:	01 40       	sbci	r16, 0x01	; 1
    263c:	0d 00       	.word	0x000d	; ????
    263e:	00 33       	cpi	r16, 0x30	; 48
    2640:	d0 08       	sbc	r13, r0
    2642:	00 00       	nop
    2644:	03 72       	andi	r16, 0x23	; 35
    2646:	02 12       	cpse	r0, r18
    2648:	12 00       	.word	0x0012	; ????
    264a:	00 86       	std	Z+8, r0	; 0x08
    264c:	0d 00       	.word	0x000d	; ????
    264e:	00 33       	cpi	r16, 0x30	; 48
    2650:	39 10       	cpse	r3, r9
    2652:	00 00       	nop
    2654:	03 72       	andi	r16, 0x23	; 35
    2656:	02 b2       	in	r0, 0x12	; 18
    2658:	0a 00       	.word	0x000a	; ????
    265a:	00 bc       	out	0x20, r0	; 32
    265c:	0d 00       	.word	0x000d	; ????
    265e:	00 33       	cpi	r16, 0x30	; 48
    2660:	a3 0a       	sbc	r10, r19
    2662:	00 00       	nop
    2664:	03 72       	andi	r16, 0x23	; 35
    2666:	02 90       	ld	r0, -Z
    2668:	02 00       	.word	0x0002	; ????
    266a:	00 f2       	brcs	.-128    	; 0x25ec <__TEXT_REGION_LENGTH__+0x5ec>
    266c:	0d 00       	.word	0x000d	; ????
    266e:	00 32       	cpi	r16, 0x20	; 32
    2670:	35 05       	cpc	r19, r5
    2672:	00 00       	nop
    2674:	03 73       	andi	r16, 0x33	; 51
    2676:	02 76       	andi	r16, 0x62	; 98
    2678:	0e 00       	.word	0x000e	; ????
    267a:	00 02       	muls	r16, r16
    267c:	8c 01       	movw	r16, r24
    267e:	45 b2       	in	r4, 0x15	; 21
    2680:	21 00       	.word	0x0021	; ????
    2682:	00 76       	andi	r16, 0x60	; 96
    2684:	08 00       	.word	0x0008	; ????
    2686:	00 38       	cpi	r16, 0x80	; 128
    2688:	01 00       	.word	0x0001	; ????
    268a:	00 03       	mulsu	r16, r16
    268c:	73 02       	muls	r23, r19
    268e:	25 23       	and	r18, r21
    2690:	00 00       	nop
    2692:	04 ea       	ldi	r16, 0xA4	; 164
    2694:	21 00       	.word	0x0021	; ????
    2696:	00 20       	and	r0, r0
    2698:	0e 00       	.word	0x000e	; ????
    269a:	00 04       	cpc	r0, r0
    269c:	e0 21       	and	r30, r0
    269e:	00 00       	nop
    26a0:	4a 0e       	add	r4, r26
    26a2:	00 00       	nop
    26a4:	04 d4       	rcall	.+2056   	; 0x2eae <__TEXT_REGION_LENGTH__+0xeae>
    26a6:	21 00       	.word	0x0021	; ????
    26a8:	00 72       	andi	r16, 0x20	; 32
    26aa:	0e 00       	.word	0x000e	; ????
    26ac:	00 04       	cpc	r0, r0
    26ae:	ca 21       	and	r28, r10
    26b0:	00 00       	nop
    26b2:	a8 0e       	add	r10, r24
    26b4:	00 00       	nop
    26b6:	04 c0       	rjmp	.+8      	; 0x26c0 <__TEXT_REGION_LENGTH__+0x6c0>
    26b8:	21 00       	.word	0x0021	; ????
    26ba:	00 de       	rcall	.-1024   	; 0x22bc <__TEXT_REGION_LENGTH__+0x2bc>
    26bc:	0e 00       	.word	0x000e	; ????
    26be:	00 45       	sbci	r16, 0x50	; 80
    26c0:	46 20       	and	r4, r6
    26c2:	00 00       	nop
    26c4:	88 08       	sbc	r8, r8
    26c6:	00 00       	nop
    26c8:	50 01       	movw	r10, r0
    26ca:	00 00       	nop
    26cc:	03 46       	sbci	r16, 0x63	; 99
    26ce:	01 d7       	rcall	.+3586   	; 0x34d2 <__TEXT_REGION_LENGTH__+0x14d2>
    26d0:	22 00       	.word	0x0022	; ????
    26d2:	00 04       	cpc	r0, r0
    26d4:	5e 20       	and	r5, r14
    26d6:	00 00       	nop
    26d8:	00 0f       	add	r16, r16
    26da:	00 00       	nop
    26dc:	08 54       	subi	r16, 0x48	; 72
    26de:	20 00       	.word	0x0020	; ????
    26e0:	00 65       	ori	r16, 0x50	; 80
    26e2:	92 08       	sbc	r9, r2
    26e4:	00 00       	nop
    26e6:	61 1a       	sub	r6, r17
    26e8:	00 00       	nop
    26ea:	19 06       	cpc	r1, r25
    26ec:	68 93       	.word	0x9368	; ????
    26ee:	01 69       	ori	r16, 0x91	; 145
    26f0:	93 01       	movw	r18, r6
    26f2:	02 91       	ld	r16, -Z
    26f4:	67 00       	.word	0x0067	; ????
    26f6:	00 29       	or	r16, r0
    26f8:	09 20       	and	r0, r9
    26fa:	00 00       	nop
    26fc:	94 08       	sbc	r9, r4
    26fe:	00 00       	nop
    2700:	98 08       	sbc	r9, r8
    2702:	00 00       	nop
    2704:	03 48       	sbci	r16, 0x83	; 131
    2706:	01 04       	cpc	r0, r1
    2708:	21 20       	and	r2, r1
    270a:	00 00       	nop
    270c:	2a 0f       	add	r18, r26
    270e:	00 00       	nop
    2710:	04 17       	cp	r16, r20
    2712:	20 00       	.word	0x0020	; ????
    2714:	00 40       	sbci	r16, 0x00	; 0
    2716:	0f 00       	.word	0x000f	; ????
    2718:	00 18       	sub	r0, r0
    271a:	94 08       	sbc	r9, r4
    271c:	00 00       	nop
    271e:	98 08       	sbc	r9, r8
    2720:	00 00       	nop
    2722:	05 2d       	mov	r16, r5
    2724:	20 00       	.word	0x0020	; ????
    2726:	00 55       	subi	r16, 0x50	; 80
    2728:	0f 00       	.word	0x000f	; ????
    272a:	00 22       	and	r0, r16
    272c:	39 20       	and	r3, r9
    272e:	00 00       	nop
    2730:	94 08       	sbc	r9, r4
    2732:	00 00       	nop
    2734:	98 08       	sbc	r9, r8
    2736:	00 00       	nop
    2738:	05 3a       	cpi	r16, 0xA5	; 165
    273a:	20 00       	.word	0x0020	; ????
    273c:	00 55       	subi	r16, 0x50	; 80
    273e:	0f 00       	.word	0x000f	; ????
    2740:	00 00       	nop
    2742:	00 00       	nop
    2744:	00 41       	sbci	r16, 0x10	; 16
    2746:	ae 08       	sbc	r10, r14
    2748:	00 00       	nop
    274a:	19 06       	cpc	r1, r25
    274c:	68 93       	.word	0x9368	; ????
    274e:	01 69       	ori	r16, 0x91	; 145
    2750:	93 01       	movw	r18, r6
    2752:	02 7e       	andi	r16, 0xE2	; 226
    2754:	00 19       	sub	r16, r0
    2756:	06 66       	ori	r16, 0x66	; 102
    2758:	93 01       	movw	r18, r6
    275a:	67 93       	lat	Z, r22
    275c:	01 02       	muls	r16, r17
    275e:	91 67       	ori	r25, 0x71	; 113
    2760:	00 00       	nop
    2762:	0b 02       	muls	r16, r27
    2764:	a2 0a       	sbc	r10, r18
    2766:	00 00       	nop
    2768:	11 42       	sbci	r17, 0x21	; 33
    276a:	23 00       	.word	0x0023	; ????
    276c:	00 4a       	sbci	r16, 0xA0	; 160
    276e:	3b 0a       	sbc	r3, r27
    2770:	00 00       	nop
    2772:	d6 08       	sbc	r13, r6
    2774:	00 00       	nop
    2776:	dc 08       	sbc	r13, r12
    2778:	00 00       	nop
    277a:	03 92       	.word	0x9203	; ????
    277c:	20 02       	muls	r18, r16
    277e:	67 23       	and	r22, r23
    2780:	00 00       	nop
    2782:	01 76       	andi	r16, 0x61	; 97
    2784:	23 00       	.word	0x0023	; ????
    2786:	00 21       	and	r16, r0
    2788:	f0 0c       	add	r15, r0
    278a:	00 00       	nop
    278c:	48 23       	and	r20, r24
    278e:	00 00       	nop
    2790:	01 69       	ori	r16, 0x91	; 145
    2792:	0f 00       	.word	0x000f	; ????
    2794:	00 00       	nop
    2796:	4a 5e       	subi	r20, 0xEA	; 234
    2798:	0a 00       	.word	0x000a	; ????
    279a:	00 dc       	rcall	.-2048   	; 0x1f9c <__data_load_end+0x1032>
    279c:	08 00       	.word	0x0008	; ????
    279e:	00 e4       	ldi	r16, 0x40	; 64
    27a0:	08 00       	.word	0x0008	; ????
    27a2:	00 03       	mulsu	r16, r16
    27a4:	92 20       	and	r9, r2
    27a6:	02 90       	ld	r0, -Z
    27a8:	23 00       	.word	0x0023	; ????
    27aa:	00 01       	movw	r0, r0
    27ac:	9f 23       	and	r25, r31
    27ae:	00 00       	nop
    27b0:	21 f0       	breq	.+8      	; 0x27ba <__TEXT_REGION_LENGTH__+0x7ba>
    27b2:	0c 00       	.word	0x000c	; ????
    27b4:	00 da       	rcall	.-3072   	; 0x1bb6 <__data_load_end+0xc4c>
    27b6:	0a 00       	.word	0x000a	; ????
    27b8:	00 01       	movw	r0, r0
    27ba:	8f 0f       	add	r24, r31
    27bc:	00 00       	nop
    27be:	00 42       	sbci	r16, 0x20	; 32
    27c0:	81 0a       	sbc	r8, r17
    27c2:	00 00       	nop
    27c4:	e4 08       	sbc	r14, r4
    27c6:	00 00       	nop
    27c8:	26 09       	sbc	r18, r6
    27ca:	00 00       	nop
    27cc:	b7 0f       	add	r27, r23
    27ce:	00 00       	nop
    27d0:	b9 23       	and	r27, r25
    27d2:	00 00       	nop
    27d4:	01 65       	ori	r16, 0x51	; 81
    27d6:	24 00       	.word	0x0024	; ????
    27d8:	00 21       	and	r16, r0
    27da:	f0 0c       	add	r15, r0
    27dc:	00 00       	nop
    27de:	da 0a       	sbc	r13, r26
    27e0:	00 00       	nop
    27e2:	01 19       	sub	r16, r1
    27e4:	10 00       	.word	0x0010	; ????
    27e6:	00 62       	ori	r16, 0x20	; 32
    27e8:	39 10       	cpse	r3, r9
    27ea:	00 00       	nop
    27ec:	03 63       	ori	r16, 0x33	; 51
    27ee:	b2 0a       	sbc	r11, r18
    27f0:	00 00       	nop
    27f2:	3f 10       	cpse	r3, r15
    27f4:	00 00       	nop
    27f6:	0e 65       	ori	r16, 0x5E	; 94
    27f8:	24 00       	.word	0x0024	; ????
    27fa:	00 f6       	brcc	.-128    	; 0x277c <__TEXT_REGION_LENGTH__+0x77c>
    27fc:	08 00       	.word	0x0008	; ????
    27fe:	00 fc       	sbrc	r0, 0
    2800:	08 00       	.word	0x0008	; ????
    2802:	00 03       	mulsu	r16, r16
    2804:	63 07       	cpc	r22, r19
    2806:	24 00       	.word	0x0024	; ????
    2808:	00 43       	sbci	r16, 0x30	; 48
    280a:	2a 06       	cpc	r2, r26
    280c:	00 00       	nop
    280e:	03 63       	ori	r16, 0x33	; 51
    2810:	29 00       	.word	0x0029	; ????
    2812:	00 00       	nop
    2814:	75 10       	cpse	r7, r5
    2816:	00 00       	nop
    2818:	63 f0       	brvs	.+24     	; 0x2832 <__TEXT_REGION_LENGTH__+0x832>
    281a:	0c 00       	.word	0x000c	; ????
    281c:	00 cf       	rjmp	.-512    	; 0x261e <__TEXT_REGION_LENGTH__+0x61e>
    281e:	0a 00       	.word	0x000a	; ????
    2820:	00 01       	movw	r0, r0
    2822:	89 10       	cpse	r8, r9
    2824:	00 00       	nop
    2826:	00 12       	cpse	r0, r16
    2828:	18 12       	cpse	r1, r24
    282a:	00 00       	nop
    282c:	fc 08       	sbc	r15, r12
    282e:	00 00       	nop
    2830:	16 09       	sbc	r17, r6
    2832:	00 00       	nop
    2834:	03 63       	ori	r16, 0x33	; 51
    2836:	04 46       	sbci	r16, 0x64	; 100
    2838:	12 00       	.word	0x0012	; ????
    283a:	00 9e       	mul	r0, r16
    283c:	10 00       	.word	0x0010	; ????
    283e:	00 04       	cpc	r0, r0
    2840:	3b 12       	cpse	r3, r27
    2842:	00 00       	nop
    2844:	b2 10       	cpse	r11, r2
    2846:	00 00       	nop
    2848:	04 30       	cpi	r16, 0x04	; 4
    284a:	12 00       	.word	0x0012	; ????
    284c:	00 e8       	ldi	r16, 0x80	; 128
    284e:	10 00       	.word	0x0010	; ????
    2850:	00 04       	cpc	r0, r0
    2852:	26 12       	cpse	r2, r22
    2854:	00 00       	nop
    2856:	fd 10       	cpse	r15, r13
    2858:	00 00       	nop
    285a:	41 16       	cp	r4, r17
    285c:	09 00       	.word	0x0009	; ????
    285e:	00 19       	sub	r16, r0
    2860:	06 68       	ori	r16, 0x86	; 134
    2862:	93 01       	movw	r18, r6
    2864:	69 93       	st	Y+, r22
    2866:	01 03       	mulsu	r16, r17
    2868:	f3 01       	movw	r30, r6
    286a:	68 19       	sub	r22, r8
    286c:	06 66       	ori	r16, 0x66	; 102
    286e:	93 01       	movw	r18, r6
    2870:	67 93       	lat	Z, r22
    2872:	01 02       	muls	r16, r17
    2874:	8c 01       	movw	r16, r24
    2876:	19 06       	cpc	r1, r25
    2878:	64 93       	xch	Z, r22
    287a:	01 65       	ori	r16, 0x51	; 81
    287c:	93 01       	movw	r18, r6
    287e:	03 f3       	brvs	.-64     	; 0x2840 <__TEXT_REGION_LENGTH__+0x840>
    2880:	01 66       	ori	r16, 0x61	; 97
    2882:	00 00       	nop
    2884:	00 1a       	sub	r0, r16
    2886:	a4 08       	sbc	r10, r4
    2888:	00 00       	nop
    288a:	03 8f       	std	Z+27, r16	; 0x1b
    288c:	01 e9       	ldi	r16, 0x91	; 145
    288e:	0e 00       	.word	0x000e	; ????
    2890:	00 0b       	sbc	r16, r16
    2892:	18 01       	movw	r2, r16
    2894:	26 09       	sbc	r18, r6
    2896:	00 00       	nop
    2898:	28 09       	sbc	r18, r8
    289a:	00 00       	nop
    289c:	03 92       	.word	0x9203	; ????
    289e:	20 02       	muls	r18, r16
    28a0:	01 8c       	ldd	r0, Z+25	; 0x19
    28a2:	24 00       	.word	0x0024	; ????
    28a4:	00 90 01 28 	lds	r0, 0x2801	; 0x802801 <__bss_end+0x25e2>
    28a8:	09 00       	.word	0x0009	; ????
    28aa:	00 00       	nop
    28ac:	91 01       	movw	r18, r2
    28ae:	01 62       	ori	r16, 0x21	; 33
    28b0:	11 00       	.word	0x0011	; ????
    28b2:	00 01       	movw	r0, r0
    28b4:	23 01       	movw	r4, r6
    28b6:	28 09       	sbc	r18, r8
    28b8:	00 00       	nop
    28ba:	bc 09       	sbc	r27, r12
    28bc:	00 00       	nop
    28be:	23 11       	cpse	r18, r3
    28c0:	00 00       	nop
    28c2:	01 c4       	rjmp	.+2050   	; 0x30c6 <__TEXT_REGION_LENGTH__+0x10c6>
    28c4:	24 00       	.word	0x0024	; ????
    28c6:	00 26       	eor	r0, r16
    28c8:	6d 00       	.word	0x006d	; ????
    28ca:	01 37       	cpi	r16, 0x71	; 113
    28cc:	01 34       	cpi	r16, 0x41	; 65
    28ce:	00 00       	nop
    28d0:	00 a0       	ldd	r0, Z+32	; 0x20
    28d2:	11 00       	.word	0x0011	; ????
    28d4:	00 26       	eor	r0, r16
    28d6:	66 00       	.word	0x0066	; ????
    28d8:	01 38       	cpi	r16, 0x81	; 129
    28da:	01 50       	subi	r16, 0x01	; 1
    28dc:	00 00       	nop
    28de:	00 e3       	ldi	r16, 0x30	; 48
    28e0:	11 00       	.word	0x0011	; ????
    28e2:	00 00       	nop
    28e4:	36 dd       	rcall	.-1428   	; 0x2352 <__TEXT_REGION_LENGTH__+0x352>
    28e6:	0f 00       	.word	0x000f	; ????
    28e8:	00 05       	cpc	r16, r0
    28ea:	5d 01       	movw	r10, r26
    28ec:	66 e4       	ldi	r22, 0x46	; 70
    28ee:	0e 00       	.word	0x000e	; ????
    28f0:	00 01       	movw	r0, r0
    28f2:	d9 03       	fmulsu	r21, r17
    28f4:	01 66       	ori	r16, 0x61	; 97
    28f6:	ef 04       	cpc	r14, r15
    28f8:	00 00       	nop
    28fa:	01 b2       	in	r0, 0x11	; 17
    28fc:	03 01       	movw	r0, r6
    28fe:	36 a6       	std	Z+46, r3	; 0x2e
    2900:	13 00       	.word	0x0013	; ????
    2902:	00 07       	cpc	r16, r16
    2904:	a9 01       	movw	r20, r18
    2906:	36 ff       	sbrs	r19, 6
    2908:	0f 00       	.word	0x000f	; ????
    290a:	00 05       	cpc	r16, r0
    290c:	6a 01       	movw	r12, r20
    290e:	36 42       	sbci	r19, 0x26	; 38
    2910:	0f 00       	.word	0x000f	; ????
    2912:	00 05       	cpc	r16, r0
    2914:	3d 01       	movw	r6, r26
    2916:	1e 1c       	adc	r1, r14
    2918:	10 00       	.word	0x0010	; ????
    291a:	00 05       	cpc	r16, r0
    291c:	83 01       	movw	r16, r6
    291e:	19 25       	eor	r17, r9
    2920:	00 00       	nop
    2922:	0a 58       	subi	r16, 0x8A	; 138
    2924:	07 00       	.word	0x0007	; ????
    2926:	00 05       	cpc	r16, r0
    2928:	85 19       	sub	r24, r5
    292a:	25 00       	.word	0x0025	; ????
    292c:	00 0d       	add	r16, r0
    292e:	63 74       	andi	r22, 0x43	; 67
    2930:	78 00       	.word	0x0078	; ????
    2932:	05 86       	std	Z+13, r0	; 0x0d
    2934:	28 0e       	add	r2, r24
    2936:	00 00       	nop
    2938:	00 2d       	mov	r16, r0
    293a:	3b 00       	.word	0x003b	; ????
    293c:	00 00       	nop
    293e:	29 25       	eor	r18, r9
    2940:	00 00       	nop
    2942:	2e 87       	std	Y+14, r18	; 0x0e
    2944:	00 00       	nop
    2946:	00 17       	cp	r16, r16
    2948:	00 61       	ori	r16, 0x10	; 16
    294a:	fc 05       	cpc	r31, r12
    294c:	00 00       	nop
    294e:	07 d4       	rcall	.+2062   	; 0x315e <__TEXT_REGION_LENGTH__+0x115e>
    2950:	3b 00       	.word	0x003b	; ????
    2952:	00 00       	nop
    2954:	01 1e       	adc	r0, r17
    2956:	10 05       	cpc	r17, r0
    2958:	00 00       	nop
    295a:	05 4f       	sbci	r16, 0xF5	; 245
    295c:	01 4e       	sbci	r16, 0xE1	; 225
    295e:	25 00       	.word	0x0025	; ????
    2960:	00 92 01 63 	sts	0x6301, r0	; 0x806301 <__bss_end+0x60e2>
    2964:	74 78       	andi	r23, 0x84	; 132
    2966:	00 05       	cpc	r16, r0
    2968:	4f 4e       	sbci	r20, 0xEF	; 239
    296a:	25 00       	.word	0x0025	; ????
    296c:	00 00       	nop
    296e:	0b 02       	muls	r16, r27
    2970:	28 0e       	add	r2, r24
    2972:	00 00       	nop
    2974:	1e 35       	cpi	r17, 0x5E	; 94
    2976:	09 00       	.word	0x0009	; ????
    2978:	00 05       	cpc	r16, r0
    297a:	c0 01       	movw	r24, r0
    297c:	ac 25       	eor	r26, r12
    297e:	00 00       	nop
    2980:	06 30       	cpi	r16, 0x06	; 6
    2982:	08 00       	.word	0x0008	; ????
    2984:	00 05       	cpc	r16, r0
    2986:	c0 4e       	sbci	r28, 0xE0	; 224
    2988:	25 00       	.word	0x0025	; ????
    298a:	00 0a       	sbc	r0, r16
    298c:	5c 03       	fmul	r21, r20
    298e:	00 00       	nop
    2990:	05 c5       	rjmp	.+2570   	; 0x339c <__TEXT_REGION_LENGTH__+0x139c>
    2992:	3b 00       	.word	0x003b	; ????
    2994:	00 00       	nop
    2996:	0d 72       	andi	r16, 0x2D	; 45
    2998:	00 05       	cpc	r16, r0
    299a:	c7 3b       	cpi	r28, 0xB7	; 183
    299c:	00 00       	nop
    299e:	00 0d       	add	r16, r0
    29a0:	67 00       	.word	0x0067	; ????
    29a2:	05 c7       	rjmp	.+3594   	; 0x37ae <__TEXT_REGION_LENGTH__+0x17ae>
    29a4:	3b 00       	.word	0x003b	; ????
    29a6:	00 00       	nop
    29a8:	0d 62       	ori	r16, 0x2D	; 45
    29aa:	00 05       	cpc	r16, r0
    29ac:	c7 3b       	cpi	r28, 0xB7	; 183
    29ae:	00 00       	nop
    29b0:	00 10       	cpse	r0, r0
    29b2:	0a 1d       	adc	r16, r10
    29b4:	07 00       	.word	0x0007	; ????
    29b6:	00 05       	cpc	r16, r0
    29b8:	cc 3b       	cpi	r28, 0xBC	; 188
    29ba:	00 00       	nop
    29bc:	00 10       	cpse	r0, r0
    29be:	0a 60       	ori	r16, 0x0A	; 10
    29c0:	07 00       	.word	0x0007	; ????
    29c2:	00 05       	cpc	r16, r0
    29c4:	ce 3b       	cpi	r28, 0xBE	; 190
    29c6:	00 00       	nop
    29c8:	00 00       	nop
    29ca:	00 00       	nop
    29cc:	4b 90       	.word	0x904b	; ????
    29ce:	06 00       	.word	0x0006	; ????
    29d0:	00 01       	movw	r0, r0
    29d2:	01 03       	mulsu	r16, r17
    29d4:	26 00       	.word	0x0026	; ????
    29d6:	00 06       	cpc	r0, r16
    29d8:	30 08       	sbc	r3, r0
    29da:	00 00       	nop
    29dc:	05 c0       	rjmp	.+10     	; 0x29e8 <__TEXT_REGION_LENGTH__+0x9e8>
    29de:	4e 25       	eor	r20, r14
    29e0:	00 00       	nop
    29e2:	0a 5c       	subi	r16, 0xCA	; 202
    29e4:	03 00       	.word	0x0003	; ????
    29e6:	00 05       	cpc	r16, r0
    29e8:	c5 3b       	cpi	r28, 0xB5	; 181
    29ea:	00 00       	nop
    29ec:	00 0d       	add	r16, r0
    29ee:	72 00       	.word	0x0072	; ????
    29f0:	05 c7       	rjmp	.+3594   	; 0x37fc <__TEXT_REGION_LENGTH__+0x17fc>
    29f2:	3b 00       	.word	0x003b	; ????
    29f4:	00 00       	nop
    29f6:	0d 67       	ori	r16, 0x7D	; 125
    29f8:	00 05       	cpc	r16, r0
    29fa:	c7 3b       	cpi	r28, 0xB7	; 183
    29fc:	00 00       	nop
    29fe:	00 0d       	add	r16, r0
    2a00:	62 00       	.word	0x0062	; ????
    2a02:	05 c7       	rjmp	.+3594   	; 0x380e <__TEXT_REGION_LENGTH__+0x180e>
    2a04:	3b 00       	.word	0x003b	; ????
    2a06:	00 00       	nop
    2a08:	10 0a       	sbc	r1, r16
    2a0a:	1d 07       	cpc	r17, r29
    2a0c:	00 00       	nop
    2a0e:	05 cc       	rjmp	.-2038   	; 0x221a <__TEXT_REGION_LENGTH__+0x21a>
    2a10:	3b 00       	.word	0x003b	; ????
    2a12:	00 00       	nop
    2a14:	10 0a       	sbc	r1, r16
    2a16:	60 07       	cpc	r22, r16
    2a18:	00 00       	nop
    2a1a:	05 ce       	rjmp	.-1014   	; 0x2626 <__TEXT_REGION_LENGTH__+0x626>
    2a1c:	3b 00       	.word	0x003b	; ????
    2a1e:	00 00       	nop
    2a20:	00 00       	nop
    2a22:	00 1e       	adc	r0, r16
    2a24:	94 0b       	sbc	r25, r20
    2a26:	00 00       	nop
    2a28:	05 a4       	ldd	r0, Z+45	; 0x2d
    2a2a:	01 5f       	subi	r16, 0xF1	; 241
    2a2c:	26 00       	.word	0x0026	; ????
    2a2e:	00 06       	cpc	r0, r16
    2a30:	30 08       	sbc	r3, r0
    2a32:	00 00       	nop
    2a34:	05 a4       	ldd	r0, Z+45	; 0x2d
    2a36:	4e 25       	eor	r20, r14
    2a38:	00 00       	nop
    2a3a:	10 0a       	sbc	r1, r16
    2a3c:	5c 03       	fmul	r21, r20
    2a3e:	00 00       	nop
    2a40:	05 aa       	std	Z+53, r0	; 0x35
    2a42:	3b 00       	.word	0x003b	; ????
    2a44:	00 00       	nop
    2a46:	10 0d       	add	r17, r0
    2a48:	72 00       	.word	0x0072	; ????
    2a4a:	05 ac       	ldd	r0, Z+61	; 0x3d
    2a4c:	3b 00       	.word	0x003b	; ????
    2a4e:	00 00       	nop
    2a50:	0d 67       	ori	r16, 0x7D	; 125
    2a52:	00 05       	cpc	r16, r0
    2a54:	ac 3b       	cpi	r26, 0xBC	; 188
    2a56:	00 00       	nop
    2a58:	00 0d       	add	r16, r0
    2a5a:	62 00       	.word	0x0062	; ????
    2a5c:	05 ac       	ldd	r0, Z+61	; 0x3d
    2a5e:	3b 00       	.word	0x003b	; ????
    2a60:	00 00       	nop
    2a62:	10 0a       	sbc	r1, r16
    2a64:	1d 07       	cpc	r17, r29
    2a66:	00 00       	nop
    2a68:	05 b2       	in	r0, 0x15	; 21
    2a6a:	3b 00       	.word	0x003b	; ????
    2a6c:	00 00       	nop
    2a6e:	10 0a       	sbc	r1, r16
    2a70:	60 07       	cpc	r22, r16
    2a72:	00 00       	nop
    2a74:	05 b5       	in	r16, 0x25	; 37
    2a76:	3b 00       	.word	0x003b	; ????
    2a78:	00 00       	nop
    2a7a:	00 00       	nop
    2a7c:	00 00       	nop
    2a7e:	00 4b       	sbci	r16, 0xB0	; 176
    2a80:	18 09       	sbc	r17, r8
    2a82:	00 00       	nop
    2a84:	01 01       	movw	r0, r2
    2a86:	ba 26       	eor	r11, r26
    2a88:	00 00       	nop
    2a8a:	06 30       	cpi	r16, 0x06	; 6
    2a8c:	08 00       	.word	0x0008	; ????
    2a8e:	00 05       	cpc	r16, r0
    2a90:	a4 4e       	sbci	r26, 0xE4	; 228
    2a92:	25 00       	.word	0x0025	; ????
    2a94:	00 10       	cpse	r0, r0
    2a96:	0a 5c       	subi	r16, 0xCA	; 202
    2a98:	03 00       	.word	0x0003	; ????
    2a9a:	00 05       	cpc	r16, r0
    2a9c:	aa 3b       	cpi	r26, 0xBA	; 186
    2a9e:	00 00       	nop
    2aa0:	00 10       	cpse	r0, r0
    2aa2:	0d 72       	andi	r16, 0x2D	; 45
    2aa4:	00 05       	cpc	r16, r0
    2aa6:	ac 3b       	cpi	r26, 0xBC	; 188
    2aa8:	00 00       	nop
    2aaa:	00 0d       	add	r16, r0
    2aac:	67 00       	.word	0x0067	; ????
    2aae:	05 ac       	ldd	r0, Z+61	; 0x3d
    2ab0:	3b 00       	.word	0x003b	; ????
    2ab2:	00 00       	nop
    2ab4:	0d 62       	ori	r16, 0x2D	; 45
    2ab6:	00 05       	cpc	r16, r0
    2ab8:	ac 3b       	cpi	r26, 0xBC	; 188
    2aba:	00 00       	nop
    2abc:	00 10       	cpse	r0, r0
    2abe:	0a 1d       	adc	r16, r10
    2ac0:	07 00       	.word	0x0007	; ????
    2ac2:	00 05       	cpc	r16, r0
    2ac4:	b2 3b       	cpi	r27, 0xB2	; 178
    2ac6:	00 00       	nop
    2ac8:	00 10       	cpse	r0, r0
    2aca:	0a 60       	ori	r16, 0x0A	; 10
    2acc:	07 00       	.word	0x0007	; ????
    2ace:	00 05       	cpc	r16, r0
    2ad0:	b5 3b       	cpi	r27, 0xB5	; 181
	...
    2ada:	1e 35       	cpi	r17, 0x5E	; 94
    2adc:	08 00       	.word	0x0008	; ????
    2ade:	00 05       	cpc	r16, r0
    2ae0:	d8 01       	movw	r26, r16
    2ae2:	dd 26       	eor	r13, r29
    2ae4:	00 00       	nop
    2ae6:	06 30       	cpi	r16, 0x06	; 6
    2ae8:	08 00       	.word	0x0008	; ????
    2aea:	00 05       	cpc	r16, r0
    2aec:	d8 4e       	sbci	r29, 0xE8	; 232
    2aee:	25 00       	.word	0x0025	; ????
    2af0:	00 0a       	sbc	r0, r16
    2af2:	f4 0b       	sbc	r31, r20
    2af4:	00 00       	nop
    2af6:	05 e1       	ldi	r16, 0x15	; 21
    2af8:	3b 00       	.word	0x003b	; ????
    2afa:	00 00       	nop
    2afc:	00 4b       	sbci	r16, 0xB0	; 176
    2afe:	c4 01       	movw	r24, r8
    2b00:	00 00       	nop
    2b02:	01 01       	movw	r0, r2
    2b04:	ff 26       	eor	r15, r31
    2b06:	00 00       	nop
    2b08:	06 30       	cpi	r16, 0x06	; 6
    2b0a:	08 00       	.word	0x0008	; ????
    2b0c:	00 05       	cpc	r16, r0
    2b0e:	d8 4e       	sbci	r29, 0xE8	; 232
    2b10:	25 00       	.word	0x0025	; ????
    2b12:	00 0a       	sbc	r0, r16
    2b14:	f4 0b       	sbc	r31, r20
    2b16:	00 00       	nop
    2b18:	05 e1       	ldi	r16, 0x15	; 21
    2b1a:	3b 00       	.word	0x003b	; ????
    2b1c:	00 00       	nop
    2b1e:	00 36       	cpi	r16, 0x60	; 96
    2b20:	cc 13       	cpse	r28, r28
    2b22:	00 00       	nop
    2b24:	05 98       	cbi	0x00, 5	; 0
    2b26:	01 1e       	adc	r0, r17
    2b28:	35 07       	cpc	r19, r21
    2b2a:	00 00       	nop
    2b2c:	07 c3       	rjmp	.+1550   	; 0x313c <__TEXT_REGION_LENGTH__+0x113c>
    2b2e:	01 2a       	or	r0, r17
    2b30:	27 00       	.word	0x0027	; ????
    2b32:	00 06       	cpc	r0, r16
    2b34:	d0 08       	sbc	r13, r0
    2b36:	00 00       	nop
    2b38:	07 c3       	rjmp	.+1550   	; 0x3148 <__TEXT_REGION_LENGTH__+0x1148>
    2b3a:	3b 00       	.word	0x003b	; ????
    2b3c:	00 00       	nop
    2b3e:	0a ac       	ldd	r0, Y+58	; 0x3a
    2b40:	0d 00       	.word	0x000d	; ????
    2b42:	00 07       	cpc	r16, r16
    2b44:	c4 3b       	cpi	r28, 0xB4	; 180
    2b46:	00 00       	nop
    2b48:	00 00       	nop
    2b4a:	93 01       	movw	r18, r6
    2b4c:	01 a2       	std	Z+33, r0	; 0x21
    2b4e:	11 00       	.word	0x0011	; ????
    2b50:	00 0c       	add	r0, r0
    2b52:	03 b2       	in	r0, 0x13	; 19
    2b54:	0a 00       	.word	0x000a	; ????
    2b56:	00 01       	movw	r0, r0
    2b58:	62 0b       	sbc	r22, r18
    2b5a:	00 00       	nop
    2b5c:	14 0e       	add	r1, r20
    2b5e:	00 00       	nop
    2b60:	24 12       	cpse	r2, r20
    2b62:	00 00       	nop
    2b64:	01 c1       	rjmp	.+514    	; 0x2d68 <__TEXT_REGION_LENGTH__+0xd68>
    2b66:	2c 00       	.word	0x002c	; ????
    2b68:	00 0e       	add	r0, r16
    2b6a:	cc 24       	eor	r12, r12
    2b6c:	00 00       	nop
    2b6e:	76 0b       	sbc	r23, r22
    2b70:	00 00       	nop
    2b72:	8e 0b       	sbc	r24, r30
    2b74:	00 00       	nop
    2b76:	0c 05       	cpc	r16, r12
    2b78:	6e 27       	eor	r22, r30
    2b7a:	00 00       	nop
    2b7c:	94 01       	movw	r18, r8
    2b7e:	d5 24       	eor	r13, r5
    2b80:	00 00       	nop
    2b82:	84 0b       	sbc	r24, r20
    2b84:	00 00       	nop
    2b86:	8a 0b       	sbc	r24, r26
    2b88:	00 00       	nop
    2b8a:	01 b5       	in	r16, 0x21	; 33
    2b8c:	04 00       	.word	0x0004	; ????
    2b8e:	0e c4       	rjmp	.+2076   	; 0x33ac <__TEXT_REGION_LENGTH__+0x13ac>
    2b90:	24 00       	.word	0x0024	; ????
    2b92:	00 8e       	std	Z+24, r0	; 0x18
    2b94:	0b 00       	.word	0x000b	; ????
    2b96:	00 d2       	rcall	.+1024   	; 0x2f98 <__TEXT_REGION_LENGTH__+0xf98>
    2b98:	0c 00       	.word	0x000c	; ????
    2b9a:	00 0c       	add	r0, r0
    2b9c:	07 cf       	rjmp	.-498    	; 0x29ac <__TEXT_REGION_LENGTH__+0x9ac>
    2b9e:	29 00       	.word	0x0029	; ????
    2ba0:	00 0e       	add	r0, r16
    2ba2:	e6 13       	cpse	r30, r22
    2ba4:	00 00       	nop
    2ba6:	90 0b       	sbc	r25, r16
    2ba8:	00 00       	nop
    2baa:	6e 0c       	add	r6, r14
    2bac:	00 00       	nop
    2bae:	05 5f       	subi	r16, 0xF5	; 245
    2bb0:	4c 29       	or	r20, r12
    2bb2:	00 00       	nop
    2bb4:	08 f0       	brcs	.+2      	; 0x2bb8 <__TEXT_REGION_LENGTH__+0xbb8>
    2bb6:	13 00       	.word	0x0013	; ????
    2bb8:	00 04       	cpc	r0, r0
    2bba:	fc 13       	cpse	r31, r28
    2bbc:	00 00       	nop
    2bbe:	6b 12       	cpse	r6, r27
    2bc0:	00 00       	nop
    2bc2:	04 08       	sbc	r0, r4
    2bc4:	14 00       	.word	0x0014	; ????
    2bc6:	00 80       	ld	r0, Z
    2bc8:	12 00       	.word	0x0012	; ????
    2bca:	00 18       	sub	r0, r0
    2bcc:	90 0b       	sbc	r25, r16
    2bce:	00 00       	nop
    2bd0:	6e 0c       	add	r6, r14
    2bd2:	00 00       	nop
    2bd4:	44 c5       	rjmp	.+2696   	; 0x365e <__TEXT_REGION_LENGTH__+0x165e>
    2bd6:	13 00       	.word	0x0013	; ????
    2bd8:	00 98       	cbi	0x00, 0	; 0
    2bda:	0b 00       	.word	0x000b	; ????
    2bdc:	00 1a       	sub	r0, r16
    2bde:	0c 00       	.word	0x000c	; ????
    2be0:	00 0d       	add	r16, r0
    2be2:	60 01       	movw	r12, r0
    2be4:	69 28       	or	r6, r9
    2be6:	00 00       	nop
    2be8:	08 d5       	rcall	.+2576   	; 0x35fa <__TEXT_REGION_LENGTH__+0x15fa>
    2bea:	13 00       	.word	0x0013	; ????
    2bec:	00 12       	cpse	r0, r16
    2bee:	9e 13       	cpse	r25, r30
    2bf0:	00 00       	nop
    2bf2:	98 0b       	sbc	r25, r24
    2bf4:	00 00       	nop
    2bf6:	0e 0c       	add	r0, r14
    2bf8:	00 00       	nop
    2bfa:	0d 82       	std	Y+5, r0	; 0x05
    2bfc:	08 af       	std	Y+56, r16	; 0x38
    2bfe:	13 00       	.word	0x0013	; ????
    2c00:	00 29       	or	r16, r0
    2c02:	78 13       	cpse	r23, r24
    2c04:	00 00       	nop
    2c06:	98 0b       	sbc	r25, r24
    2c08:	00 00       	nop
    2c0a:	0e 0c       	add	r0, r14
    2c0c:	00 00       	nop
    2c0e:	11 fd       	sbrc	r17, 1
    2c10:	01 08       	sbc	r0, r1
    2c12:	88 13       	cpse	r24, r24
    2c14:	00 00       	nop
    2c16:	0e 54       	subi	r16, 0x4E	; 78
    2c18:	13 00       	.word	0x0013	; ????
    2c1a:	00 98       	cbi	0x00, 0	; 0
    2c1c:	0b 00       	.word	0x000b	; ????
    2c1e:	00 06       	cpc	r0, r16
    2c20:	0c 00       	.word	0x000c	; ????
    2c22:	00 06       	cpc	r0, r16
    2c24:	68 55       	subi	r22, 0x58	; 88
    2c26:	28 00       	.word	0x0028	; ????
    2c28:	00 08       	sbc	r0, r0
    2c2a:	62 13       	cpse	r22, r18
    2c2c:	00 00       	nop
    2c2e:	29 30       	cpi	r18, 0x09	; 9
    2c30:	13 00       	.word	0x0013	; ????
    2c32:	00 98       	cbi	0x00, 0	; 0
    2c34:	0b 00       	.word	0x000b	; ????
    2c36:	00 06       	cpc	r0, r16
    2c38:	0c 00       	.word	0x000c	; ????
    2c3a:	00 03       	mulsu	r16, r16
    2c3c:	85 02       	muls	r24, r21
    2c3e:	08 3e       	cpi	r16, 0xE8	; 232
    2c40:	13 00       	.word	0x0013	; ????
    2c42:	00 0e       	add	r0, r16
    2c44:	c1 2c       	mov	r12, r1
    2c46:	00 00       	nop
    2c48:	a0 0b       	sbc	r26, r16
    2c4a:	00 00       	nop
    2c4c:	ae 0b       	sbc	r26, r30
    2c4e:	00 00       	nop
    2c50:	03 57       	subi	r16, 0x73	; 115
    2c52:	3d 28       	or	r3, r13
    2c54:	00 00       	nop
    2c56:	14 94       	.word	0x9414	; ????
    2c58:	12 00       	.word	0x0012	; ????
    2c5a:	00 37       	cpi	r16, 0x70	; 112
    2c5c:	00 12       	cpse	r0, r16
    2c5e:	c7 2c       	mov	r12, r7
    2c60:	00 00       	nop
    2c62:	ae 0b       	sbc	r26, r30
    2c64:	00 00       	nop
    2c66:	ba 0b       	sbc	r27, r26
    2c68:	00 00       	nop
    2c6a:	03 57       	subi	r16, 0x73	; 115
    2c6c:	14 ac       	ldd	r1, Z+60	; 0x3c
    2c6e:	12 00       	.word	0x0012	; ????
    2c70:	00 37       	cpi	r16, 0x70	; 112
    2c72:	00 00       	nop
    2c74:	00 12       	cpse	r0, r16
    2c76:	cd 2c       	mov	r12, r13
    2c78:	00 00       	nop
    2c7a:	06 0c       	add	r0, r6
    2c7c:	00 00       	nop
    2c7e:	0e 0c       	add	r0, r14
    2c80:	00 00       	nop
    2c82:	06 68       	ori	r16, 0x86	; 134
    2c84:	37 00       	.word	0x0037	; ????
    2c86:	00 00       	nop
    2c88:	00 29       	or	r16, r0
    2c8a:	e3 12       	cpse	r14, r19
    2c8c:	00 00       	nop
    2c8e:	20 0c       	add	r2, r0
    2c90:	00 00       	nop
    2c92:	6e 0c       	add	r6, r14
    2c94:	00 00       	nop
    2c96:	0d 61       	ori	r16, 0x1D	; 29
    2c98:	01 08       	sbc	r0, r1
    2c9a:	ed 12       	cpse	r14, r29
    2c9c:	00 00       	nop
    2c9e:	08 f8       	.word	0xf808	; ????
    2ca0:	12 00       	.word	0x0012	; ????
    2ca2:	00 04       	cpc	r0, r0
    2ca4:	03 13       	cpse	r16, r19
    2ca6:	00 00       	nop
    2ca8:	c4 12       	cpse	r12, r20
    2caa:	00 00       	nop
    2cac:	04 0e       	add	r0, r20
    2cae:	13 00       	.word	0x0013	; ????
    2cb0:	00 d9       	rcall	.-3584   	; 0x1eb2 <__data_load_end+0xf48>
    2cb2:	12 00       	.word	0x0012	; ????
    2cb4:	00 18       	sub	r0, r0
    2cb6:	20 0c       	add	r2, r0
    2cb8:	00 00       	nop
    2cba:	6e 0c       	add	r6, r14
    2cbc:	00 00       	nop
    2cbe:	67 19       	sub	r22, r7
    2cc0:	13 00       	.word	0x0013	; ????
    2cc2:	00 00       	nop
    2cc4:	67 24       	eor	r6, r7
    2cc6:	13 00       	.word	0x0013	; ????
    2cc8:	00 60       	ori	r16, 0x00	; 0
    2cca:	0e 63       	ori	r16, 0x3E	; 62
    2ccc:	1f 00       	.word	0x001f	; ????
    2cce:	00 20       	and	r0, r0
    2cd0:	0c 00       	.word	0x000c	; ????
    2cd2:	00 22       	and	r0, r16
    2cd4:	0c 00       	.word	0x000c	; ????
    2cd6:	00 02       	muls	r16, r16
    2cd8:	30 d9       	rcall	.-3488   	; 0x1f3a <__data_load_end+0xfd0>
    2cda:	28 00       	.word	0x0028	; ????
    2cdc:	00 40       	sbci	r16, 0x00	; 0
    2cde:	71 1f       	adc	r23, r17
    2ce0:	00 00       	nop
    2ce2:	06 03       	mulsu	r16, r22
    2ce4:	ac 00       	.word	0x00ac	; ????
    2ce6:	80 00       	.word	0x0080	; ????
    2ce8:	9f 27       	eor	r25, r31
    2cea:	7c 1f       	adc	r23, r28
    2cec:	00 00       	nop
    2cee:	20 0c       	add	r2, r0
    2cf0:	00 00       	nop
    2cf2:	22 0c       	add	r2, r2
    2cf4:	00 00       	nop
    2cf6:	06 72       	andi	r16, 0x26	; 38
    2cf8:	00 0e       	add	r0, r16
    2cfa:	d3 2c       	mov	r13, r3
    2cfc:	00 00       	nop
    2cfe:	22 0c       	add	r2, r2
    2d00:	00 00       	nop
    2d02:	3a 0c       	add	r3, r10
    2d04:	00 00       	nop
    2d06:	02 31       	cpi	r16, 0x12	; 18
    2d08:	f4 28       	or	r15, r4
    2d0a:	00 00       	nop
    2d0c:	14 ed       	ldi	r17, 0xD4	; 212
    2d0e:	12 00       	.word	0x0012	; ????
    2d10:	00 37       	cpi	r16, 0x70	; 112
    2d12:	37 00       	.word	0x0037	; ????
    2d14:	12 ae       	std	Z+58, r1	; 0x3a
    2d16:	12 00       	.word	0x0012	; ????
    2d18:	00 3a       	cpi	r16, 0xA0	; 160
    2d1a:	0c 00       	.word	0x000c	; ????
    2d1c:	00 6e       	ori	r16, 0xE0	; 224
    2d1e:	0c 00       	.word	0x000c	; ????
    2d20:	00 02       	muls	r16, r16
    2d22:	32 08       	sbc	r3, r2
    2d24:	bc 12       	cpse	r11, r28
    2d26:	00 00       	nop
    2d28:	04 d1       	rcall	.+520    	; 0x2f32 <__TEXT_REGION_LENGTH__+0xf32>
    2d2a:	12 00       	.word	0x0012	; ????
    2d2c:	00 02       	muls	r16, r16
    2d2e:	13 00       	.word	0x0013	; ????
    2d30:	00 08       	sbc	r0, r0
    2d32:	c6 12       	cpse	r12, r22
    2d34:	00 00       	nop
    2d36:	22 76       	andi	r18, 0x62	; 98
    2d38:	12 00       	.word	0x0012	; ????
    2d3a:	00 3a       	cpi	r16, 0xA0	; 160
    2d3c:	0c 00       	.word	0x000c	; ????
    2d3e:	00 6e       	ori	r16, 0xE0	; 224
    2d40:	0c 00       	.word	0x000c	; ????
    2d42:	00 40       	sbci	r16, 0x00	; 0
    2d44:	86 12       	cpse	r8, r22
    2d46:	00 00       	nop
    2d48:	06 03       	mulsu	r16, r22
    2d4a:	0c 02       	muls	r16, r28
    2d4c:	80 00       	.word	0x0080	; ????
    2d4e:	9f 95 01 90 	call	0x672002	; 0x672002 <__EEPROM_REGION_LENGTH__+0x662002>
    2d52:	12 00       	.word	0x0012	; ????
    2d54:	00 90 01 18 	lds	r0, 0x1801	; 0x801801 <__bss_end+0x15e2>
    2d58:	3a 0c       	add	r3, r10
    2d5a:	00 00       	nop
    2d5c:	6e 0c       	add	r6, r14
    2d5e:	00 00       	nop
    2d60:	16 9b       	sbis	0x02, 6	; 2
    2d62:	12 00       	.word	0x0012	; ????
	...
    2d6c:	0e 48       	sbci	r16, 0x8E	; 142
    2d6e:	14 00       	.word	0x0014	; ????
    2d70:	00 6e       	ori	r16, 0xE0	; 224
    2d72:	0c 00       	.word	0x000c	; ????
    2d74:	00 a0       	ldd	r0, Z+32	; 0x20
    2d76:	0c 00       	.word	0x000c	; ????
    2d78:	00 05       	cpc	r16, r0
    2d7a:	62 96       	adiw	r28, 0x12	; 18
    2d7c:	29 00       	.word	0x0029	; ????
    2d7e:	00 08       	sbc	r0, r0
    2d80:	56 14       	cp	r5, r6
    2d82:	00 00       	nop
    2d84:	04 60       	ori	r16, 0x04	; 4
    2d86:	14 00       	.word	0x0014	; ????
    2d88:	00 16       	cp	r0, r16
    2d8a:	13 00       	.word	0x0013	; ????
    2d8c:	00 12       	cpse	r0, r16
    2d8e:	25 14       	cp	r2, r5
    2d90:	00 00       	nop
    2d92:	6e 0c       	add	r6, r14
    2d94:	00 00       	nop
    2d96:	a0 0c       	add	r10, r0
    2d98:	00 00       	nop
    2d9a:	0e 2e       	mov	r0, r30
    2d9c:	04 31       	cpi	r16, 0x14	; 20
    2d9e:	14 00       	.word	0x0014	; ????
    2da0:	00 16       	cp	r0, r16
    2da2:	13 00       	.word	0x0013	; ????
    2da4:	00 27       	eor	r16, r16
    2da6:	de 24       	eor	r13, r14
    2da8:	00 00       	nop
    2daa:	6e 0c       	add	r6, r14
    2dac:	00 00       	nop
    2dae:	86 0c       	add	r8, r6
    2db0:	00 00       	nop
    2db2:	07 b3       	in	r16, 0x17	; 23
    2db4:	00 00       	nop
    2db6:	0e 7d       	andi	r16, 0xDE	; 222
    2db8:	14 00       	.word	0x0014	; ????
    2dba:	00 a0       	ldd	r0, Z+32	; 0x20
    2dbc:	0c 00       	.word	0x000c	; ????
    2dbe:	00 ac       	ldd	r0, Z+56	; 0x38
    2dc0:	0c 00       	.word	0x000c	; ????
    2dc2:	00 05       	cpc	r16, r0
    2dc4:	63 b4       	in	r6, 0x23	; 35
    2dc6:	29 00       	.word	0x0029	; ????
    2dc8:	00 08       	sbc	r0, r0
    2dca:	8b 14       	cp	r8, r11
    2dcc:	00 00       	nop
    2dce:	08 95       	ret
    2dd0:	14 00       	.word	0x0014	; ????
    2dd2:	00 00       	nop
    2dd4:	12 a8       	ldd	r1, Z+50	; 0x32
    2dd6:	14 00       	.word	0x0014	; ????
    2dd8:	00 ac       	ldd	r0, Z+56	; 0x38
    2dda:	0c 00       	.word	0x000c	; ????
    2ddc:	00 b8       	out	0x00, r0	; 0
    2dde:	0c 00       	.word	0x000c	; ????
    2de0:	00 05       	cpc	r16, r0
    2de2:	64 08       	sbc	r6, r4
    2de4:	b6 14       	cp	r11, r6
    2de6:	00 00       	nop
    2de8:	08 c0       	rjmp	.+16     	; 0x2dfa <__TEXT_REGION_LENGTH__+0xdfa>
    2dea:	14 00       	.word	0x0014	; ????
    2dec:	00 00       	nop
    2dee:	00 35       	cpi	r16, 0x50	; 80
    2df0:	e6 24       	eor	r14, r6
    2df2:	00 00       	nop
    2df4:	d2 0c       	add	r13, r2
    2df6:	00 00       	nop
    2df8:	68 01       	movw	r12, r16
    2dfa:	00 00       	nop
    2dfc:	0c 0a       	sbc	r0, r28
    2dfe:	35 ee       	ldi	r19, 0xE5	; 229
    2e00:	24 00       	.word	0x0024	; ????
    2e02:	00 d2       	rcall	.+1024   	; 0x3204 <__TEXT_REGION_LENGTH__+0x1204>
    2e04:	0c 00       	.word	0x000c	; ????
    2e06:	00 68       	ori	r16, 0x80	; 128
    2e08:	01 00       	.word	0x0001	; ????
    2e0a:	00 05       	cpc	r16, r0
    2e0c:	6c 31       	cpi	r22, 0x1C	; 28
    2e0e:	f6 24       	eor	r15, r6
    2e10:	00 00       	nop
    2e12:	d2 0c       	add	r13, r2
    2e14:	00 00       	nop
    2e16:	80 01       	movw	r16, r0
    2e18:	00 00       	nop
    2e1a:	05 47       	sbci	r16, 0x75	; 117
    2e1c:	6c 2c       	mov	r6, r12
    2e1e:	00 00       	nop
    2e20:	1f 80       	ldd	r1, Y+7	; 0x07
    2e22:	01 00       	.word	0x0001	; ????
    2e24:	00 5f       	subi	r16, 0xF0	; 240
    2e26:	02 25       	eor	r16, r2
    2e28:	00 00       	nop
    2e2a:	02 8c       	ldd	r0, Z+26	; 0x1a
    2e2c:	01 05       	cpc	r16, r1
    2e2e:	0d 25       	eor	r16, r13
    2e30:	00 00       	nop
    2e32:	2a 13       	cpse	r18, r26
    2e34:	00 00       	nop
    2e36:	31 35       	cpi	r19, 0x51	; 81
    2e38:	25 00       	.word	0x0025	; ????
    2e3a:	00 d2       	rcall	.+1024   	; 0x323c <__TEXT_REGION_LENGTH__+0x123c>
    2e3c:	0c 00       	.word	0x000c	; ????
    2e3e:	00 a8       	ldd	r0, Z+48	; 0x30
    2e40:	01 00       	.word	0x0001	; ????
    2e42:	00 05       	cpc	r16, r0
    2e44:	92 02       	muls	r25, r18
    2e46:	2c 00       	.word	0x002c	; ????
    2e48:	00 04       	cpc	r0, r0
    2e4a:	41 25       	eor	r20, r1
    2e4c:	00 00       	nop
    2e4e:	88 13       	cpse	r24, r24
    2e50:	00 00       	nop
    2e52:	31 ba       	out	0x11, r3	; 17
    2e54:	26 00       	.word	0x0026	; ????
    2e56:	00 d2       	rcall	.+1024   	; 0x3258 <__TEXT_REGION_LENGTH__+0x1258>
    2e58:	0c 00       	.word	0x000c	; ????
    2e5a:	00 d0       	rcall	.+0      	; 0x2e5c <__TEXT_REGION_LENGTH__+0xe5c>
    2e5c:	01 00       	.word	0x0001	; ????
    2e5e:	00 16       	cp	r0, r16
    2e60:	05 b0       	in	r0, 0x05	; 5
    2e62:	2a 00       	.word	0x002a	; ????
    2e64:	00 04       	cpc	r0, r0
    2e66:	c6 26       	eor	r12, r22
    2e68:	00 00       	nop
    2e6a:	b0 13       	cpse	r27, r16
    2e6c:	00 00       	nop
    2e6e:	1f d0       	rcall	.+62     	; 0x2eae <__TEXT_REGION_LENGTH__+0xeae>
    2e70:	01 00       	.word	0x0001	; ????
    2e72:	00 16       	cp	r0, r16
    2e74:	d1 26       	eor	r13, r17
    2e76:	00 00       	nop
    2e78:	20 dd       	rcall	.-1472   	; 0x28ba <__TEXT_REGION_LENGTH__+0x8ba>
    2e7a:	26 00       	.word	0x0026	; ????
    2e7c:	00 f8       	bld	r0, 0
    2e7e:	01 00       	.word	0x0001	; ????
    2e80:	00 04       	cpc	r0, r0
    2e82:	e8 26       	eor	r14, r24
    2e84:	00 00       	nop
    2e86:	d8 13       	cpse	r29, r24
    2e88:	00 00       	nop
    2e8a:	1f f8       	.word	0xf81f	; ????
    2e8c:	01 00       	.word	0x0001	; ????
    2e8e:	00 05       	cpc	r16, r0
    2e90:	f3 26       	eor	r15, r19
    2e92:	00 00       	nop
    2e94:	00 14       	cp	r0, r0
    2e96:	00 00       	nop
    2e98:	12 fe       	sbrs	r1, 2
    2e9a:	14 00       	.word	0x0014	; ????
    2e9c:	00 9a       	sbi	0x00, 0	; 0
    2e9e:	0d 00       	.word	0x000d	; ????
    2ea0:	00 a2       	std	Z+32, r0	; 0x20
    2ea2:	0d 00       	.word	0x000d	; ????
    2ea4:	00 05       	cpc	r16, r0
    2ea6:	ed 14       	cp	r14, r13
    2ea8:	1f 14       	cp	r1, r15
    2eaa:	00 00       	nop
    2eac:	29 16       	cp	r2, r25
    2eae:	15 00       	.word	0x0015	; ????
    2eb0:	00 9a       	sbi	0x00, 0	; 0
    2eb2:	0d 00       	.word	0x000d	; ????
    2eb4:	00 a2       	std	Z+32, r0	; 0x20
    2eb6:	0d 00       	.word	0x000d	; ????
    2eb8:	00 05       	cpc	r16, r0
    2eba:	02 01       	movw	r0, r4
    2ebc:	08 24       	eor	r0, r8
    2ebe:	15 00       	.word	0x0015	; ????
    2ec0:	00 28       	or	r0, r0
    2ec2:	a0 0d       	add	r26, r0
    2ec4:	00 00       	nop
    2ec6:	25 17       	cp	r18, r21
	...
    2ed0:	0e 54       	subi	r16, 0x4E	; 78
    2ed2:	25 00       	.word	0x0025	; ????
    2ed4:	00 5c       	subi	r16, 0xC0	; 192
    2ed6:	0d 00       	.word	0x000d	; ????
    2ed8:	00 8e       	std	Z+24, r0	; 0x18
    2eda:	0d 00       	.word	0x000d	; ????
    2edc:	00 16       	cp	r0, r16
    2ede:	01 5e       	subi	r16, 0xE1	; 225
    2ee0:	2b 00       	.word	0x002b	; ????
    2ee2:	00 04       	cpc	r0, r0
    2ee4:	60 25       	eor	r22, r0
    2ee6:	00 00       	nop
    2ee8:	33 14       	cp	r3, r3
    2eea:	00 00       	nop
    2eec:	18 5c       	subi	r17, 0xC8	; 200
    2eee:	0d 00       	.word	0x000d	; ????
    2ef0:	00 8e       	std	Z+24, r0	; 0x18
    2ef2:	0d 00       	.word	0x000d	; ????
    2ef4:	00 16       	cp	r0, r16
    2ef6:	6b 25       	eor	r22, r11
    2ef8:	00 00       	nop
    2efa:	16 76       	andi	r17, 0x66	; 102
    2efc:	25 00       	.word	0x0025	; ????
    2efe:	00 16       	cp	r0, r16
    2f00:	7f 25       	eor	r23, r15
    2f02:	00 00       	nop
    2f04:	16 88       	ldd	r1, Z+22	; 0x16
    2f06:	25 00       	.word	0x0025	; ????
    2f08:	00 22       	and	r0, r16
    2f0a:	ac 25       	eor	r26, r12
    2f0c:	00 00       	nop
    2f0e:	62 0d       	add	r22, r2
    2f10:	00 00       	nop
    2f12:	8e 0d       	add	r24, r14
    2f14:	00 00       	nop
    2f16:	04 b7       	in	r16, 0x34	; 52
    2f18:	25 00       	.word	0x0025	; ????
    2f1a:	00 4b       	sbci	r16, 0xB0	; 176
    2f1c:	14 00       	.word	0x0014	; ????
    2f1e:	00 18       	sub	r0, r0
    2f20:	62 0d       	add	r22, r2
    2f22:	00 00       	nop
    2f24:	8e 0d       	add	r24, r14
    2f26:	00 00       	nop
    2f28:	05 c2       	rjmp	.+1034   	; 0x3334 <__TEXT_REGION_LENGTH__+0x1334>
    2f2a:	25 00       	.word	0x0025	; ????
    2f2c:	00 63       	ori	r16, 0x30	; 48
    2f2e:	14 00       	.word	0x0014	; ????
    2f30:	00 05       	cpc	r16, r0
    2f32:	cd 25       	eor	r28, r13
    2f34:	00 00       	nop
    2f36:	77 14       	cp	r7, r7
    2f38:	00 00       	nop
    2f3a:	05 d6       	rcall	.+3082   	; 0x3b46 <__TEXT_REGION_LENGTH__+0x1b46>
    2f3c:	25 00       	.word	0x0025	; ????
    2f3e:	00 8a       	std	Z+16, r0	; 0x10
    2f40:	14 00       	.word	0x0014	; ????
    2f42:	00 05       	cpc	r16, r0
    2f44:	df 25       	eor	r29, r15
    2f46:	00 00       	nop
    2f48:	9d 14       	cp	r9, r13
    2f4a:	00 00       	nop
    2f4c:	22 e8       	ldi	r18, 0x82	; 130
    2f4e:	25 00       	.word	0x0025	; ????
    2f50:	00 68       	ori	r16, 0x80	; 128
    2f52:	0d 00       	.word	0x000d	; ????
    2f54:	00 8e       	std	Z+24, r0	; 0x18
    2f56:	0d 00       	.word	0x000d	; ????
    2f58:	00 05       	cpc	r16, r0
    2f5a:	e9 25       	eor	r30, r9
    2f5c:	00 00       	nop
    2f5e:	b0 14       	cp	r11, r0
    2f60:	00 00       	nop
    2f62:	22 f4       	brpl	.+8      	; 0x2f6c <__TEXT_REGION_LENGTH__+0xf6c>
    2f64:	25 00       	.word	0x0025	; ????
    2f66:	00 68       	ori	r16, 0x80	; 128
    2f68:	0d 00       	.word	0x000d	; ????
    2f6a:	00 88       	ldd	r0, Z+16	; 0x10
    2f6c:	0d 00       	.word	0x000d	; ????
    2f6e:	00 05       	cpc	r16, r0
    2f70:	f5 25       	eor	r31, r5
    2f72:	00 00       	nop
    2f74:	cf 14       	cp	r12, r15
	...
    2f7e:	35 03       	mulsu	r19, r21
    2f80:	26 00       	.word	0x0026	; ????
    2f82:	00 8e       	std	Z+24, r0	; 0x18
    2f84:	0d 00       	.word	0x000d	; ????
    2f86:	00 20       	and	r0, r0
    2f88:	02 00       	.word	0x0002	; ????
    2f8a:	00 16       	cp	r0, r16
    2f8c:	02 04       	cpc	r0, r2
    2f8e:	0f 26       	eor	r0, r31
    2f90:	00 00       	nop
    2f92:	14 15       	cp	r17, r4
    2f94:	00 00       	nop
    2f96:	20 5f       	subi	r18, 0xF0	; 240
    2f98:	26 00       	.word	0x0026	; ????
    2f9a:	00 40       	sbci	r16, 0x00	; 0
    2f9c:	02 00       	.word	0x0002	; ????
    2f9e:	00 08       	sbc	r0, r0
    2fa0:	6a 26       	eor	r6, r26
    2fa2:	00 00       	nop
    2fa4:	0e fe       	.word	0xfe0e	; ????
    2fa6:	14 00       	.word	0x0014	; ????
    2fa8:	00 8e       	std	Z+24, r0	; 0x18
    2faa:	0d 00       	.word	0x000d	; ????
    2fac:	00 9a       	sbi	0x00, 0	; 0
    2fae:	0d 00       	.word	0x000d	; ????
    2fb0:	00 05       	cpc	r16, r0
    2fb2:	bd a1       	ldd	r27, Y+37	; 0x25
    2fb4:	2b 00       	.word	0x002b	; ????
    2fb6:	00 04       	cpc	r0, r0
    2fb8:	0a 15       	cp	r16, r10
    2fba:	00 00       	nop
    2fbc:	2c 15       	cp	r18, r12
    2fbe:	00 00       	nop
    2fc0:	00 20       	and	r0, r0
    2fc2:	75 26       	eor	r7, r21
    2fc4:	00 00       	nop
    2fc6:	48 02       	muls	r20, r24
    2fc8:	00 00       	nop
    2fca:	16 76       	andi	r17, 0x66	; 102
    2fcc:	26 00       	.word	0x0026	; ????
    2fce:	00 20       	and	r0, r0
    2fd0:	81 26       	eor	r8, r17
    2fd2:	00 00       	nop
    2fd4:	60 02       	muls	r22, r16
    2fd6:	00 00       	nop
    2fd8:	05 82       	std	Z+5, r0	; 0x05
    2fda:	26 00       	.word	0x0026	; ????
    2fdc:	00 40       	sbci	r16, 0x00	; 0
    2fde:	15 00       	.word	0x0015	; ????
    2fe0:	00 05       	cpc	r16, r0
    2fe2:	8b 26       	eor	r8, r27
    2fe4:	00 00       	nop
    2fe6:	53 15       	cp	r21, r3
    2fe8:	00 00       	nop
    2fea:	05 94       	asr	r0
    2fec:	26 00       	.word	0x0026	; ????
    2fee:	00 66       	ori	r16, 0x60	; 96
    2ff0:	15 00       	.word	0x0015	; ????
    2ff2:	00 22       	and	r0, r16
    2ff4:	9d 26       	eor	r9, r29
    2ff6:	00 00       	nop
    2ff8:	b8 0d       	add	r27, r8
    2ffa:	00 00       	nop
    2ffc:	d2 0d       	add	r29, r2
    2ffe:	00 00       	nop
    3000:	05 9e       	mul	r0, r21
    3002:	26 00       	.word	0x0026	; ????
    3004:	00 79       	andi	r16, 0x90	; 144
    3006:	15 00       	.word	0x0015	; ????
    3008:	00 22       	and	r0, r16
    300a:	a9 26       	eor	r10, r25
    300c:	00 00       	nop
    300e:	b8 0d       	add	r27, r8
    3010:	00 00       	nop
    3012:	c6 0d       	add	r28, r6
    3014:	00 00       	nop
    3016:	16 aa       	std	Z+54, r1	; 0x36
    3018:	26 00       	.word	0x0026	; ????
	...
    3022:	0e e5       	ldi	r16, 0x5E	; 94
    3024:	14 00       	.word	0x0014	; ????
    3026:	00 24       	eor	r0, r0
    3028:	0d 00       	.word	0x000d	; ????
    302a:	00 2a       	or	r0, r16
    302c:	0d 00       	.word	0x000d	; ????
    302e:	00 05       	cpc	r16, r0
    3030:	8b 24       	eor	r8, r11
    3032:	2c 00       	.word	0x002c	; ????
    3034:	00 08       	sbc	r0, r0
    3036:	f3 14       	cp	r15, r3
    3038:	00 00       	nop
    303a:	28 26       	eor	r2, r24
    303c:	0d 00       	.word	0x000d	; ????
    303e:	00 2b       	or	r16, r16
    3040:	1a 00       	.word	0x001a	; ????
    3042:	00 00       	nop
    3044:	0e cc       	rjmp	.-2020   	; 0x2862 <__TEXT_REGION_LENGTH__+0x862>
    3046:	14 00       	.word	0x0014	; ????
    3048:	00 2a       	or	r0, r16
    304a:	0d 00       	.word	0x000d	; ????
    304c:	00 34       	cpi	r16, 0x40	; 64
    304e:	0d 00       	.word	0x000d	; ????
    3050:	00 05       	cpc	r16, r0
    3052:	8d 4c       	sbci	r24, 0xCD	; 205
    3054:	2c 00       	.word	0x002c	; ????
    3056:	00 08       	sbc	r0, r0
    3058:	da 14       	cp	r13, r10
    305a:	00 00       	nop
    305c:	27 29       	or	r18, r7
    305e:	25 00       	.word	0x0025	; ????
    3060:	00 2a       	or	r0, r16
    3062:	0d 00       	.word	0x000d	; ????
    3064:	00 34       	cpi	r16, 0x40	; 64
    3066:	0d 00       	.word	0x000d	; ????
    3068:	00 0e       	add	r0, r16
    306a:	36 00       	.word	0x0036	; ????
    306c:	12 e5       	ldi	r17, 0x52	; 82
    306e:	14 00       	.word	0x0014	; ????
    3070:	00 38       	cpi	r16, 0x80	; 128
    3072:	0d 00       	.word	0x000d	; ????
    3074:	00 3a       	cpi	r16, 0xA0	; 160
    3076:	0d 00       	.word	0x000d	; ????
    3078:	00 05       	cpc	r16, r0
    307a:	8f 08       	sbc	r8, r15
    307c:	f3 14       	cp	r15, r3
    307e:	00 00       	nop
    3080:	28 3a       	cpi	r18, 0xA8	; 168
    3082:	0d 00       	.word	0x000d	; ????
    3084:	00 2b       	or	r16, r16
    3086:	1a 00       	.word	0x001a	; ????
    3088:	00 00       	nop
    308a:	00 00       	nop
    308c:	35 ff       	sbrs	r19, 5
    308e:	26 00       	.word	0x0026	; ????
    3090:	00 ea       	ldi	r16, 0xA0	; 160
    3092:	0c 00       	.word	0x000c	; ????
    3094:	00 78       	andi	r16, 0x80	; 128
    3096:	02 00       	.word	0x0002	; ????
    3098:	00 05       	cpc	r16, r0
    309a:	4a 12       	cpse	r4, r26
    309c:	2f 15       	cp	r18, r15
    309e:	00 00       	nop
    30a0:	ee 0c       	add	r14, r14
    30a2:	00 00       	nop
    30a4:	18 0d       	add	r17, r8
    30a6:	00 00       	nop
    30a8:	05 9a       	sbi	0x00, 5	; 0
    30aa:	08 3d       	cpi	r16, 0xD8	; 216
    30ac:	15 00       	.word	0x0015	; ????
    30ae:	00 04       	cpc	r0, r0
    30b0:	47 15       	cp	r20, r7
    30b2:	00 00       	nop
    30b4:	98 15       	cp	r25, r8
    30b6:	00 00       	nop
    30b8:	12 07       	cpc	r17, r18
    30ba:	27 00       	.word	0x0027	; ????
    30bc:	00 ee       	ldi	r16, 0xE0	; 224
    30be:	0c 00       	.word	0x000c	; ????
    30c0:	00 18       	sub	r0, r0
    30c2:	0d 00       	.word	0x000d	; ????
    30c4:	00 0e       	add	r0, r16
    30c6:	32 08       	sbc	r3, r2
    30c8:	13 27       	eor	r17, r19
    30ca:	00 00       	nop
    30cc:	18 ee       	ldi	r17, 0xE8	; 232
    30ce:	0c 00       	.word	0x000c	; ????
    30d0:	00 18       	sub	r0, r0
    30d2:	0d 00       	.word	0x000d	; ????
    30d4:	00 16       	cp	r0, r16
    30d6:	1e 27       	eor	r17, r30
	...
    30e0:	00 1a       	sub	r0, r16
    30e2:	c5 08       	sbc	r12, r5
    30e4:	00 00       	nop
    30e6:	03 1a       	sub	r0, r19
    30e8:	e6 08       	sbc	r14, r6
    30ea:	00 00       	nop
    30ec:	03 1a       	sub	r0, r19
    30ee:	e8 0b       	sbc	r30, r24
    30f0:	00 00       	nop
    30f2:	03 1a       	sub	r0, r19
    30f4:	f6 0d       	add	r31, r6
    30f6:	00 00       	nop
    30f8:	03 96       	adiw	r24, 0x03	; 3
    30fa:	01 65       	ori	r16, 0x51	; 81
    30fc:	08 00       	.word	0x0008	; ????
    30fe:	00 01       	movw	r0, r0
    3100:	14 0e       	add	r1, r20
    3102:	00 00       	nop
    3104:	34 0e       	add	r3, r20
    3106:	00 00       	nop
    3108:	03 92       	.word	0x9203	; ????
    310a:	20 02       	muls	r18, r16
    310c:	01 35       	cpi	r16, 0x51	; 81
    310e:	2d 00       	.word	0x002d	; ????
    3110:	00 97       	sbiw	r24, 0x00	; 0
    3112:	01 14       	cp	r0, r1
    3114:	0e 00       	.word	0x000e	; ????
    3116:	00 32       	cpi	r16, 0x20	; 32
    3118:	0e 00       	.word	0x000e	; ????
    311a:	00 02       	muls	r16, r16
    311c:	01 01       	movw	r0, r2
    311e:	3f a2       	std	Y+39, r3	; 0x27
    3120:	07 00       	.word	0x0007	; ????
    3122:	00 02       	muls	r16, r16
    3124:	01 01       	movw	r0, r2
    3126:	b2 0a       	sbc	r11, r18
    3128:	00 00       	nop
    312a:	b7 15       	cp	r27, r7
    312c:	00 00       	nop
    312e:	3f d9       	rcall	.-3458   	; 0x23ae <__TEXT_REGION_LENGTH__+0x3ae>
    3130:	07 00       	.word	0x0007	; ????
    3132:	00 02       	muls	r16, r16
    3134:	01 01       	movw	r0, r2
    3136:	b2 0a       	sbc	r11, r18
    3138:	00 00       	nop
    313a:	cc 15       	cp	r28, r12
    313c:	00 00       	nop
    313e:	12 5d       	subi	r17, 0xD2	; 210
    3140:	12 00       	.word	0x0012	; ????
    3142:	00 14       	cp	r0, r0
    3144:	0e 00       	.word	0x000e	; ????
    3146:	00 32       	cpi	r16, 0x20	; 32
    3148:	0e 00       	.word	0x000e	; ????
    314a:	00 02       	muls	r16, r16
    314c:	11 08       	sbc	r1, r1
    314e:	6b 12       	cpse	r6, r27
    3150:	00 00       	nop
    3152:	00 00       	nop
    3154:	00 98       	cbi	0x00, 0	; 0
    3156:	01 01       	movw	r0, r2
    3158:	ec 01       	movw	r28, r24
    315a:	00 00       	nop
    315c:	07 e7       	ldi	r16, 0x77	; 119
    315e:	bc 09       	sbc	r27, r12
    3160:	00 00       	nop
    3162:	28 0b       	sbc	r18, r24
    3164:	00 00       	nop
    3166:	e0 15       	cp	r30, r0
    3168:	00 00       	nop
    316a:	01 6e       	ori	r16, 0xE1	; 225
    316c:	2d 00       	.word	0x002d	; ????
    316e:	00 27       	eor	r16, r16
    3170:	29 25       	eor	r18, r9
    3172:	00 00       	nop
    3174:	80 0a       	sbc	r8, r16
    3176:	00 00       	nop
    3178:	84 0a       	sbc	r8, r20
    317a:	00 00       	nop
    317c:	07 ec       	ldi	r16, 0xC7	; 199
    317e:	27 29       	or	r18, r7
    3180:	25 00       	.word	0x0025	; ????
    3182:	00 88       	ldd	r0, Z+16	; 0x10
    3184:	0a 00       	.word	0x000a	; ????
    3186:	00 8c       	ldd	r0, Z+24	; 0x18
    3188:	0a 00       	.word	0x000a	; ????
    318a:	00 07       	cpc	r16, r16
    318c:	ec 00       	.word	0x00ec	; ????
    318e:	99 01       	movw	r18, r18
    3190:	01 76       	andi	r16, 0x61	; 97
    3192:	0e 00       	.word	0x000e	; ????
    3194:	00 07       	cpc	r16, r16
    3196:	d8 28       	or	r13, r8
    3198:	0b 00       	.word	0x000b	; ????
    319a:	00 62       	ori	r16, 0x20	; 32
    319c:	0b 00       	.word	0x000b	; ????
    319e:	00 ab       	std	Z+48, r16	; 0x30
    31a0:	16 00       	.word	0x0016	; ????
    31a2:	00 01       	movw	r0, r0
    31a4:	0c 69       	ori	r16, 0x9C	; 156
    31a6:	0a 00       	.word	0x000a	; ????
    31a8:	00 06       	cpc	r0, r16
    31aa:	62 3b       	cpi	r22, 0xB2	; 178
    31ac:	00 00       	nop
    31ae:	00 05       	cpc	r16, r0
    31b0:	03 86       	std	Z+11, r0	; 0x0b
    31b2:	00 80       	ld	r0, Z
    31b4:	00 2d       	mov	r16, r0
    31b6:	3b 00       	.word	0x003b	; ????
    31b8:	00 00       	nop
    31ba:	a5 2d       	mov	r26, r5
    31bc:	00 00       	nop
    31be:	2e 87       	std	Y+14, r18	; 0x0e
    31c0:	00 00       	nop
    31c2:	00 1f       	adc	r16, r16
    31c4:	00 0c       	add	r0, r0
    31c6:	ba 06       	cpc	r11, r26
    31c8:	00 00       	nop
    31ca:	07 9f       	mul	r16, r23
    31cc:	95 2d       	mov	r25, r5
    31ce:	00 00       	nop
    31d0:	05 03       	mulsu	r16, r21
    31d2:	88 00       	.word	0x0088	; ????
    31d4:	80 00       	.word	0x0080	; ????
    31d6:	0c 31       	cpi	r16, 0x1C	; 28
    31d8:	0e 00       	.word	0x000e	; ????
    31da:	00 07       	cpc	r16, r16
    31dc:	9d c2       	rjmp	.+1338   	; 0x3718 <__TEXT_REGION_LENGTH__+0x1718>
    31de:	10 00       	.word	0x0010	; ????
    31e0:	00 05       	cpc	r16, r0
    31e2:	03 a8       	ldd	r0, Z+51	; 0x33
    31e4:	00 80       	ld	r0, Z
    31e6:	00 68       	ori	r16, 0x80	; 128
    31e8:	8f 0c       	add	r8, r15
    31ea:	00 00       	nop
    31ec:	02 14       	cp	r0, r2
    31ee:	1d 0e       	add	r1, r29
    31f0:	00 00       	nop
    31f2:	02 05       	cpc	r16, r2
    31f4:	03 aa       	std	Z+51, r0	; 0x33
    31f6:	00 80       	ld	r0, Z
    31f8:	00 0c       	add	r0, r0
    31fa:	c8 0f       	add	r28, r24
    31fc:	00 00       	nop
    31fe:	07 a6       	std	Z+47, r0	; 0x2f
    3200:	46 00       	.word	0x0046	; ????
    3202:	00 00       	nop
    3204:	05 03       	mulsu	r16, r21
    3206:	c5 00       	.word	0x00c5	; ????
    3208:	80 00       	.word	0x0080	; ????
    320a:	0c 1f       	adc	r16, r28
    320c:	0e 00       	.word	0x000e	; ????
    320e:	00 07       	cpc	r16, r16
    3210:	a0 46       	sbci	r26, 0x60	; 96
    3212:	00 00       	nop
    3214:	00 05       	cpc	r16, r0
    3216:	03 c6       	rjmp	.+3078   	; 0x3e1e <__TEXT_REGION_LENGTH__+0x1e1e>
    3218:	00 80       	ld	r0, Z
    321a:	00 0c       	add	r0, r0
    321c:	72 07       	cpc	r23, r18
    321e:	00 00       	nop
    3220:	07 a1       	ldd	r16, Z+39	; 0x27
    3222:	46 00       	.word	0x0046	; ????
    3224:	00 00       	nop
    3226:	05 03       	mulsu	r16, r21
    3228:	c7 00       	.word	0x00c7	; ????
    322a:	80 00       	.word	0x0080	; ????
    322c:	0c a0       	ldd	r0, Y+36	; 0x24
    322e:	0f 00       	.word	0x000f	; ????
    3230:	00 07       	cpc	r16, r16
    3232:	9c 3b       	cpi	r25, 0xBC	; 188
    3234:	00 00       	nop
    3236:	00 05       	cpc	r16, r0
    3238:	03 c8       	rjmp	.-4090   	; 0x2240 <__TEXT_REGION_LENGTH__+0x240>
    323a:	00 80       	ld	r0, Z
    323c:	00 0c       	add	r0, r0
    323e:	e1 10       	cpse	r14, r1
    3240:	00 00       	nop
    3242:	17 30       	cpi	r17, 0x07	; 7
    3244:	6c 14       	cp	r6, r12
    3246:	00 00       	nop
    3248:	05 03       	mulsu	r16, r21
    324a:	c9 00       	.word	0x00c9	; ????
    324c:	80 00       	.word	0x0080	; ????
    324e:	0c a7       	std	Y+44, r16	; 0x2c
    3250:	11 00       	.word	0x0011	; ????
    3252:	00 17       	cp	r16, r16
    3254:	2f a1       	ldd	r18, Y+39	; 0x27
    3256:	14 00       	.word	0x0014	; ????
    3258:	00 05       	cpc	r16, r0
    325a:	03 cb       	rjmp	.-2554   	; 0x2862 <__TEXT_REGION_LENGTH__+0x862>
    325c:	00 80       	ld	r0, Z
    325e:	00 0c       	add	r0, r0
    3260:	00 03       	mulsu	r16, r16
    3262:	00 00       	nop
    3264:	07 a2       	std	Z+39, r0	; 0x27
    3266:	46 00       	.word	0x0046	; ????
    3268:	00 00       	nop
    326a:	05 03       	mulsu	r16, r21
    326c:	cd 00       	.word	0x00cd	; ????
    326e:	80 00       	.word	0x0080	; ????
    3270:	2d 90       	ld	r2, X+
    3272:	02 00       	.word	0x0002	; ????
    3274:	00 60       	ori	r16, 0x00	; 0
    3276:	2e 00       	.word	0x002e	; ????
    3278:	00 2e       	mov	r0, r16
    327a:	87 00       	.word	0x0087	; ????
    327c:	00 00       	nop
    327e:	5f 00       	.word	0x005f	; ????
    3280:	0c 37       	cpi	r16, 0x7C	; 124
    3282:	0c 00       	.word	0x000c	; ????
    3284:	00 05       	cpc	r16, r0
    3286:	0b 50       	subi	r16, 0x0B	; 11
    3288:	2e 00       	.word	0x002e	; ????
    328a:	00 05       	cpc	r16, r0
    328c:	03 ce       	rjmp	.-1018   	; 0x2e94 <__TEXT_REGION_LENGTH__+0xe94>
    328e:	00 80       	ld	r0, Z
    3290:	00 0c       	add	r0, r0
    3292:	39 0e       	add	r3, r25
    3294:	00 00       	nop
    3296:	05 1b       	sub	r16, r21
    3298:	31 10       	cpse	r3, r1
    329a:	00 00       	nop
    329c:	05 03       	mulsu	r16, r21
    329e:	ee 01       	movw	r28, r28
    32a0:	80 00       	.word	0x0080	; ????
    32a2:	2d 3b       	cpi	r18, 0xBD	; 189
    32a4:	00 00       	nop
    32a6:	00 92 2e 00 	sts	0x002E, r0	; 0x80002e <__EEPROM_REGION_LENGTH__+0x7f002e>
    32aa:	00 2e       	mov	r0, r16
    32ac:	87 00       	.word	0x0087	; ????
    32ae:	00 00       	nop
    32b0:	07 00       	.word	0x0007	; ????
    32b2:	0c 04       	cpc	r0, r12
    32b4:	0c 00       	.word	0x000c	; ????
    32b6:	00 07       	cpc	r16, r16
    32b8:	a4 82       	std	Z+4, r10	; 0x04
    32ba:	2e 00       	.word	0x002e	; ????
    32bc:	00 05       	cpc	r16, r0
    32be:	03 f0       	brvs	.+0      	; 0x32c0 <__TEXT_REGION_LENGTH__+0x12c0>
    32c0:	01 80       	ldd	r0, Z+1	; 0x01
    32c2:	00 0c       	add	r0, r0
    32c4:	f5 0c       	add	r15, r5
    32c6:	00 00       	nop
    32c8:	07 a5       	ldd	r16, Z+47	; 0x2f
    32ca:	46 00       	.word	0x0046	; ????
    32cc:	00 00       	nop
    32ce:	05 03       	mulsu	r16, r21
    32d0:	f8 01       	movw	r30, r16
    32d2:	80 00       	.word	0x0080	; ????
    32d4:	0c b6       	in	r0, 0x3c	; 60
    32d6:	08 00       	.word	0x0008	; ????
    32d8:	00 07       	cpc	r16, r16
    32da:	a7 46       	sbci	r26, 0x67	; 103
    32dc:	00 00       	nop
    32de:	00 05       	cpc	r16, r0
    32e0:	03 f9       	bld	r16, 3
    32e2:	01 80       	ldd	r0, Z+1	; 0x01
    32e4:	00 0c       	add	r0, r0
    32e6:	7a 13       	cpse	r23, r26
    32e8:	00 00       	nop
    32ea:	05 0d       	add	r16, r5
    32ec:	80 10       	cpse	r8, r0
    32ee:	00 00       	nop
    32f0:	05 03       	mulsu	r16, r21
    32f2:	fa 01       	movw	r30, r20
    32f4:	80 00       	.word	0x0080	; ????
    32f6:	0c 73       	andi	r16, 0x3C	; 60
    32f8:	01 00       	.word	0x0001	; ????
    32fa:	00 05       	cpc	r16, r0
    32fc:	2e 70       	andi	r18, 0x0E	; 14
    32fe:	10 00       	.word	0x0010	; ????
    3300:	00 05       	cpc	r16, r0
    3302:	03 fb       	bst	r16, 3
    3304:	01 80       	ldd	r0, Z+1	; 0x01
    3306:	00 32       	cpi	r16, 0x20	; 32
    3308:	77 0b       	sbc	r23, r23
    330a:	00 00       	nop
    330c:	01 20       	and	r0, r1
    330e:	01 00       	.word	0x0001	; ????
    3310:	2f 00       	.word	0x002f	; ????
    3312:	00 05       	cpc	r16, r0
    3314:	03 fd       	sbrc	r16, 3
    3316:	01 80       	ldd	r0, Z+1	; 0x01
    3318:	00 23       	and	r16, r16
    331a:	01 08       	sbc	r0, r1
    331c:	cf 0f       	add	r28, r31
    331e:	00 00       	nop
    3320:	2b f9       	.word	0xf92b	; ????
    3322:	2e 00       	.word	0x002e	; ????
    3324:	00 32       	cpi	r16, 0x20	; 32
    3326:	d1 09       	sbc	r29, r1
    3328:	00 00       	nop
    332a:	01 1d       	adc	r16, r1
    332c:	01 1e       	adc	r0, r17
    332e:	2f 00       	.word	0x002f	; ????
    3330:	00 05       	cpc	r16, r0
    3332:	03 fe       	sbrs	r0, 3
    3334:	01 80       	ldd	r0, Z+1	; 0x01
    3336:	00 23       	and	r16, r16
    3338:	04 07       	cpc	r16, r20
    333a:	fc 0e       	add	r15, r28
    333c:	00 00       	nop
    333e:	2b 17       	cp	r18, r27
    3340:	2f 00       	.word	0x002f	; ????
    3342:	00 32       	cpi	r16, 0x20	; 32
    3344:	2b 0d       	add	r18, r11
    3346:	00 00       	nop
    3348:	01 1f       	adc	r16, r17
    334a:	01 1e       	adc	r0, r17
    334c:	2f 00       	.word	0x002f	; ????
    334e:	00 05       	cpc	r16, r0
    3350:	03 02       	muls	r16, r19
    3352:	02 80       	ldd	r0, Z+2	; 0x02
    3354:	00 0c       	add	r0, r0
    3356:	03 04       	cpc	r0, r3
    3358:	00 00       	nop
    335a:	02 11       	cpse	r16, r2
    335c:	8e 00       	.word	0x008e	; ????
    335e:	00 00       	nop
    3360:	05 03       	mulsu	r16, r21
    3362:	0c 02       	muls	r16, r28
    3364:	80 00       	.word	0x0080	; ????
    3366:	68 52       	subi	r22, 0x28	; 40
    3368:	08 00       	.word	0x0008	; ????
    336a:	00 02       	muls	r16, r16
    336c:	13 1d       	adc	r17, r3
    336e:	0e 00       	.word	0x000e	; ????
    3370:	00 02       	muls	r16, r16
    3372:	05 03       	mulsu	r16, r21
    3374:	19 02       	muls	r17, r25
    3376:	80 00       	.word	0x0080	; ????
    3378:	0c 2e       	mov	r0, r28
    337a:	11 00       	.word	0x0011	; ????
    337c:	00 02       	muls	r16, r16
    337e:	15 29       	or	r17, r5
    3380:	00 00       	nop
    3382:	00 05       	cpc	r16, r0
    3384:	03 1b       	sub	r16, r19
    3386:	02 80       	ldd	r0, Z+2	; 0x02
    3388:	00 00       	nop
    338a:	a8 00       	.word	0x00a8	; ????
    338c:	00 00       	nop
    338e:	02 00       	.word	0x0002	; ????
    3390:	ad 0c       	add	r10, r13
    3392:	00 00       	nop
    3394:	04 01       	movw	r0, r8
    3396:	87 0c       	add	r8, r7
    3398:	00 00       	nop
    339a:	40 0f       	add	r20, r16
    339c:	00 00       	nop
    339e:	44 0f       	add	r20, r20
    33a0:	00 00       	nop
    33a2:	2e 2e       	mov	r2, r30
    33a4:	2f 2e       	mov	r2, r31
    33a6:	2e 2f       	mov	r18, r30
    33a8:	2e 2e       	mov	r2, r30
    33aa:	2f 2e       	mov	r2, r31
    33ac:	2e 2f       	mov	r18, r30
    33ae:	67 63       	ori	r22, 0x37	; 55
    33b0:	63 2f       	mov	r22, r19
    33b2:	6c 69       	ori	r22, 0x9C	; 156
    33b4:	62 67       	ori	r22, 0x72	; 114
    33b6:	63 63       	ori	r22, 0x33	; 51
    33b8:	2f 63       	ori	r18, 0x3F	; 63
    33ba:	6f 6e       	ori	r22, 0xEF	; 239
    33bc:	66 69       	ori	r22, 0x96	; 150
    33be:	67 2f       	mov	r22, r23
    33c0:	61 76       	andi	r22, 0x61	; 97
    33c2:	72 2f       	mov	r23, r18
    33c4:	6c 69       	ori	r22, 0x9C	; 156
    33c6:	62 31       	cpi	r22, 0x12	; 18
    33c8:	66 75       	andi	r22, 0x56	; 86
    33ca:	6e 63       	ori	r22, 0x3E	; 62
    33cc:	73 2e       	mov	r7, r19
    33ce:	53 00       	.word	0x0053	; ????
    33d0:	2f 68       	ori	r18, 0x8F	; 143
    33d2:	6f 6d       	ori	r22, 0xDF	; 223
    33d4:	65 2f       	mov	r22, r21
    33d6:	6a 65       	ori	r22, 0x5A	; 90
    33d8:	6e 6b       	ori	r22, 0xBE	; 190
    33da:	69 6e       	ori	r22, 0xE9	; 233
    33dc:	73 2f       	mov	r23, r19
    33de:	77 6f       	ori	r23, 0xF7	; 247
    33e0:	72 6b       	ori	r23, 0xB2	; 178
    33e2:	73 70       	andi	r23, 0x03	; 3
    33e4:	61 63       	ori	r22, 0x31	; 49
    33e6:	65 2f       	mov	r22, r21
    33e8:	61 76       	andi	r22, 0x61	; 97
    33ea:	72 2d       	mov	r23, r2
    33ec:	67 63       	ori	r22, 0x37	; 55
    33ee:	63 2d       	mov	r22, r3
    33f0:	73 74       	andi	r23, 0x43	; 67
    33f2:	61 67       	ori	r22, 0x71	; 113
    33f4:	69 6e       	ori	r22, 0xE9	; 233
    33f6:	67 2f       	mov	r22, r23
    33f8:	6c 61       	ori	r22, 0x1C	; 28
    33fa:	62 65       	ori	r22, 0x52	; 82
    33fc:	6c 2f       	mov	r22, r28
    33fe:	64 65       	ori	r22, 0x54	; 84
    3400:	62 69       	ori	r22, 0x92	; 146
    3402:	61 6e       	ori	r22, 0xE1	; 225
    3404:	37 2d       	mov	r19, r7
    3406:	78 38       	cpi	r23, 0x88	; 136
    3408:	36 5f       	subi	r19, 0xF6	; 246
    340a:	36 34       	cpi	r19, 0x46	; 70
    340c:	2f 67       	ori	r18, 0x7F	; 127
    340e:	63 63       	ori	r22, 0x33	; 51
    3410:	2d 62       	ori	r18, 0x2D	; 45
    3412:	75 69       	ori	r23, 0x95	; 149
    3414:	6c 64       	ori	r22, 0x4C	; 76
    3416:	2f 61       	ori	r18, 0x1F	; 31
    3418:	76 72       	andi	r23, 0x26	; 38
    341a:	2f 61       	ori	r18, 0x1F	; 31
    341c:	76 72       	andi	r23, 0x26	; 38
    341e:	32 35       	cpi	r19, 0x52	; 82
    3420:	2f 6c       	ori	r18, 0xCF	; 207
    3422:	69 62       	ori	r22, 0x29	; 41
    3424:	67 63       	ori	r22, 0x37	; 55
    3426:	63 00       	.word	0x0063	; ????
    3428:	47 4e       	sbci	r20, 0xE7	; 231
    342a:	55 20       	and	r5, r5
    342c:	41 53       	subi	r20, 0x31	; 49
    342e:	20 32       	cpi	r18, 0x20	; 32
    3430:	2e 32       	cpi	r18, 0x2E	; 46
    3432:	36 00       	.word	0x0036	; ????
    3434:	01 80       	ldd	r0, Z+1	; 0x01
    3436:	a8 00       	.word	0x00a8	; ????
    3438:	00 00       	nop
    343a:	02 00       	.word	0x0002	; ????
    343c:	c1 0c       	add	r12, r1
    343e:	00 00       	nop
    3440:	04 01       	movw	r0, r8
    3442:	e9 0c       	add	r14, r9
    3444:	00 00       	nop
    3446:	34 0e       	add	r3, r20
    3448:	00 00       	nop
    344a:	46 0e       	add	r4, r22
    344c:	00 00       	nop
    344e:	2e 2e       	mov	r2, r30
    3450:	2f 2e       	mov	r2, r31
    3452:	2e 2f       	mov	r18, r30
    3454:	2e 2e       	mov	r2, r30
    3456:	2f 2e       	mov	r2, r31
    3458:	2e 2f       	mov	r18, r30
    345a:	67 63       	ori	r22, 0x37	; 55
    345c:	63 2f       	mov	r22, r19
    345e:	6c 69       	ori	r22, 0x9C	; 156
    3460:	62 67       	ori	r22, 0x72	; 114
    3462:	63 63       	ori	r22, 0x33	; 51
    3464:	2f 63       	ori	r18, 0x3F	; 63
    3466:	6f 6e       	ori	r22, 0xEF	; 239
    3468:	66 69       	ori	r22, 0x96	; 150
    346a:	67 2f       	mov	r22, r23
    346c:	61 76       	andi	r22, 0x61	; 97
    346e:	72 2f       	mov	r23, r18
    3470:	6c 69       	ori	r22, 0x9C	; 156
    3472:	62 31       	cpi	r22, 0x12	; 18
    3474:	66 75       	andi	r22, 0x56	; 86
    3476:	6e 63       	ori	r22, 0x3E	; 62
    3478:	73 2e       	mov	r7, r19
    347a:	53 00       	.word	0x0053	; ????
    347c:	2f 68       	ori	r18, 0x8F	; 143
    347e:	6f 6d       	ori	r22, 0xDF	; 223
    3480:	65 2f       	mov	r22, r21
    3482:	6a 65       	ori	r22, 0x5A	; 90
    3484:	6e 6b       	ori	r22, 0xBE	; 190
    3486:	69 6e       	ori	r22, 0xE9	; 233
    3488:	73 2f       	mov	r23, r19
    348a:	77 6f       	ori	r23, 0xF7	; 247
    348c:	72 6b       	ori	r23, 0xB2	; 178
    348e:	73 70       	andi	r23, 0x03	; 3
    3490:	61 63       	ori	r22, 0x31	; 49
    3492:	65 2f       	mov	r22, r21
    3494:	61 76       	andi	r22, 0x61	; 97
    3496:	72 2d       	mov	r23, r2
    3498:	67 63       	ori	r22, 0x37	; 55
    349a:	63 2d       	mov	r22, r3
    349c:	73 74       	andi	r23, 0x43	; 67
    349e:	61 67       	ori	r22, 0x71	; 113
    34a0:	69 6e       	ori	r22, 0xE9	; 233
    34a2:	67 2f       	mov	r22, r23
    34a4:	6c 61       	ori	r22, 0x1C	; 28
    34a6:	62 65       	ori	r22, 0x52	; 82
    34a8:	6c 2f       	mov	r22, r28
    34aa:	64 65       	ori	r22, 0x54	; 84
    34ac:	62 69       	ori	r22, 0x92	; 146
    34ae:	61 6e       	ori	r22, 0xE1	; 225
    34b0:	37 2d       	mov	r19, r7
    34b2:	78 38       	cpi	r23, 0x88	; 136
    34b4:	36 5f       	subi	r19, 0xF6	; 246
    34b6:	36 34       	cpi	r19, 0x46	; 70
    34b8:	2f 67       	ori	r18, 0x7F	; 127
    34ba:	63 63       	ori	r22, 0x33	; 51
    34bc:	2d 62       	ori	r18, 0x2D	; 45
    34be:	75 69       	ori	r23, 0x95	; 149
    34c0:	6c 64       	ori	r22, 0x4C	; 76
    34c2:	2f 61       	ori	r18, 0x1F	; 31
    34c4:	76 72       	andi	r23, 0x26	; 38
    34c6:	2f 61       	ori	r18, 0x1F	; 31
    34c8:	76 72       	andi	r23, 0x26	; 38
    34ca:	32 35       	cpi	r19, 0x52	; 82
    34cc:	2f 6c       	ori	r18, 0xCF	; 207
    34ce:	69 62       	ori	r22, 0x29	; 41
    34d0:	67 63       	ori	r22, 0x37	; 55
    34d2:	63 00       	.word	0x0063	; ????
    34d4:	47 4e       	sbci	r20, 0xE7	; 231
    34d6:	55 20       	and	r5, r5
    34d8:	41 53       	subi	r20, 0x31	; 49
    34da:	20 32       	cpi	r18, 0x20	; 32
    34dc:	2e 32       	cpi	r18, 0x2E	; 46
    34de:	36 00       	.word	0x0036	; ????
    34e0:	01 80       	ldd	r0, Z+1	; 0x01
    34e2:	a8 00       	.word	0x00a8	; ????
    34e4:	00 00       	nop
    34e6:	02 00       	.word	0x0002	; ????
    34e8:	d5 0c       	add	r13, r5
    34ea:	00 00       	nop
    34ec:	04 01       	movw	r0, r8
    34ee:	75 0d       	add	r23, r5
    34f0:	00 00       	nop
    34f2:	46 0e       	add	r4, r22
    34f4:	00 00       	nop
    34f6:	68 0e       	add	r6, r24
    34f8:	00 00       	nop
    34fa:	2e 2e       	mov	r2, r30
    34fc:	2f 2e       	mov	r2, r31
    34fe:	2e 2f       	mov	r18, r30
    3500:	2e 2e       	mov	r2, r30
    3502:	2f 2e       	mov	r2, r31
    3504:	2e 2f       	mov	r18, r30
    3506:	67 63       	ori	r22, 0x37	; 55
    3508:	63 2f       	mov	r22, r19
    350a:	6c 69       	ori	r22, 0x9C	; 156
    350c:	62 67       	ori	r22, 0x72	; 114
    350e:	63 63       	ori	r22, 0x33	; 51
    3510:	2f 63       	ori	r18, 0x3F	; 63
    3512:	6f 6e       	ori	r22, 0xEF	; 239
    3514:	66 69       	ori	r22, 0x96	; 150
    3516:	67 2f       	mov	r22, r23
    3518:	61 76       	andi	r22, 0x61	; 97
    351a:	72 2f       	mov	r23, r18
    351c:	6c 69       	ori	r22, 0x9C	; 156
    351e:	62 31       	cpi	r22, 0x12	; 18
    3520:	66 75       	andi	r22, 0x56	; 86
    3522:	6e 63       	ori	r22, 0x3E	; 62
    3524:	73 2e       	mov	r7, r19
    3526:	53 00       	.word	0x0053	; ????
    3528:	2f 68       	ori	r18, 0x8F	; 143
    352a:	6f 6d       	ori	r22, 0xDF	; 223
    352c:	65 2f       	mov	r22, r21
    352e:	6a 65       	ori	r22, 0x5A	; 90
    3530:	6e 6b       	ori	r22, 0xBE	; 190
    3532:	69 6e       	ori	r22, 0xE9	; 233
    3534:	73 2f       	mov	r23, r19
    3536:	77 6f       	ori	r23, 0xF7	; 247
    3538:	72 6b       	ori	r23, 0xB2	; 178
    353a:	73 70       	andi	r23, 0x03	; 3
    353c:	61 63       	ori	r22, 0x31	; 49
    353e:	65 2f       	mov	r22, r21
    3540:	61 76       	andi	r22, 0x61	; 97
    3542:	72 2d       	mov	r23, r2
    3544:	67 63       	ori	r22, 0x37	; 55
    3546:	63 2d       	mov	r22, r3
    3548:	73 74       	andi	r23, 0x43	; 67
    354a:	61 67       	ori	r22, 0x71	; 113
    354c:	69 6e       	ori	r22, 0xE9	; 233
    354e:	67 2f       	mov	r22, r23
    3550:	6c 61       	ori	r22, 0x1C	; 28
    3552:	62 65       	ori	r22, 0x52	; 82
    3554:	6c 2f       	mov	r22, r28
    3556:	64 65       	ori	r22, 0x54	; 84
    3558:	62 69       	ori	r22, 0x92	; 146
    355a:	61 6e       	ori	r22, 0xE1	; 225
    355c:	37 2d       	mov	r19, r7
    355e:	78 38       	cpi	r23, 0x88	; 136
    3560:	36 5f       	subi	r19, 0xF6	; 246
    3562:	36 34       	cpi	r19, 0x46	; 70
    3564:	2f 67       	ori	r18, 0x7F	; 127
    3566:	63 63       	ori	r22, 0x33	; 51
    3568:	2d 62       	ori	r18, 0x2D	; 45
    356a:	75 69       	ori	r23, 0x95	; 149
    356c:	6c 64       	ori	r22, 0x4C	; 76
    356e:	2f 61       	ori	r18, 0x1F	; 31
    3570:	76 72       	andi	r23, 0x26	; 38
    3572:	2f 61       	ori	r18, 0x1F	; 31
    3574:	76 72       	andi	r23, 0x26	; 38
    3576:	32 35       	cpi	r19, 0x52	; 82
    3578:	2f 6c       	ori	r18, 0xCF	; 207
    357a:	69 62       	ori	r22, 0x29	; 41
    357c:	67 63       	ori	r22, 0x37	; 55
    357e:	63 00       	.word	0x0063	; ????
    3580:	47 4e       	sbci	r20, 0xE7	; 231
    3582:	55 20       	and	r5, r5
    3584:	41 53       	subi	r20, 0x31	; 49
    3586:	20 32       	cpi	r18, 0x20	; 32
    3588:	2e 32       	cpi	r18, 0x2E	; 46
    358a:	36 00       	.word	0x0036	; ????
    358c:	01 80       	ldd	r0, Z+1	; 0x01
    358e:	a8 00       	.word	0x00a8	; ????
    3590:	00 00       	nop
    3592:	02 00       	.word	0x0002	; ????
    3594:	e9 0c       	add	r14, r9
    3596:	00 00       	nop
    3598:	04 01       	movw	r0, r8
    359a:	31 0e       	add	r3, r17
    359c:	00 00       	nop
    359e:	68 0e       	add	r6, r24
    35a0:	00 00       	nop
    35a2:	9a 0e       	add	r9, r26
    35a4:	00 00       	nop
    35a6:	2e 2e       	mov	r2, r30
    35a8:	2f 2e       	mov	r2, r31
    35aa:	2e 2f       	mov	r18, r30
    35ac:	2e 2e       	mov	r2, r30
    35ae:	2f 2e       	mov	r2, r31
    35b0:	2e 2f       	mov	r18, r30
    35b2:	67 63       	ori	r22, 0x37	; 55
    35b4:	63 2f       	mov	r22, r19
    35b6:	6c 69       	ori	r22, 0x9C	; 156
    35b8:	62 67       	ori	r22, 0x72	; 114
    35ba:	63 63       	ori	r22, 0x33	; 51
    35bc:	2f 63       	ori	r18, 0x3F	; 63
    35be:	6f 6e       	ori	r22, 0xEF	; 239
    35c0:	66 69       	ori	r22, 0x96	; 150
    35c2:	67 2f       	mov	r22, r23
    35c4:	61 76       	andi	r22, 0x61	; 97
    35c6:	72 2f       	mov	r23, r18
    35c8:	6c 69       	ori	r22, 0x9C	; 156
    35ca:	62 31       	cpi	r22, 0x12	; 18
    35cc:	66 75       	andi	r22, 0x56	; 86
    35ce:	6e 63       	ori	r22, 0x3E	; 62
    35d0:	73 2e       	mov	r7, r19
    35d2:	53 00       	.word	0x0053	; ????
    35d4:	2f 68       	ori	r18, 0x8F	; 143
    35d6:	6f 6d       	ori	r22, 0xDF	; 223
    35d8:	65 2f       	mov	r22, r21
    35da:	6a 65       	ori	r22, 0x5A	; 90
    35dc:	6e 6b       	ori	r22, 0xBE	; 190
    35de:	69 6e       	ori	r22, 0xE9	; 233
    35e0:	73 2f       	mov	r23, r19
    35e2:	77 6f       	ori	r23, 0xF7	; 247
    35e4:	72 6b       	ori	r23, 0xB2	; 178
    35e6:	73 70       	andi	r23, 0x03	; 3
    35e8:	61 63       	ori	r22, 0x31	; 49
    35ea:	65 2f       	mov	r22, r21
    35ec:	61 76       	andi	r22, 0x61	; 97
    35ee:	72 2d       	mov	r23, r2
    35f0:	67 63       	ori	r22, 0x37	; 55
    35f2:	63 2d       	mov	r22, r3
    35f4:	73 74       	andi	r23, 0x43	; 67
    35f6:	61 67       	ori	r22, 0x71	; 113
    35f8:	69 6e       	ori	r22, 0xE9	; 233
    35fa:	67 2f       	mov	r22, r23
    35fc:	6c 61       	ori	r22, 0x1C	; 28
    35fe:	62 65       	ori	r22, 0x52	; 82
    3600:	6c 2f       	mov	r22, r28
    3602:	64 65       	ori	r22, 0x54	; 84
    3604:	62 69       	ori	r22, 0x92	; 146
    3606:	61 6e       	ori	r22, 0xE1	; 225
    3608:	37 2d       	mov	r19, r7
    360a:	78 38       	cpi	r23, 0x88	; 136
    360c:	36 5f       	subi	r19, 0xF6	; 246
    360e:	36 34       	cpi	r19, 0x46	; 70
    3610:	2f 67       	ori	r18, 0x7F	; 127
    3612:	63 63       	ori	r22, 0x33	; 51
    3614:	2d 62       	ori	r18, 0x2D	; 45
    3616:	75 69       	ori	r23, 0x95	; 149
    3618:	6c 64       	ori	r22, 0x4C	; 76
    361a:	2f 61       	ori	r18, 0x1F	; 31
    361c:	76 72       	andi	r23, 0x26	; 38
    361e:	2f 61       	ori	r18, 0x1F	; 31
    3620:	76 72       	andi	r23, 0x26	; 38
    3622:	32 35       	cpi	r19, 0x52	; 82
    3624:	2f 6c       	ori	r18, 0xCF	; 207
    3626:	69 62       	ori	r22, 0x29	; 41
    3628:	67 63       	ori	r22, 0x37	; 55
    362a:	63 00       	.word	0x0063	; ????
    362c:	47 4e       	sbci	r20, 0xE7	; 231
    362e:	55 20       	and	r5, r5
    3630:	41 53       	subi	r20, 0x31	; 49
    3632:	20 32       	cpi	r18, 0x20	; 32
    3634:	2e 32       	cpi	r18, 0x2E	; 46
    3636:	36 00       	.word	0x0036	; ????
    3638:	01 80       	ldd	r0, Z+1	; 0x01
    363a:	a8 00       	.word	0x00a8	; ????
    363c:	00 00       	nop
    363e:	02 00       	.word	0x0002	; ????
    3640:	fd 0c       	add	r15, r13
    3642:	00 00       	nop
    3644:	04 01       	movw	r0, r8
    3646:	e7 0e       	add	r14, r23
    3648:	00 00       	nop
    364a:	9a 0e       	add	r9, r26
    364c:	00 00       	nop
    364e:	c0 0e       	add	r12, r16
    3650:	00 00       	nop
    3652:	2e 2e       	mov	r2, r30
    3654:	2f 2e       	mov	r2, r31
    3656:	2e 2f       	mov	r18, r30
    3658:	2e 2e       	mov	r2, r30
    365a:	2f 2e       	mov	r2, r31
    365c:	2e 2f       	mov	r18, r30
    365e:	67 63       	ori	r22, 0x37	; 55
    3660:	63 2f       	mov	r22, r19
    3662:	6c 69       	ori	r22, 0x9C	; 156
    3664:	62 67       	ori	r22, 0x72	; 114
    3666:	63 63       	ori	r22, 0x33	; 51
    3668:	2f 63       	ori	r18, 0x3F	; 63
    366a:	6f 6e       	ori	r22, 0xEF	; 239
    366c:	66 69       	ori	r22, 0x96	; 150
    366e:	67 2f       	mov	r22, r23
    3670:	61 76       	andi	r22, 0x61	; 97
    3672:	72 2f       	mov	r23, r18
    3674:	6c 69       	ori	r22, 0x9C	; 156
    3676:	62 31       	cpi	r22, 0x12	; 18
    3678:	66 75       	andi	r22, 0x56	; 86
    367a:	6e 63       	ori	r22, 0x3E	; 62
    367c:	73 2e       	mov	r7, r19
    367e:	53 00       	.word	0x0053	; ????
    3680:	2f 68       	ori	r18, 0x8F	; 143
    3682:	6f 6d       	ori	r22, 0xDF	; 223
    3684:	65 2f       	mov	r22, r21
    3686:	6a 65       	ori	r22, 0x5A	; 90
    3688:	6e 6b       	ori	r22, 0xBE	; 190
    368a:	69 6e       	ori	r22, 0xE9	; 233
    368c:	73 2f       	mov	r23, r19
    368e:	77 6f       	ori	r23, 0xF7	; 247
    3690:	72 6b       	ori	r23, 0xB2	; 178
    3692:	73 70       	andi	r23, 0x03	; 3
    3694:	61 63       	ori	r22, 0x31	; 49
    3696:	65 2f       	mov	r22, r21
    3698:	61 76       	andi	r22, 0x61	; 97
    369a:	72 2d       	mov	r23, r2
    369c:	67 63       	ori	r22, 0x37	; 55
    369e:	63 2d       	mov	r22, r3
    36a0:	73 74       	andi	r23, 0x43	; 67
    36a2:	61 67       	ori	r22, 0x71	; 113
    36a4:	69 6e       	ori	r22, 0xE9	; 233
    36a6:	67 2f       	mov	r22, r23
    36a8:	6c 61       	ori	r22, 0x1C	; 28
    36aa:	62 65       	ori	r22, 0x52	; 82
    36ac:	6c 2f       	mov	r22, r28
    36ae:	64 65       	ori	r22, 0x54	; 84
    36b0:	62 69       	ori	r22, 0x92	; 146
    36b2:	61 6e       	ori	r22, 0xE1	; 225
    36b4:	37 2d       	mov	r19, r7
    36b6:	78 38       	cpi	r23, 0x88	; 136
    36b8:	36 5f       	subi	r19, 0xF6	; 246
    36ba:	36 34       	cpi	r19, 0x46	; 70
    36bc:	2f 67       	ori	r18, 0x7F	; 127
    36be:	63 63       	ori	r22, 0x33	; 51
    36c0:	2d 62       	ori	r18, 0x2D	; 45
    36c2:	75 69       	ori	r23, 0x95	; 149
    36c4:	6c 64       	ori	r22, 0x4C	; 76
    36c6:	2f 61       	ori	r18, 0x1F	; 31
    36c8:	76 72       	andi	r23, 0x26	; 38
    36ca:	2f 61       	ori	r18, 0x1F	; 31
    36cc:	76 72       	andi	r23, 0x26	; 38
    36ce:	32 35       	cpi	r19, 0x52	; 82
    36d0:	2f 6c       	ori	r18, 0xCF	; 207
    36d2:	69 62       	ori	r22, 0x29	; 41
    36d4:	67 63       	ori	r22, 0x37	; 55
    36d6:	63 00       	.word	0x0063	; ????
    36d8:	47 4e       	sbci	r20, 0xE7	; 231
    36da:	55 20       	and	r5, r5
    36dc:	41 53       	subi	r20, 0x31	; 49
    36de:	20 32       	cpi	r18, 0x20	; 32
    36e0:	2e 32       	cpi	r18, 0x2E	; 46
    36e2:	36 00       	.word	0x0036	; ????
    36e4:	01 80       	ldd	r0, Z+1	; 0x01
    36e6:	a8 00       	.word	0x00a8	; ????
    36e8:	00 00       	nop
    36ea:	02 00       	.word	0x0002	; ????
    36ec:	11 0d       	add	r17, r1
    36ee:	00 00       	nop
    36f0:	04 01       	movw	r0, r8
    36f2:	af 0f       	add	r26, r31
    36f4:	00 00       	nop
    36f6:	c0 0e       	add	r12, r16
    36f8:	00 00       	nop
    36fa:	04 0f       	add	r16, r20
    36fc:	00 00       	nop
    36fe:	2e 2e       	mov	r2, r30
    3700:	2f 2e       	mov	r2, r31
    3702:	2e 2f       	mov	r18, r30
    3704:	2e 2e       	mov	r2, r30
    3706:	2f 2e       	mov	r2, r31
    3708:	2e 2f       	mov	r18, r30
    370a:	67 63       	ori	r22, 0x37	; 55
    370c:	63 2f       	mov	r22, r19
    370e:	6c 69       	ori	r22, 0x9C	; 156
    3710:	62 67       	ori	r22, 0x72	; 114
    3712:	63 63       	ori	r22, 0x33	; 51
    3714:	2f 63       	ori	r18, 0x3F	; 63
    3716:	6f 6e       	ori	r22, 0xEF	; 239
    3718:	66 69       	ori	r22, 0x96	; 150
    371a:	67 2f       	mov	r22, r23
    371c:	61 76       	andi	r22, 0x61	; 97
    371e:	72 2f       	mov	r23, r18
    3720:	6c 69       	ori	r22, 0x9C	; 156
    3722:	62 31       	cpi	r22, 0x12	; 18
    3724:	66 75       	andi	r22, 0x56	; 86
    3726:	6e 63       	ori	r22, 0x3E	; 62
    3728:	73 2e       	mov	r7, r19
    372a:	53 00       	.word	0x0053	; ????
    372c:	2f 68       	ori	r18, 0x8F	; 143
    372e:	6f 6d       	ori	r22, 0xDF	; 223
    3730:	65 2f       	mov	r22, r21
    3732:	6a 65       	ori	r22, 0x5A	; 90
    3734:	6e 6b       	ori	r22, 0xBE	; 190
    3736:	69 6e       	ori	r22, 0xE9	; 233
    3738:	73 2f       	mov	r23, r19
    373a:	77 6f       	ori	r23, 0xF7	; 247
    373c:	72 6b       	ori	r23, 0xB2	; 178
    373e:	73 70       	andi	r23, 0x03	; 3
    3740:	61 63       	ori	r22, 0x31	; 49
    3742:	65 2f       	mov	r22, r21
    3744:	61 76       	andi	r22, 0x61	; 97
    3746:	72 2d       	mov	r23, r2
    3748:	67 63       	ori	r22, 0x37	; 55
    374a:	63 2d       	mov	r22, r3
    374c:	73 74       	andi	r23, 0x43	; 67
    374e:	61 67       	ori	r22, 0x71	; 113
    3750:	69 6e       	ori	r22, 0xE9	; 233
    3752:	67 2f       	mov	r22, r23
    3754:	6c 61       	ori	r22, 0x1C	; 28
    3756:	62 65       	ori	r22, 0x52	; 82
    3758:	6c 2f       	mov	r22, r28
    375a:	64 65       	ori	r22, 0x54	; 84
    375c:	62 69       	ori	r22, 0x92	; 146
    375e:	61 6e       	ori	r22, 0xE1	; 225
    3760:	37 2d       	mov	r19, r7
    3762:	78 38       	cpi	r23, 0x88	; 136
    3764:	36 5f       	subi	r19, 0xF6	; 246
    3766:	36 34       	cpi	r19, 0x46	; 70
    3768:	2f 67       	ori	r18, 0x7F	; 127
    376a:	63 63       	ori	r22, 0x33	; 51
    376c:	2d 62       	ori	r18, 0x2D	; 45
    376e:	75 69       	ori	r23, 0x95	; 149
    3770:	6c 64       	ori	r22, 0x4C	; 76
    3772:	2f 61       	ori	r18, 0x1F	; 31
    3774:	76 72       	andi	r23, 0x26	; 38
    3776:	2f 61       	ori	r18, 0x1F	; 31
    3778:	76 72       	andi	r23, 0x26	; 38
    377a:	32 35       	cpi	r19, 0x52	; 82
    377c:	2f 6c       	ori	r18, 0xCF	; 207
    377e:	69 62       	ori	r22, 0x29	; 41
    3780:	67 63       	ori	r22, 0x37	; 55
    3782:	63 00       	.word	0x0063	; ????
    3784:	47 4e       	sbci	r20, 0xE7	; 231
    3786:	55 20       	and	r5, r5
    3788:	41 53       	subi	r20, 0x31	; 49
    378a:	20 32       	cpi	r18, 0x20	; 32
    378c:	2e 32       	cpi	r18, 0x2E	; 46
    378e:	36 00       	.word	0x0036	; ????
    3790:	01 80       	ldd	r0, Z+1	; 0x01
    3792:	a8 00       	.word	0x00a8	; ????
    3794:	00 00       	nop
    3796:	02 00       	.word	0x0002	; ????
    3798:	25 0d       	add	r18, r5
    379a:	00 00       	nop
    379c:	04 01       	movw	r0, r8
    379e:	d1 10       	cpse	r13, r1
    37a0:	00 00       	nop
    37a2:	30 00       	.word	0x0030	; ????
    37a4:	00 00       	nop
    37a6:	46 00       	.word	0x0046	; ????
    37a8:	00 00       	nop
    37aa:	2e 2e       	mov	r2, r30
    37ac:	2f 2e       	mov	r2, r31
    37ae:	2e 2f       	mov	r18, r30
    37b0:	2e 2e       	mov	r2, r30
    37b2:	2f 2e       	mov	r2, r31
    37b4:	2e 2f       	mov	r18, r30
    37b6:	67 63       	ori	r22, 0x37	; 55
    37b8:	63 2f       	mov	r22, r19
    37ba:	6c 69       	ori	r22, 0x9C	; 156
    37bc:	62 67       	ori	r22, 0x72	; 114
    37be:	63 63       	ori	r22, 0x33	; 51
    37c0:	2f 63       	ori	r18, 0x3F	; 63
    37c2:	6f 6e       	ori	r22, 0xEF	; 239
    37c4:	66 69       	ori	r22, 0x96	; 150
    37c6:	67 2f       	mov	r22, r23
    37c8:	61 76       	andi	r22, 0x61	; 97
    37ca:	72 2f       	mov	r23, r18
    37cc:	6c 69       	ori	r22, 0x9C	; 156
    37ce:	62 31       	cpi	r22, 0x12	; 18
    37d0:	66 75       	andi	r22, 0x56	; 86
    37d2:	6e 63       	ori	r22, 0x3E	; 62
    37d4:	73 2e       	mov	r7, r19
    37d6:	53 00       	.word	0x0053	; ????
    37d8:	2f 68       	ori	r18, 0x8F	; 143
    37da:	6f 6d       	ori	r22, 0xDF	; 223
    37dc:	65 2f       	mov	r22, r21
    37de:	6a 65       	ori	r22, 0x5A	; 90
    37e0:	6e 6b       	ori	r22, 0xBE	; 190
    37e2:	69 6e       	ori	r22, 0xE9	; 233
    37e4:	73 2f       	mov	r23, r19
    37e6:	77 6f       	ori	r23, 0xF7	; 247
    37e8:	72 6b       	ori	r23, 0xB2	; 178
    37ea:	73 70       	andi	r23, 0x03	; 3
    37ec:	61 63       	ori	r22, 0x31	; 49
    37ee:	65 2f       	mov	r22, r21
    37f0:	61 76       	andi	r22, 0x61	; 97
    37f2:	72 2d       	mov	r23, r2
    37f4:	67 63       	ori	r22, 0x37	; 55
    37f6:	63 2d       	mov	r22, r3
    37f8:	73 74       	andi	r23, 0x43	; 67
    37fa:	61 67       	ori	r22, 0x71	; 113
    37fc:	69 6e       	ori	r22, 0xE9	; 233
    37fe:	67 2f       	mov	r22, r23
    3800:	6c 61       	ori	r22, 0x1C	; 28
    3802:	62 65       	ori	r22, 0x52	; 82
    3804:	6c 2f       	mov	r22, r28
    3806:	64 65       	ori	r22, 0x54	; 84
    3808:	62 69       	ori	r22, 0x92	; 146
    380a:	61 6e       	ori	r22, 0xE1	; 225
    380c:	37 2d       	mov	r19, r7
    380e:	78 38       	cpi	r23, 0x88	; 136
    3810:	36 5f       	subi	r19, 0xF6	; 246
    3812:	36 34       	cpi	r19, 0x46	; 70
    3814:	2f 67       	ori	r18, 0x7F	; 127
    3816:	63 63       	ori	r22, 0x33	; 51
    3818:	2d 62       	ori	r18, 0x2D	; 45
    381a:	75 69       	ori	r23, 0x95	; 149
    381c:	6c 64       	ori	r22, 0x4C	; 76
    381e:	2f 61       	ori	r18, 0x1F	; 31
    3820:	76 72       	andi	r23, 0x26	; 38
    3822:	2f 61       	ori	r18, 0x1F	; 31
    3824:	76 72       	andi	r23, 0x26	; 38
    3826:	32 35       	cpi	r19, 0x52	; 82
    3828:	2f 6c       	ori	r18, 0xCF	; 207
    382a:	69 62       	ori	r22, 0x29	; 41
    382c:	67 63       	ori	r22, 0x37	; 55
    382e:	63 00       	.word	0x0063	; ????
    3830:	47 4e       	sbci	r20, 0xE7	; 231
    3832:	55 20       	and	r5, r5
    3834:	41 53       	subi	r20, 0x31	; 49
    3836:	20 32       	cpi	r18, 0x20	; 32
    3838:	2e 32       	cpi	r18, 0x2E	; 46
    383a:	36 00       	.word	0x0036	; ????
    383c:	01 80       	ldd	r0, Z+1	; 0x01
    383e:	a8 00       	.word	0x00a8	; ????
    3840:	00 00       	nop
    3842:	02 00       	.word	0x0002	; ????
    3844:	39 0d       	add	r19, r9
    3846:	00 00       	nop
    3848:	04 01       	movw	r0, r8
    384a:	69 11       	cpse	r22, r9
    384c:	00 00       	nop
    384e:	46 00       	.word	0x0046	; ????
    3850:	00 00       	nop
    3852:	56 00       	.word	0x0056	; ????
    3854:	00 00       	nop
    3856:	2e 2e       	mov	r2, r30
    3858:	2f 2e       	mov	r2, r31
    385a:	2e 2f       	mov	r18, r30
    385c:	2e 2e       	mov	r2, r30
    385e:	2f 2e       	mov	r2, r31
    3860:	2e 2f       	mov	r18, r30
    3862:	67 63       	ori	r22, 0x37	; 55
    3864:	63 2f       	mov	r22, r19
    3866:	6c 69       	ori	r22, 0x9C	; 156
    3868:	62 67       	ori	r22, 0x72	; 114
    386a:	63 63       	ori	r22, 0x33	; 51
    386c:	2f 63       	ori	r18, 0x3F	; 63
    386e:	6f 6e       	ori	r22, 0xEF	; 239
    3870:	66 69       	ori	r22, 0x96	; 150
    3872:	67 2f       	mov	r22, r23
    3874:	61 76       	andi	r22, 0x61	; 97
    3876:	72 2f       	mov	r23, r18
    3878:	6c 69       	ori	r22, 0x9C	; 156
    387a:	62 31       	cpi	r22, 0x12	; 18
    387c:	66 75       	andi	r22, 0x56	; 86
    387e:	6e 63       	ori	r22, 0x3E	; 62
    3880:	73 2e       	mov	r7, r19
    3882:	53 00       	.word	0x0053	; ????
    3884:	2f 68       	ori	r18, 0x8F	; 143
    3886:	6f 6d       	ori	r22, 0xDF	; 223
    3888:	65 2f       	mov	r22, r21
    388a:	6a 65       	ori	r22, 0x5A	; 90
    388c:	6e 6b       	ori	r22, 0xBE	; 190
    388e:	69 6e       	ori	r22, 0xE9	; 233
    3890:	73 2f       	mov	r23, r19
    3892:	77 6f       	ori	r23, 0xF7	; 247
    3894:	72 6b       	ori	r23, 0xB2	; 178
    3896:	73 70       	andi	r23, 0x03	; 3
    3898:	61 63       	ori	r22, 0x31	; 49
    389a:	65 2f       	mov	r22, r21
    389c:	61 76       	andi	r22, 0x61	; 97
    389e:	72 2d       	mov	r23, r2
    38a0:	67 63       	ori	r22, 0x37	; 55
    38a2:	63 2d       	mov	r22, r3
    38a4:	73 74       	andi	r23, 0x43	; 67
    38a6:	61 67       	ori	r22, 0x71	; 113
    38a8:	69 6e       	ori	r22, 0xE9	; 233
    38aa:	67 2f       	mov	r22, r23
    38ac:	6c 61       	ori	r22, 0x1C	; 28
    38ae:	62 65       	ori	r22, 0x52	; 82
    38b0:	6c 2f       	mov	r22, r28
    38b2:	64 65       	ori	r22, 0x54	; 84
    38b4:	62 69       	ori	r22, 0x92	; 146
    38b6:	61 6e       	ori	r22, 0xE1	; 225
    38b8:	37 2d       	mov	r19, r7
    38ba:	78 38       	cpi	r23, 0x88	; 136
    38bc:	36 5f       	subi	r19, 0xF6	; 246
    38be:	36 34       	cpi	r19, 0x46	; 70
    38c0:	2f 67       	ori	r18, 0x7F	; 127
    38c2:	63 63       	ori	r22, 0x33	; 51
    38c4:	2d 62       	ori	r18, 0x2D	; 45
    38c6:	75 69       	ori	r23, 0x95	; 149
    38c8:	6c 64       	ori	r22, 0x4C	; 76
    38ca:	2f 61       	ori	r18, 0x1F	; 31
    38cc:	76 72       	andi	r23, 0x26	; 38
    38ce:	2f 61       	ori	r18, 0x1F	; 31
    38d0:	76 72       	andi	r23, 0x26	; 38
    38d2:	32 35       	cpi	r19, 0x52	; 82
    38d4:	2f 6c       	ori	r18, 0xCF	; 207
    38d6:	69 62       	ori	r22, 0x29	; 41
    38d8:	67 63       	ori	r22, 0x37	; 55
    38da:	63 00       	.word	0x0063	; ????
    38dc:	47 4e       	sbci	r20, 0xE7	; 231
    38de:	55 20       	and	r5, r5
    38e0:	41 53       	subi	r20, 0x31	; 49
    38e2:	20 32       	cpi	r18, 0x20	; 32
    38e4:	2e 32       	cpi	r18, 0x2E	; 46
    38e6:	36 00       	.word	0x0036	; ????
    38e8:	01 80       	ldd	r0, Z+1	; 0x01
    38ea:	a8 00       	.word	0x00a8	; ????
    38ec:	00 00       	nop
    38ee:	02 00       	.word	0x0002	; ????
    38f0:	4d 0d       	add	r20, r13
    38f2:	00 00       	nop
    38f4:	04 01       	movw	r0, r8
    38f6:	ef 11       	cpse	r30, r15
    38f8:	00 00       	nop
    38fa:	56 00       	.word	0x0056	; ????
    38fc:	00 00       	nop
    38fe:	6a 00       	.word	0x006a	; ????
    3900:	00 00       	nop
    3902:	2e 2e       	mov	r2, r30
    3904:	2f 2e       	mov	r2, r31
    3906:	2e 2f       	mov	r18, r30
    3908:	2e 2e       	mov	r2, r30
    390a:	2f 2e       	mov	r2, r31
    390c:	2e 2f       	mov	r18, r30
    390e:	67 63       	ori	r22, 0x37	; 55
    3910:	63 2f       	mov	r22, r19
    3912:	6c 69       	ori	r22, 0x9C	; 156
    3914:	62 67       	ori	r22, 0x72	; 114
    3916:	63 63       	ori	r22, 0x33	; 51
    3918:	2f 63       	ori	r18, 0x3F	; 63
    391a:	6f 6e       	ori	r22, 0xEF	; 239
    391c:	66 69       	ori	r22, 0x96	; 150
    391e:	67 2f       	mov	r22, r23
    3920:	61 76       	andi	r22, 0x61	; 97
    3922:	72 2f       	mov	r23, r18
    3924:	6c 69       	ori	r22, 0x9C	; 156
    3926:	62 31       	cpi	r22, 0x12	; 18
    3928:	66 75       	andi	r22, 0x56	; 86
    392a:	6e 63       	ori	r22, 0x3E	; 62
    392c:	73 2e       	mov	r7, r19
    392e:	53 00       	.word	0x0053	; ????
    3930:	2f 68       	ori	r18, 0x8F	; 143
    3932:	6f 6d       	ori	r22, 0xDF	; 223
    3934:	65 2f       	mov	r22, r21
    3936:	6a 65       	ori	r22, 0x5A	; 90
    3938:	6e 6b       	ori	r22, 0xBE	; 190
    393a:	69 6e       	ori	r22, 0xE9	; 233
    393c:	73 2f       	mov	r23, r19
    393e:	77 6f       	ori	r23, 0xF7	; 247
    3940:	72 6b       	ori	r23, 0xB2	; 178
    3942:	73 70       	andi	r23, 0x03	; 3
    3944:	61 63       	ori	r22, 0x31	; 49
    3946:	65 2f       	mov	r22, r21
    3948:	61 76       	andi	r22, 0x61	; 97
    394a:	72 2d       	mov	r23, r2
    394c:	67 63       	ori	r22, 0x37	; 55
    394e:	63 2d       	mov	r22, r3
    3950:	73 74       	andi	r23, 0x43	; 67
    3952:	61 67       	ori	r22, 0x71	; 113
    3954:	69 6e       	ori	r22, 0xE9	; 233
    3956:	67 2f       	mov	r22, r23
    3958:	6c 61       	ori	r22, 0x1C	; 28
    395a:	62 65       	ori	r22, 0x52	; 82
    395c:	6c 2f       	mov	r22, r28
    395e:	64 65       	ori	r22, 0x54	; 84
    3960:	62 69       	ori	r22, 0x92	; 146
    3962:	61 6e       	ori	r22, 0xE1	; 225
    3964:	37 2d       	mov	r19, r7
    3966:	78 38       	cpi	r23, 0x88	; 136
    3968:	36 5f       	subi	r19, 0xF6	; 246
    396a:	36 34       	cpi	r19, 0x46	; 70
    396c:	2f 67       	ori	r18, 0x7F	; 127
    396e:	63 63       	ori	r22, 0x33	; 51
    3970:	2d 62       	ori	r18, 0x2D	; 45
    3972:	75 69       	ori	r23, 0x95	; 149
    3974:	6c 64       	ori	r22, 0x4C	; 76
    3976:	2f 61       	ori	r18, 0x1F	; 31
    3978:	76 72       	andi	r23, 0x26	; 38
    397a:	2f 61       	ori	r18, 0x1F	; 31
    397c:	76 72       	andi	r23, 0x26	; 38
    397e:	32 35       	cpi	r19, 0x52	; 82
    3980:	2f 6c       	ori	r18, 0xCF	; 207
    3982:	69 62       	ori	r22, 0x29	; 41
    3984:	67 63       	ori	r22, 0x37	; 55
    3986:	63 00       	.word	0x0063	; ????
    3988:	47 4e       	sbci	r20, 0xE7	; 231
    398a:	55 20       	and	r5, r5
    398c:	41 53       	subi	r20, 0x31	; 49
    398e:	20 32       	cpi	r18, 0x20	; 32
    3990:	2e 32       	cpi	r18, 0x2E	; 46
    3992:	36 00       	.word	0x0036	; ????
    3994:	01 80       	ldd	r0, Z+1	; 0x01
    3996:	a8 00       	.word	0x00a8	; ????
    3998:	00 00       	nop
    399a:	02 00       	.word	0x0002	; ????
    399c:	61 0d       	add	r22, r1
    399e:	00 00       	nop
    39a0:	04 01       	movw	r0, r8
    39a2:	81 12       	cpse	r8, r17
    39a4:	00 00       	nop
    39a6:	04 0f       	add	r16, r20
    39a8:	00 00       	nop
    39aa:	2c 0f       	add	r18, r28
    39ac:	00 00       	nop
    39ae:	2e 2e       	mov	r2, r30
    39b0:	2f 2e       	mov	r2, r31
    39b2:	2e 2f       	mov	r18, r30
    39b4:	2e 2e       	mov	r2, r30
    39b6:	2f 2e       	mov	r2, r31
    39b8:	2e 2f       	mov	r18, r30
    39ba:	67 63       	ori	r22, 0x37	; 55
    39bc:	63 2f       	mov	r22, r19
    39be:	6c 69       	ori	r22, 0x9C	; 156
    39c0:	62 67       	ori	r22, 0x72	; 114
    39c2:	63 63       	ori	r22, 0x33	; 51
    39c4:	2f 63       	ori	r18, 0x3F	; 63
    39c6:	6f 6e       	ori	r22, 0xEF	; 239
    39c8:	66 69       	ori	r22, 0x96	; 150
    39ca:	67 2f       	mov	r22, r23
    39cc:	61 76       	andi	r22, 0x61	; 97
    39ce:	72 2f       	mov	r23, r18
    39d0:	6c 69       	ori	r22, 0x9C	; 156
    39d2:	62 31       	cpi	r22, 0x12	; 18
    39d4:	66 75       	andi	r22, 0x56	; 86
    39d6:	6e 63       	ori	r22, 0x3E	; 62
    39d8:	73 2e       	mov	r7, r19
    39da:	53 00       	.word	0x0053	; ????
    39dc:	2f 68       	ori	r18, 0x8F	; 143
    39de:	6f 6d       	ori	r22, 0xDF	; 223
    39e0:	65 2f       	mov	r22, r21
    39e2:	6a 65       	ori	r22, 0x5A	; 90
    39e4:	6e 6b       	ori	r22, 0xBE	; 190
    39e6:	69 6e       	ori	r22, 0xE9	; 233
    39e8:	73 2f       	mov	r23, r19
    39ea:	77 6f       	ori	r23, 0xF7	; 247
    39ec:	72 6b       	ori	r23, 0xB2	; 178
    39ee:	73 70       	andi	r23, 0x03	; 3
    39f0:	61 63       	ori	r22, 0x31	; 49
    39f2:	65 2f       	mov	r22, r21
    39f4:	61 76       	andi	r22, 0x61	; 97
    39f6:	72 2d       	mov	r23, r2
    39f8:	67 63       	ori	r22, 0x37	; 55
    39fa:	63 2d       	mov	r22, r3
    39fc:	73 74       	andi	r23, 0x43	; 67
    39fe:	61 67       	ori	r22, 0x71	; 113
    3a00:	69 6e       	ori	r22, 0xE9	; 233
    3a02:	67 2f       	mov	r22, r23
    3a04:	6c 61       	ori	r22, 0x1C	; 28
    3a06:	62 65       	ori	r22, 0x52	; 82
    3a08:	6c 2f       	mov	r22, r28
    3a0a:	64 65       	ori	r22, 0x54	; 84
    3a0c:	62 69       	ori	r22, 0x92	; 146
    3a0e:	61 6e       	ori	r22, 0xE1	; 225
    3a10:	37 2d       	mov	r19, r7
    3a12:	78 38       	cpi	r23, 0x88	; 136
    3a14:	36 5f       	subi	r19, 0xF6	; 246
    3a16:	36 34       	cpi	r19, 0x46	; 70
    3a18:	2f 67       	ori	r18, 0x7F	; 127
    3a1a:	63 63       	ori	r22, 0x33	; 51
    3a1c:	2d 62       	ori	r18, 0x2D	; 45
    3a1e:	75 69       	ori	r23, 0x95	; 149
    3a20:	6c 64       	ori	r22, 0x4C	; 76
    3a22:	2f 61       	ori	r18, 0x1F	; 31
    3a24:	76 72       	andi	r23, 0x26	; 38
    3a26:	2f 61       	ori	r18, 0x1F	; 31
    3a28:	76 72       	andi	r23, 0x26	; 38
    3a2a:	32 35       	cpi	r19, 0x52	; 82
    3a2c:	2f 6c       	ori	r18, 0xCF	; 207
    3a2e:	69 62       	ori	r22, 0x29	; 41
    3a30:	67 63       	ori	r22, 0x37	; 55
    3a32:	63 00       	.word	0x0063	; ????
    3a34:	47 4e       	sbci	r20, 0xE7	; 231
    3a36:	55 20       	and	r5, r5
    3a38:	41 53       	subi	r20, 0x31	; 49
    3a3a:	20 32       	cpi	r18, 0x20	; 32
    3a3c:	2e 32       	cpi	r18, 0x2E	; 46
    3a3e:	36 00       	.word	0x0036	; ????
    3a40:	01 80       	ldd	r0, Z+1	; 0x01
    3a42:	a8 00       	.word	0x00a8	; ????
    3a44:	00 00       	nop
    3a46:	02 00       	.word	0x0002	; ????
    3a48:	75 0d       	add	r23, r5
    3a4a:	00 00       	nop
    3a4c:	04 01       	movw	r0, r8
    3a4e:	4f 13       	cpse	r20, r31
    3a50:	00 00       	nop
    3a52:	2c 0f       	add	r18, r28
    3a54:	00 00       	nop
    3a56:	38 0f       	add	r19, r24
    3a58:	00 00       	nop
    3a5a:	2e 2e       	mov	r2, r30
    3a5c:	2f 2e       	mov	r2, r31
    3a5e:	2e 2f       	mov	r18, r30
    3a60:	2e 2e       	mov	r2, r30
    3a62:	2f 2e       	mov	r2, r31
    3a64:	2e 2f       	mov	r18, r30
    3a66:	67 63       	ori	r22, 0x37	; 55
    3a68:	63 2f       	mov	r22, r19
    3a6a:	6c 69       	ori	r22, 0x9C	; 156
    3a6c:	62 67       	ori	r22, 0x72	; 114
    3a6e:	63 63       	ori	r22, 0x33	; 51
    3a70:	2f 63       	ori	r18, 0x3F	; 63
    3a72:	6f 6e       	ori	r22, 0xEF	; 239
    3a74:	66 69       	ori	r22, 0x96	; 150
    3a76:	67 2f       	mov	r22, r23
    3a78:	61 76       	andi	r22, 0x61	; 97
    3a7a:	72 2f       	mov	r23, r18
    3a7c:	6c 69       	ori	r22, 0x9C	; 156
    3a7e:	62 31       	cpi	r22, 0x12	; 18
    3a80:	66 75       	andi	r22, 0x56	; 86
    3a82:	6e 63       	ori	r22, 0x3E	; 62
    3a84:	73 2e       	mov	r7, r19
    3a86:	53 00       	.word	0x0053	; ????
    3a88:	2f 68       	ori	r18, 0x8F	; 143
    3a8a:	6f 6d       	ori	r22, 0xDF	; 223
    3a8c:	65 2f       	mov	r22, r21
    3a8e:	6a 65       	ori	r22, 0x5A	; 90
    3a90:	6e 6b       	ori	r22, 0xBE	; 190
    3a92:	69 6e       	ori	r22, 0xE9	; 233
    3a94:	73 2f       	mov	r23, r19
    3a96:	77 6f       	ori	r23, 0xF7	; 247
    3a98:	72 6b       	ori	r23, 0xB2	; 178
    3a9a:	73 70       	andi	r23, 0x03	; 3
    3a9c:	61 63       	ori	r22, 0x31	; 49
    3a9e:	65 2f       	mov	r22, r21
    3aa0:	61 76       	andi	r22, 0x61	; 97
    3aa2:	72 2d       	mov	r23, r2
    3aa4:	67 63       	ori	r22, 0x37	; 55
    3aa6:	63 2d       	mov	r22, r3
    3aa8:	73 74       	andi	r23, 0x43	; 67
    3aaa:	61 67       	ori	r22, 0x71	; 113
    3aac:	69 6e       	ori	r22, 0xE9	; 233
    3aae:	67 2f       	mov	r22, r23
    3ab0:	6c 61       	ori	r22, 0x1C	; 28
    3ab2:	62 65       	ori	r22, 0x52	; 82
    3ab4:	6c 2f       	mov	r22, r28
    3ab6:	64 65       	ori	r22, 0x54	; 84
    3ab8:	62 69       	ori	r22, 0x92	; 146
    3aba:	61 6e       	ori	r22, 0xE1	; 225
    3abc:	37 2d       	mov	r19, r7
    3abe:	78 38       	cpi	r23, 0x88	; 136
    3ac0:	36 5f       	subi	r19, 0xF6	; 246
    3ac2:	36 34       	cpi	r19, 0x46	; 70
    3ac4:	2f 67       	ori	r18, 0x7F	; 127
    3ac6:	63 63       	ori	r22, 0x33	; 51
    3ac8:	2d 62       	ori	r18, 0x2D	; 45
    3aca:	75 69       	ori	r23, 0x95	; 149
    3acc:	6c 64       	ori	r22, 0x4C	; 76
    3ace:	2f 61       	ori	r18, 0x1F	; 31
    3ad0:	76 72       	andi	r23, 0x26	; 38
    3ad2:	2f 61       	ori	r18, 0x1F	; 31
    3ad4:	76 72       	andi	r23, 0x26	; 38
    3ad6:	32 35       	cpi	r19, 0x52	; 82
    3ad8:	2f 6c       	ori	r18, 0xCF	; 207
    3ada:	69 62       	ori	r22, 0x29	; 41
    3adc:	67 63       	ori	r22, 0x37	; 55
    3ade:	63 00       	.word	0x0063	; ????
    3ae0:	47 4e       	sbci	r20, 0xE7	; 231
    3ae2:	55 20       	and	r5, r5
    3ae4:	41 53       	subi	r20, 0x31	; 49
    3ae6:	20 32       	cpi	r18, 0x20	; 32
    3ae8:	2e 32       	cpi	r18, 0x2E	; 46
    3aea:	36 00       	.word	0x0036	; ????
    3aec:	01 80       	ldd	r0, Z+1	; 0x01

Disassembly of section .debug_abbrev:

00000000 <.debug_abbrev>:
   0:	01 11       	cpse	r16, r1
   2:	01 25       	eor	r16, r1
   4:	0e 10       	cpse	r0, r14
   6:	06 00       	.word	0x0006	; ????
   8:	00 02       	muls	r16, r16
   a:	24 00       	.word	0x0024	; ????
   c:	03 0e       	add	r0, r19
   e:	0b 0b       	sbc	r16, r27
  10:	3e 0b       	sbc	r19, r30
  12:	00 00       	nop
  14:	03 24       	eor	r0, r3
  16:	00 03       	mulsu	r16, r16
  18:	0e 0b       	sbc	r16, r30
  1a:	0b 3e       	cpi	r16, 0xEB	; 235
  1c:	0b 00       	.word	0x000b	; ????
  1e:	00 04       	cpc	r0, r0
  20:	01 01       	movw	r0, r2
  22:	49 13       	cpse	r20, r25
  24:	00 00       	nop
  26:	05 21       	and	r16, r5
  28:	00 49       	sbci	r16, 0x90	; 144
  2a:	13 2f       	mov	r17, r19
  2c:	05 00       	.word	0x0005	; ????
  2e:	00 06       	cpc	r0, r16
  30:	34 00       	.word	0x0034	; ????
  32:	03 0e       	add	r0, r19
  34:	3a 0b       	sbc	r19, r26
  36:	3b 0b       	sbc	r19, r27
  38:	49 13       	cpse	r20, r25
  3a:	3f 0c       	add	r3, r15
  3c:	02 0a       	sbc	r0, r18
  3e:	00 00       	nop
  40:	07 34       	cpi	r16, 0x47	; 71
  42:	00 03       	mulsu	r16, r16
  44:	0e 3a       	cpi	r16, 0xAE	; 174
  46:	0b 3b       	cpi	r16, 0xBB	; 187
  48:	0b 49       	sbci	r16, 0x9B	; 155
  4a:	13 3f       	cpi	r17, 0xF3	; 243
  4c:	0c 02       	muls	r16, r28
  4e:	0a 00       	.word	0x000a	; ????
  50:	00 08       	sbc	r0, r0
  52:	34 00       	.word	0x0034	; ????
  54:	03 0e       	add	r0, r19
  56:	3a 0b       	sbc	r19, r26
  58:	3b 0b       	sbc	r19, r27
  5a:	49 13       	cpse	r20, r25
  5c:	3f 0c       	add	r3, r15
  5e:	02 0a       	sbc	r0, r18
  60:	00 00       	nop
  62:	09 34       	cpi	r16, 0x49	; 73
  64:	00 03       	mulsu	r16, r16
  66:	0e 3a       	cpi	r16, 0xAE	; 174
  68:	0b 3b       	cpi	r16, 0xBB	; 187
  6a:	0b 49       	sbci	r16, 0x9B	; 155
  6c:	13 3f       	cpi	r17, 0xF3	; 243
  6e:	0c 02       	muls	r16, r28
  70:	0a 00       	.word	0x000a	; ????
  72:	00 0a       	sbc	r0, r16
  74:	34 00       	.word	0x0034	; ????
  76:	03 0e       	add	r0, r19
  78:	3a 0b       	sbc	r19, r26
  7a:	3b 0b       	sbc	r19, r27
  7c:	49 13       	cpse	r20, r25
  7e:	3f 0c       	add	r3, r15
  80:	02 0a       	sbc	r0, r18
  82:	00 00       	nop
  84:	0b 34       	cpi	r16, 0x4B	; 75
  86:	00 03       	mulsu	r16, r16
  88:	0e 3a       	cpi	r16, 0xAE	; 174
  8a:	0b 3b       	cpi	r16, 0xBB	; 187
  8c:	0b 49       	sbci	r16, 0x9B	; 155
  8e:	13 3f       	cpi	r17, 0xF3	; 243
  90:	0c 02       	muls	r16, r28
  92:	0a 00       	.word	0x000a	; ????
  94:	00 0c       	add	r0, r0
  96:	34 00       	.word	0x0034	; ????
  98:	03 0e       	add	r0, r19
  9a:	3a 0b       	sbc	r19, r26
  9c:	3b 0b       	sbc	r19, r27
  9e:	49 13       	cpse	r20, r25
  a0:	3f 0c       	add	r3, r15
  a2:	02 0a       	sbc	r0, r18
  a4:	00 00       	nop
  a6:	0d 34       	cpi	r16, 0x4D	; 77
  a8:	00 03       	mulsu	r16, r16
  aa:	0e 3a       	cpi	r16, 0xAE	; 174
  ac:	0b 3b       	cpi	r16, 0xBB	; 187
  ae:	0b 49       	sbci	r16, 0x9B	; 155
  b0:	13 3f       	cpi	r17, 0xF3	; 243
  b2:	0c 02       	muls	r16, r28
  b4:	0a 00       	.word	0x000a	; ????
  b6:	00 0e       	add	r0, r16
  b8:	34 00       	.word	0x0034	; ????
  ba:	03 0e       	add	r0, r19
  bc:	3a 0b       	sbc	r19, r26
  be:	3b 0b       	sbc	r19, r27
  c0:	49 13       	cpse	r20, r25
  c2:	3f 0c       	add	r3, r15
  c4:	02 0a       	sbc	r0, r18
  c6:	00 00       	nop
  c8:	0f 34       	cpi	r16, 0x4F	; 79
  ca:	00 03       	mulsu	r16, r16
  cc:	0e 3a       	cpi	r16, 0xAE	; 174
  ce:	0b 3b       	cpi	r16, 0xBB	; 187
  d0:	0b 49       	sbci	r16, 0x9B	; 155
  d2:	13 3f       	cpi	r17, 0xF3	; 243
  d4:	0c 02       	muls	r16, r28
  d6:	0a 00       	.word	0x000a	; ????
  d8:	00 10       	cpse	r0, r0
  da:	34 00       	.word	0x0034	; ????
  dc:	03 0e       	add	r0, r19
  de:	3a 0b       	sbc	r19, r26
  e0:	3b 0b       	sbc	r19, r27
  e2:	49 13       	cpse	r20, r25
  e4:	3f 0c       	add	r3, r15
  e6:	02 0a       	sbc	r0, r18
  e8:	00 00       	nop
  ea:	11 34       	cpi	r17, 0x41	; 65
  ec:	00 03       	mulsu	r16, r16
  ee:	0e 3a       	cpi	r16, 0xAE	; 174
  f0:	0b 3b       	cpi	r16, 0xBB	; 187
  f2:	0b 49       	sbci	r16, 0x9B	; 155
  f4:	13 3f       	cpi	r17, 0xF3	; 243
  f6:	0c 02       	muls	r16, r28
  f8:	0a 00       	.word	0x000a	; ????
  fa:	00 12       	cpse	r0, r16
  fc:	34 00       	.word	0x0034	; ????
  fe:	03 0e       	add	r0, r19
 100:	3a 0b       	sbc	r19, r26
 102:	3b 0b       	sbc	r19, r27
 104:	49 13       	cpse	r20, r25
 106:	3f 0c       	add	r3, r15
 108:	02 0a       	sbc	r0, r18
 10a:	00 00       	nop
 10c:	13 34       	cpi	r17, 0x43	; 67
 10e:	00 03       	mulsu	r16, r16
 110:	0e 3a       	cpi	r16, 0xAE	; 174
 112:	0b 3b       	cpi	r16, 0xBB	; 187
 114:	0b 49       	sbci	r16, 0x9B	; 155
 116:	13 3f       	cpi	r17, 0xF3	; 243
 118:	0c 02       	muls	r16, r28
 11a:	0a 00       	.word	0x000a	; ????
 11c:	00 14       	cp	r0, r0
 11e:	34 00       	.word	0x0034	; ????
 120:	03 0e       	add	r0, r19
 122:	3a 0b       	sbc	r19, r26
 124:	3b 0b       	sbc	r19, r27
 126:	49 13       	cpse	r20, r25
 128:	3f 0c       	add	r3, r15
 12a:	02 0a       	sbc	r0, r18
 12c:	00 00       	nop
 12e:	15 34       	cpi	r17, 0x45	; 69
 130:	00 03       	mulsu	r16, r16
 132:	0e 3a       	cpi	r16, 0xAE	; 174
 134:	0b 3b       	cpi	r16, 0xBB	; 187
 136:	0b 49       	sbci	r16, 0x9B	; 155
 138:	13 3f       	cpi	r17, 0xF3	; 243
 13a:	0c 02       	muls	r16, r28
 13c:	0a 00       	.word	0x000a	; ????
 13e:	00 16       	cp	r0, r16
 140:	34 00       	.word	0x0034	; ????
 142:	03 0e       	add	r0, r19
 144:	3a 0b       	sbc	r19, r26
 146:	3b 0b       	sbc	r19, r27
 148:	49 13       	cpse	r20, r25
 14a:	3f 0c       	add	r3, r15
 14c:	02 0a       	sbc	r0, r18
 14e:	00 00       	nop
 150:	17 34       	cpi	r17, 0x47	; 71
 152:	00 03       	mulsu	r16, r16
 154:	0e 3a       	cpi	r16, 0xAE	; 174
 156:	0b 3b       	cpi	r16, 0xBB	; 187
 158:	0b 49       	sbci	r16, 0x9B	; 155
 15a:	13 3f       	cpi	r17, 0xF3	; 243
 15c:	0c 02       	muls	r16, r28
 15e:	0a 00       	.word	0x000a	; ????
 160:	00 18       	sub	r0, r0
 162:	34 00       	.word	0x0034	; ????
 164:	03 0e       	add	r0, r19
 166:	3a 0b       	sbc	r19, r26
 168:	3b 0b       	sbc	r19, r27
 16a:	49 13       	cpse	r20, r25
 16c:	3f 0c       	add	r3, r15
 16e:	02 0a       	sbc	r0, r18
 170:	00 00       	nop
 172:	19 34       	cpi	r17, 0x49	; 73
 174:	00 03       	mulsu	r16, r16
 176:	0e 3a       	cpi	r16, 0xAE	; 174
 178:	0b 3b       	cpi	r16, 0xBB	; 187
 17a:	0b 49       	sbci	r16, 0x9B	; 155
 17c:	13 3f       	cpi	r17, 0xF3	; 243
 17e:	0c 02       	muls	r16, r28
 180:	0a 00       	.word	0x000a	; ????
 182:	00 1a       	sub	r0, r16
 184:	34 00       	.word	0x0034	; ????
 186:	03 0e       	add	r0, r19
 188:	3a 0b       	sbc	r19, r26
 18a:	3b 0b       	sbc	r19, r27
 18c:	49 13       	cpse	r20, r25
 18e:	3f 0c       	add	r3, r15
 190:	02 0a       	sbc	r0, r18
 192:	00 00       	nop
 194:	1b 34       	cpi	r17, 0x4B	; 75
 196:	00 03       	mulsu	r16, r16
 198:	0e 3a       	cpi	r16, 0xAE	; 174
 19a:	0b 3b       	cpi	r16, 0xBB	; 187
 19c:	0b 49       	sbci	r16, 0x9B	; 155
 19e:	13 3f       	cpi	r17, 0xF3	; 243
 1a0:	0c 02       	muls	r16, r28
 1a2:	0a 00       	.word	0x000a	; ????
 1a4:	00 1c       	adc	r0, r0
 1a6:	34 00       	.word	0x0034	; ????
 1a8:	03 0e       	add	r0, r19
 1aa:	3a 0b       	sbc	r19, r26
 1ac:	3b 0b       	sbc	r19, r27
 1ae:	49 13       	cpse	r20, r25
 1b0:	3f 0c       	add	r3, r15
 1b2:	02 0a       	sbc	r0, r18
 1b4:	00 00       	nop
 1b6:	1d 34       	cpi	r17, 0x4D	; 77
 1b8:	00 03       	mulsu	r16, r16
 1ba:	0e 3a       	cpi	r16, 0xAE	; 174
 1bc:	0b 3b       	cpi	r16, 0xBB	; 187
 1be:	0b 49       	sbci	r16, 0x9B	; 155
 1c0:	13 3f       	cpi	r17, 0xF3	; 243
 1c2:	0c 02       	muls	r16, r28
 1c4:	0a 00       	.word	0x000a	; ????
 1c6:	00 1e       	adc	r0, r16
 1c8:	34 00       	.word	0x0034	; ????
 1ca:	03 0e       	add	r0, r19
 1cc:	3a 0b       	sbc	r19, r26
 1ce:	3b 0b       	sbc	r19, r27
 1d0:	49 13       	cpse	r20, r25
 1d2:	3f 0c       	add	r3, r15
 1d4:	02 0a       	sbc	r0, r18
 1d6:	00 00       	nop
 1d8:	1f 34       	cpi	r17, 0x4F	; 79
 1da:	00 03       	mulsu	r16, r16
 1dc:	0e 3a       	cpi	r16, 0xAE	; 174
 1de:	0b 3b       	cpi	r16, 0xBB	; 187
 1e0:	0b 49       	sbci	r16, 0x9B	; 155
 1e2:	13 3f       	cpi	r17, 0xF3	; 243
 1e4:	0c 02       	muls	r16, r28
 1e6:	0a 00       	.word	0x000a	; ????
 1e8:	00 20       	and	r0, r0
 1ea:	34 00       	.word	0x0034	; ????
 1ec:	03 0e       	add	r0, r19
 1ee:	3a 0b       	sbc	r19, r26
 1f0:	3b 0b       	sbc	r19, r27
 1f2:	49 13       	cpse	r20, r25
 1f4:	3f 0c       	add	r3, r15
 1f6:	02 0a       	sbc	r0, r18
 1f8:	00 00       	nop
 1fa:	21 34       	cpi	r18, 0x41	; 65
 1fc:	00 03       	mulsu	r16, r16
 1fe:	0e 3a       	cpi	r16, 0xAE	; 174
 200:	0b 3b       	cpi	r16, 0xBB	; 187
 202:	0b 49       	sbci	r16, 0x9B	; 155
 204:	13 3f       	cpi	r17, 0xF3	; 243
 206:	0c 02       	muls	r16, r28
 208:	0a 00       	.word	0x000a	; ????
 20a:	00 22       	and	r0, r16
 20c:	34 00       	.word	0x0034	; ????
 20e:	03 0e       	add	r0, r19
 210:	3a 0b       	sbc	r19, r26
 212:	3b 0b       	sbc	r19, r27
 214:	49 13       	cpse	r20, r25
 216:	3f 0c       	add	r3, r15
 218:	02 0a       	sbc	r0, r18
 21a:	00 00       	nop
 21c:	23 34       	cpi	r18, 0x43	; 67
 21e:	00 03       	mulsu	r16, r16
 220:	0e 3a       	cpi	r16, 0xAE	; 174
 222:	0b 3b       	cpi	r16, 0xBB	; 187
 224:	0b 49       	sbci	r16, 0x9B	; 155
 226:	13 3f       	cpi	r17, 0xF3	; 243
 228:	0c 02       	muls	r16, r28
 22a:	0a 00       	.word	0x000a	; ????
 22c:	00 24       	eor	r0, r0
 22e:	34 00       	.word	0x0034	; ????
 230:	03 0e       	add	r0, r19
 232:	3a 0b       	sbc	r19, r26
 234:	3b 0b       	sbc	r19, r27
 236:	49 13       	cpse	r20, r25
 238:	3f 0c       	add	r3, r15
 23a:	02 0a       	sbc	r0, r18
 23c:	00 00       	nop
 23e:	25 34       	cpi	r18, 0x45	; 69
 240:	00 03       	mulsu	r16, r16
 242:	0e 3a       	cpi	r16, 0xAE	; 174
 244:	0b 3b       	cpi	r16, 0xBB	; 187
 246:	0b 49       	sbci	r16, 0x9B	; 155
 248:	13 3f       	cpi	r17, 0xF3	; 243
 24a:	0c 02       	muls	r16, r28
 24c:	0a 00       	.word	0x000a	; ????
 24e:	00 26       	eor	r0, r16
 250:	34 00       	.word	0x0034	; ????
 252:	03 0e       	add	r0, r19
 254:	3a 0b       	sbc	r19, r26
 256:	3b 0b       	sbc	r19, r27
 258:	49 13       	cpse	r20, r25
 25a:	3f 0c       	add	r3, r15
 25c:	02 0a       	sbc	r0, r18
 25e:	00 00       	nop
 260:	27 34       	cpi	r18, 0x47	; 71
 262:	00 03       	mulsu	r16, r16
 264:	0e 3a       	cpi	r16, 0xAE	; 174
 266:	0b 3b       	cpi	r16, 0xBB	; 187
 268:	0b 49       	sbci	r16, 0x9B	; 155
 26a:	13 3f       	cpi	r17, 0xF3	; 243
 26c:	0c 02       	muls	r16, r28
 26e:	0a 00       	.word	0x000a	; ????
 270:	00 28       	or	r0, r0
 272:	34 00       	.word	0x0034	; ????
 274:	03 0e       	add	r0, r19
 276:	3a 0b       	sbc	r19, r26
 278:	3b 0b       	sbc	r19, r27
 27a:	49 13       	cpse	r20, r25
 27c:	3f 0c       	add	r3, r15
 27e:	02 0a       	sbc	r0, r18
 280:	00 00       	nop
 282:	29 34       	cpi	r18, 0x49	; 73
 284:	00 03       	mulsu	r16, r16
 286:	0e 3a       	cpi	r16, 0xAE	; 174
 288:	0b 3b       	cpi	r16, 0xBB	; 187
 28a:	0b 49       	sbci	r16, 0x9B	; 155
 28c:	13 3f       	cpi	r17, 0xF3	; 243
 28e:	0c 02       	muls	r16, r28
 290:	0a 00       	.word	0x000a	; ????
 292:	00 2a       	or	r0, r16
 294:	34 00       	.word	0x0034	; ????
 296:	03 0e       	add	r0, r19
 298:	3a 0b       	sbc	r19, r26
 29a:	3b 0b       	sbc	r19, r27
 29c:	49 13       	cpse	r20, r25
 29e:	3f 0c       	add	r3, r15
 2a0:	02 0a       	sbc	r0, r18
 2a2:	00 00       	nop
 2a4:	2b 34       	cpi	r18, 0x4B	; 75
 2a6:	00 03       	mulsu	r16, r16
 2a8:	0e 3a       	cpi	r16, 0xAE	; 174
 2aa:	0b 3b       	cpi	r16, 0xBB	; 187
 2ac:	0b 49       	sbci	r16, 0x9B	; 155
 2ae:	13 3f       	cpi	r17, 0xF3	; 243
 2b0:	0c 02       	muls	r16, r28
 2b2:	0a 00       	.word	0x000a	; ????
 2b4:	00 2c       	mov	r0, r0
 2b6:	34 00       	.word	0x0034	; ????
 2b8:	03 0e       	add	r0, r19
 2ba:	3a 0b       	sbc	r19, r26
 2bc:	3b 0b       	sbc	r19, r27
 2be:	49 13       	cpse	r20, r25
 2c0:	3f 0c       	add	r3, r15
 2c2:	02 0a       	sbc	r0, r18
 2c4:	00 00       	nop
 2c6:	2d 34       	cpi	r18, 0x4D	; 77
 2c8:	00 03       	mulsu	r16, r16
 2ca:	0e 3a       	cpi	r16, 0xAE	; 174
 2cc:	0b 3b       	cpi	r16, 0xBB	; 187
 2ce:	0b 49       	sbci	r16, 0x9B	; 155
 2d0:	13 3f       	cpi	r17, 0xF3	; 243
 2d2:	0c 02       	muls	r16, r28
 2d4:	0a 00       	.word	0x000a	; ????
 2d6:	00 2e       	mov	r0, r16
 2d8:	34 00       	.word	0x0034	; ????
 2da:	03 0e       	add	r0, r19
 2dc:	3a 0b       	sbc	r19, r26
 2de:	3b 0b       	sbc	r19, r27
 2e0:	49 13       	cpse	r20, r25
 2e2:	3f 0c       	add	r3, r15
 2e4:	02 0a       	sbc	r0, r18
 2e6:	00 00       	nop
 2e8:	2f 34       	cpi	r18, 0x4F	; 79
 2ea:	00 03       	mulsu	r16, r16
 2ec:	0e 3a       	cpi	r16, 0xAE	; 174
 2ee:	0b 3b       	cpi	r16, 0xBB	; 187
 2f0:	0b 49       	sbci	r16, 0x9B	; 155
 2f2:	13 3f       	cpi	r17, 0xF3	; 243
 2f4:	0c 02       	muls	r16, r28
 2f6:	0a 00       	.word	0x000a	; ????
 2f8:	00 30       	cpi	r16, 0x00	; 0
 2fa:	34 00       	.word	0x0034	; ????
 2fc:	03 0e       	add	r0, r19
 2fe:	3a 0b       	sbc	r19, r26
 300:	3b 0b       	sbc	r19, r27
 302:	49 13       	cpse	r20, r25
 304:	3f 0c       	add	r3, r15
 306:	02 0a       	sbc	r0, r18
 308:	00 00       	nop
 30a:	31 34       	cpi	r19, 0x41	; 65
 30c:	00 03       	mulsu	r16, r16
 30e:	0e 3a       	cpi	r16, 0xAE	; 174
 310:	0b 3b       	cpi	r16, 0xBB	; 187
 312:	0b 49       	sbci	r16, 0x9B	; 155
 314:	13 3f       	cpi	r17, 0xF3	; 243
 316:	0c 02       	muls	r16, r28
 318:	0a 00       	.word	0x000a	; ????
 31a:	00 32       	cpi	r16, 0x20	; 32
 31c:	34 00       	.word	0x0034	; ????
 31e:	03 0e       	add	r0, r19
 320:	3a 0b       	sbc	r19, r26
 322:	3b 0b       	sbc	r19, r27
 324:	49 13       	cpse	r20, r25
 326:	3f 0c       	add	r3, r15
 328:	02 0a       	sbc	r0, r18
 32a:	00 00       	nop
 32c:	33 34       	cpi	r19, 0x43	; 67
 32e:	00 03       	mulsu	r16, r16
 330:	0e 3a       	cpi	r16, 0xAE	; 174
 332:	0b 3b       	cpi	r16, 0xBB	; 187
 334:	0b 49       	sbci	r16, 0x9B	; 155
 336:	13 3f       	cpi	r17, 0xF3	; 243
 338:	0c 02       	muls	r16, r28
 33a:	0a 00       	.word	0x000a	; ????
 33c:	00 34       	cpi	r16, 0x40	; 64
 33e:	34 00       	.word	0x0034	; ????
 340:	03 0e       	add	r0, r19
 342:	3a 0b       	sbc	r19, r26
 344:	3b 0b       	sbc	r19, r27
 346:	49 13       	cpse	r20, r25
 348:	3f 0c       	add	r3, r15
 34a:	02 0a       	sbc	r0, r18
 34c:	00 00       	nop
 34e:	35 34       	cpi	r19, 0x45	; 69
 350:	00 03       	mulsu	r16, r16
 352:	0e 3a       	cpi	r16, 0xAE	; 174
 354:	0b 3b       	cpi	r16, 0xBB	; 187
 356:	0b 49       	sbci	r16, 0x9B	; 155
 358:	13 3f       	cpi	r17, 0xF3	; 243
 35a:	0c 02       	muls	r16, r28
 35c:	0a 00       	.word	0x000a	; ????
 35e:	00 36       	cpi	r16, 0x60	; 96
 360:	34 00       	.word	0x0034	; ????
 362:	03 0e       	add	r0, r19
 364:	3a 0b       	sbc	r19, r26
 366:	3b 0b       	sbc	r19, r27
 368:	49 13       	cpse	r20, r25
 36a:	3f 0c       	add	r3, r15
 36c:	02 0a       	sbc	r0, r18
 36e:	00 00       	nop
 370:	37 34       	cpi	r19, 0x47	; 71
 372:	00 03       	mulsu	r16, r16
 374:	0e 3a       	cpi	r16, 0xAE	; 174
 376:	0b 3b       	cpi	r16, 0xBB	; 187
 378:	0b 49       	sbci	r16, 0x9B	; 155
 37a:	13 3f       	cpi	r17, 0xF3	; 243
 37c:	0c 02       	muls	r16, r28
 37e:	0a 00       	.word	0x000a	; ????
 380:	00 38       	cpi	r16, 0x80	; 128
 382:	34 00       	.word	0x0034	; ????
 384:	03 0e       	add	r0, r19
 386:	3a 0b       	sbc	r19, r26
 388:	3b 0b       	sbc	r19, r27
 38a:	49 13       	cpse	r20, r25
 38c:	3f 0c       	add	r3, r15
 38e:	02 0a       	sbc	r0, r18
 390:	00 00       	nop
 392:	39 34       	cpi	r19, 0x49	; 73
 394:	00 03       	mulsu	r16, r16
 396:	0e 3a       	cpi	r16, 0xAE	; 174
 398:	0b 3b       	cpi	r16, 0xBB	; 187
 39a:	0b 49       	sbci	r16, 0x9B	; 155
 39c:	13 3f       	cpi	r17, 0xF3	; 243
 39e:	0c 02       	muls	r16, r28
 3a0:	0a 00       	.word	0x000a	; ????
 3a2:	00 3a       	cpi	r16, 0xA0	; 160
 3a4:	34 00       	.word	0x0034	; ????
 3a6:	03 0e       	add	r0, r19
 3a8:	3a 0b       	sbc	r19, r26
 3aa:	3b 0b       	sbc	r19, r27
 3ac:	49 13       	cpse	r20, r25
 3ae:	3f 0c       	add	r3, r15
 3b0:	02 0a       	sbc	r0, r18
 3b2:	00 00       	nop
 3b4:	3b 34       	cpi	r19, 0x4B	; 75
 3b6:	00 03       	mulsu	r16, r16
 3b8:	0e 3a       	cpi	r16, 0xAE	; 174
 3ba:	0b 3b       	cpi	r16, 0xBB	; 187
 3bc:	0b 49       	sbci	r16, 0x9B	; 155
 3be:	13 3f       	cpi	r17, 0xF3	; 243
 3c0:	0c 02       	muls	r16, r28
 3c2:	0a 00       	.word	0x000a	; ????
 3c4:	00 3c       	cpi	r16, 0xC0	; 192
 3c6:	34 00       	.word	0x0034	; ????
 3c8:	03 0e       	add	r0, r19
 3ca:	3a 0b       	sbc	r19, r26
 3cc:	3b 0b       	sbc	r19, r27
 3ce:	49 13       	cpse	r20, r25
 3d0:	3f 0c       	add	r3, r15
 3d2:	02 0a       	sbc	r0, r18
 3d4:	00 00       	nop
 3d6:	3d 34       	cpi	r19, 0x4D	; 77
 3d8:	00 03       	mulsu	r16, r16
 3da:	0e 3a       	cpi	r16, 0xAE	; 174
 3dc:	0b 3b       	cpi	r16, 0xBB	; 187
 3de:	0b 49       	sbci	r16, 0x9B	; 155
 3e0:	13 3f       	cpi	r17, 0xF3	; 243
 3e2:	0c 02       	muls	r16, r28
 3e4:	0a 00       	.word	0x000a	; ????
 3e6:	00 00       	nop
 3e8:	01 28       	or	r0, r1
 3ea:	00 03       	mulsu	r16, r16
 3ec:	0e 1c       	adc	r0, r14
 3ee:	06 00       	.word	0x0006	; ????
 3f0:	00 02       	muls	r16, r16
 3f2:	05 00       	.word	0x0005	; ????
 3f4:	49 13       	cpse	r20, r25
 3f6:	00 00       	nop
 3f8:	03 05       	cpc	r16, r3
 3fa:	00 49       	sbci	r16, 0x90	; 144
 3fc:	13 34       	cpi	r17, 0x43	; 67
 3fe:	0c 00       	.word	0x000c	; ????
 400:	00 04       	cpc	r0, r0
 402:	05 00       	.word	0x0005	; ????
 404:	31 13       	cpse	r19, r17
 406:	02 06       	cpc	r0, r18
 408:	00 00       	nop
 40a:	05 34       	cpi	r16, 0x45	; 69
 40c:	00 31       	cpi	r16, 0x10	; 16
 40e:	13 02       	muls	r17, r19
 410:	06 00       	.word	0x0006	; ????
 412:	00 06       	cpc	r0, r16
 414:	05 00       	.word	0x0005	; ????
 416:	03 0e       	add	r0, r19
 418:	3a 0b       	sbc	r19, r26
 41a:	3b 0b       	sbc	r19, r27
 41c:	49 13       	cpse	r20, r25
 41e:	00 00       	nop
 420:	07 05       	cpc	r16, r7
 422:	00 03       	mulsu	r16, r16
 424:	0e 49       	sbci	r16, 0x9E	; 158
 426:	13 34       	cpi	r17, 0x43	; 67
 428:	0c 00       	.word	0x000c	; ????
 42a:	00 08       	sbc	r0, r0
 42c:	05 00       	.word	0x0005	; ????
 42e:	31 13       	cpse	r19, r17
 430:	00 00       	nop
 432:	09 2e       	mov	r0, r25
 434:	01 47       	sbci	r16, 0x71	; 113
 436:	13 20       	and	r1, r3
 438:	0b 64       	ori	r16, 0x4B	; 75
 43a:	13 01       	movw	r2, r6
 43c:	13 00       	.word	0x0013	; ????
 43e:	00 0a       	sbc	r0, r16
 440:	34 00       	.word	0x0034	; ????
 442:	03 0e       	add	r0, r19
 444:	3a 0b       	sbc	r19, r26
 446:	3b 0b       	sbc	r19, r27
 448:	49 13       	cpse	r20, r25
 44a:	00 00       	nop
 44c:	0b 0f       	add	r16, r27
 44e:	00 0b       	sbc	r16, r16
 450:	0b 49       	sbci	r16, 0x9B	; 155
 452:	13 00       	.word	0x0013	; ????
 454:	00 0c       	add	r0, r0
 456:	34 00       	.word	0x0034	; ????
 458:	03 0e       	add	r0, r19
 45a:	3a 0b       	sbc	r19, r26
 45c:	3b 0b       	sbc	r19, r27
 45e:	49 13       	cpse	r20, r25
 460:	02 0a       	sbc	r0, r18
 462:	00 00       	nop
 464:	0d 34       	cpi	r16, 0x4D	; 77
 466:	00 03       	mulsu	r16, r16
 468:	08 3a       	cpi	r16, 0xA8	; 168
 46a:	0b 3b       	cpi	r16, 0xBB	; 187
 46c:	0b 49       	sbci	r16, 0x9B	; 155
 46e:	13 00       	.word	0x0013	; ????
 470:	00 0e       	add	r0, r16
 472:	1d 01       	movw	r2, r26
 474:	31 13       	cpse	r19, r17
 476:	11 01       	movw	r2, r2
 478:	12 01       	movw	r2, r4
 47a:	58 0b       	sbc	r21, r24
 47c:	59 0b       	sbc	r21, r25
 47e:	01 13       	cpse	r16, r17
 480:	00 00       	nop
 482:	0f 0d       	add	r16, r15
 484:	00 03       	mulsu	r16, r16
 486:	0e 3a       	cpi	r16, 0xAE	; 174
 488:	0b 3b       	cpi	r16, 0xBB	; 187
 48a:	0b 49       	sbci	r16, 0x9B	; 155
 48c:	13 38       	cpi	r17, 0x83	; 131
 48e:	0a 32       	cpi	r16, 0x2A	; 42
 490:	0b 00       	.word	0x000b	; ????
 492:	00 10       	cpse	r0, r0
 494:	0b 01       	movw	r0, r22
 496:	00 00       	nop
 498:	11 26       	eor	r1, r17
 49a:	00 49       	sbci	r16, 0x90	; 144
 49c:	13 00       	.word	0x0013	; ????
 49e:	00 12       	cpse	r0, r16
 4a0:	1d 01       	movw	r2, r26
 4a2:	31 13       	cpse	r19, r17
 4a4:	11 01       	movw	r2, r2
 4a6:	12 01       	movw	r2, r4
 4a8:	58 0b       	sbc	r21, r24
 4aa:	59 0b       	sbc	r21, r25
 4ac:	00 00       	nop
 4ae:	13 28       	or	r1, r3
 4b0:	00 03       	mulsu	r16, r16
 4b2:	0e 1c       	adc	r0, r14
 4b4:	0b 00       	.word	0x000b	; ????
 4b6:	00 14       	cp	r0, r0
 4b8:	34 00       	.word	0x0034	; ????
 4ba:	02 06       	cpc	r0, r18
 4bc:	00 00       	nop
 4be:	15 34       	cpi	r17, 0x45	; 69
 4c0:	00 03       	mulsu	r16, r16
 4c2:	08 3a       	cpi	r16, 0xA8	; 168
 4c4:	0b 3b       	cpi	r16, 0xBB	; 187
 4c6:	05 49       	sbci	r16, 0x95	; 149
 4c8:	13 00       	.word	0x0013	; ????
 4ca:	00 16       	cp	r0, r16
 4cc:	34 00       	.word	0x0034	; ????
 4ce:	31 13       	cpse	r19, r17
 4d0:	00 00       	nop
 4d2:	17 16       	cp	r1, r23
 4d4:	00 03       	mulsu	r16, r16
 4d6:	0e 3a       	cpi	r16, 0xAE	; 174
 4d8:	0b 3b       	cpi	r16, 0xBB	; 187
 4da:	0b 49       	sbci	r16, 0x9B	; 155
 4dc:	13 00       	.word	0x0013	; ????
 4de:	00 18       	sub	r0, r0
 4e0:	0b 01       	movw	r0, r22
 4e2:	11 01       	movw	r2, r2
 4e4:	12 01       	movw	r2, r4
 4e6:	00 00       	nop
 4e8:	19 8a       	std	Y+17, r1	; 0x11
 4ea:	82 01       	movw	r16, r4
 4ec:	00 02       	muls	r16, r16
 4ee:	0a 91       	ld	r16, -Y
 4f0:	42 0a       	sbc	r4, r18
 4f2:	00 00       	nop
 4f4:	1a 2e       	mov	r1, r26
 4f6:	00 47       	sbci	r16, 0x70	; 112
 4f8:	13 20       	and	r1, r3
 4fa:	0b 00       	.word	0x000b	; ????
 4fc:	00 1b       	sub	r16, r16
 4fe:	2e 01       	movw	r4, r28
 500:	03 0e       	add	r0, r19
 502:	3a 0b       	sbc	r19, r26
 504:	3b 0b       	sbc	r19, r27
 506:	3c 0c       	add	r3, r12
 508:	64 13       	cpse	r22, r20
 50a:	01 13       	cpse	r16, r17
 50c:	00 00       	nop
 50e:	1c 28       	or	r1, r12
 510:	00 03       	mulsu	r16, r16
 512:	0e 1c       	adc	r0, r14
 514:	05 00       	.word	0x0005	; ????
 516:	00 1d       	adc	r16, r0
 518:	34 00       	.word	0x0034	; ????
 51a:	03 0e       	add	r0, r19
 51c:	3a 0b       	sbc	r19, r26
 51e:	3b 05       	cpc	r19, r11
 520:	49 13       	cpse	r20, r25
 522:	00 00       	nop
 524:	1e 2e       	mov	r1, r30
 526:	01 03       	mulsu	r16, r17
 528:	0e 3a       	cpi	r16, 0xAE	; 174
 52a:	0b 3b       	cpi	r16, 0xBB	; 187
 52c:	0b 20       	and	r0, r11
 52e:	0b 01       	movw	r0, r22
 530:	13 00       	.word	0x0013	; ????
 532:	00 1f       	adc	r16, r16
 534:	0b 01       	movw	r0, r22
 536:	55 06       	cpc	r5, r21
 538:	00 00       	nop
 53a:	20 0b       	sbc	r18, r16
 53c:	01 31       	cpi	r16, 0x11	; 17
 53e:	13 55       	subi	r17, 0x53	; 83
 540:	06 00       	.word	0x0006	; ????
 542:	00 21       	and	r16, r0
 544:	05 00       	.word	0x0005	; ????
 546:	03 0e       	add	r0, r19
 548:	49 13       	cpse	r20, r25
 54a:	34 0c       	add	r3, r4
 54c:	02 06       	cpc	r0, r18
 54e:	00 00       	nop
 550:	22 0b       	sbc	r18, r18
 552:	01 31       	cpi	r16, 0x11	; 17
 554:	13 11       	cpse	r17, r3
 556:	01 12       	cpse	r0, r17
 558:	01 00       	.word	0x0001	; ????
 55a:	00 23       	and	r16, r16
 55c:	24 00       	.word	0x0024	; ????
 55e:	0b 0b       	sbc	r16, r27
 560:	3e 0b       	sbc	r19, r30
 562:	03 0e       	add	r0, r19
 564:	00 00       	nop
 566:	24 13       	cpse	r18, r20
 568:	01 03       	mulsu	r16, r17
 56a:	0e 0b       	sbc	r16, r30
 56c:	0b 3a       	cpi	r16, 0xAB	; 171
 56e:	0b 3b       	cpi	r16, 0xBB	; 187
 570:	0b 01       	movw	r0, r22
 572:	13 00       	.word	0x0013	; ????
 574:	00 25       	eor	r16, r0
 576:	05 00       	.word	0x0005	; ????
 578:	03 0e       	add	r0, r19
 57a:	3a 0b       	sbc	r19, r26
 57c:	3b 05       	cpc	r19, r11
 57e:	49 13       	cpse	r20, r25
 580:	00 00       	nop
 582:	26 34       	cpi	r18, 0x46	; 70
 584:	00 03       	mulsu	r16, r16
 586:	08 3a       	cpi	r16, 0xA8	; 168
 588:	0b 3b       	cpi	r16, 0xBB	; 187
 58a:	05 49       	sbci	r16, 0x95	; 149
 58c:	13 02       	muls	r17, r19
 58e:	06 00       	.word	0x0006	; ????
 590:	00 27       	eor	r16, r16
 592:	1d 00       	.word	0x001d	; ????
 594:	31 13       	cpse	r19, r17
 596:	11 01       	movw	r2, r2
 598:	12 01       	movw	r2, r4
 59a:	58 0b       	sbc	r21, r24
 59c:	59 0b       	sbc	r21, r25
 59e:	00 00       	nop
 5a0:	28 89       	ldd	r18, Y+16	; 0x10
 5a2:	82 01       	movw	r16, r4
 5a4:	00 11       	cpse	r16, r0
 5a6:	01 31       	cpi	r16, 0x11	; 17
 5a8:	13 00       	.word	0x0013	; ????
 5aa:	00 29       	or	r16, r0
 5ac:	1d 01       	movw	r2, r26
 5ae:	31 13       	cpse	r19, r17
 5b0:	11 01       	movw	r2, r2
 5b2:	12 01       	movw	r2, r4
 5b4:	58 0b       	sbc	r21, r24
 5b6:	59 05       	cpc	r21, r9
 5b8:	00 00       	nop
 5ba:	2a 05       	cpc	r18, r10
 5bc:	00 03       	mulsu	r16, r16
 5be:	08 3a       	cpi	r16, 0xA8	; 168
 5c0:	0b 3b       	cpi	r16, 0xBB	; 187
 5c2:	05 49       	sbci	r16, 0x95	; 149
 5c4:	13 00       	.word	0x0013	; ????
 5c6:	00 2b       	or	r16, r16
 5c8:	35 00       	.word	0x0035	; ????
 5ca:	49 13       	cpse	r20, r25
 5cc:	00 00       	nop
 5ce:	2c 2e       	mov	r2, r28
 5d0:	01 03       	mulsu	r16, r17
 5d2:	0e 3a       	cpi	r16, 0xAE	; 174
 5d4:	0b 3b       	cpi	r16, 0xBB	; 187
 5d6:	05 3c       	cpi	r16, 0xC5	; 197
 5d8:	0c 64       	ori	r16, 0x4C	; 76
 5da:	13 01       	movw	r2, r6
 5dc:	13 00       	.word	0x0013	; ????
 5de:	00 2d       	mov	r16, r0
 5e0:	01 01       	movw	r0, r2
 5e2:	49 13       	cpse	r20, r25
 5e4:	01 13       	cpse	r16, r17
 5e6:	00 00       	nop
 5e8:	2e 21       	and	r18, r14
 5ea:	00 49       	sbci	r16, 0x90	; 144
 5ec:	13 2f       	mov	r17, r19
 5ee:	0b 00       	.word	0x000b	; ????
 5f0:	00 2f       	mov	r16, r16
 5f2:	0d 00       	.word	0x000d	; ????
 5f4:	03 0e       	add	r0, r19
 5f6:	3a 0b       	sbc	r19, r26
 5f8:	3b 05       	cpc	r19, r11
 5fa:	49 13       	cpse	r20, r25
 5fc:	38 0a       	sbc	r3, r24
 5fe:	00 00       	nop
 600:	30 10       	cpse	r3, r0
 602:	00 0b       	sbc	r16, r16
 604:	0b 49       	sbci	r16, 0x9B	; 155
 606:	13 00       	.word	0x0013	; ????
 608:	00 31       	cpi	r16, 0x10	; 16
 60a:	1d 01       	movw	r2, r26
 60c:	31 13       	cpse	r19, r17
 60e:	52 01       	movw	r10, r4
 610:	55 06       	cpc	r5, r21
 612:	58 0b       	sbc	r21, r24
 614:	59 0b       	sbc	r21, r25
 616:	01 13       	cpse	r16, r17
 618:	00 00       	nop
 61a:	32 34       	cpi	r19, 0x42	; 66
 61c:	00 03       	mulsu	r16, r16
 61e:	0e 3a       	cpi	r16, 0xAE	; 174
 620:	0b 3b       	cpi	r16, 0xBB	; 187
 622:	05 49       	sbci	r16, 0x95	; 149
 624:	13 02       	muls	r17, r19
 626:	0a 00       	.word	0x000a	; ????
 628:	00 33       	cpi	r16, 0x30	; 48
 62a:	05 00       	.word	0x0005	; ????
 62c:	03 0e       	add	r0, r19
 62e:	3a 0b       	sbc	r19, r26
 630:	3b 05       	cpc	r19, r11
 632:	49 13       	cpse	r20, r25
 634:	02 06       	cpc	r0, r18
 636:	00 00       	nop
 638:	34 0d       	add	r19, r4
 63a:	00 03       	mulsu	r16, r16
 63c:	08 3a       	cpi	r16, 0xA8	; 168
 63e:	0b 3b       	cpi	r16, 0xBB	; 187
 640:	0b 49       	sbci	r16, 0x9B	; 155
 642:	13 00       	.word	0x0013	; ????
 644:	00 35       	cpi	r16, 0x50	; 80
 646:	1d 01       	movw	r2, r26
 648:	31 13       	cpse	r19, r17
 64a:	52 01       	movw	r10, r4
 64c:	55 06       	cpc	r5, r21
 64e:	58 0b       	sbc	r21, r24
 650:	59 0b       	sbc	r21, r25
 652:	00 00       	nop
 654:	36 2e       	mov	r3, r22
 656:	00 03       	mulsu	r16, r16
 658:	0e 3a       	cpi	r16, 0xAE	; 174
 65a:	0b 3b       	cpi	r16, 0xBB	; 187
 65c:	0b 20       	and	r0, r11
 65e:	0b 00       	.word	0x000b	; ????
 660:	00 37       	cpi	r16, 0x70	; 112
 662:	34 00       	.word	0x0034	; ????
 664:	00 00       	nop
 666:	38 17       	cp	r19, r24
 668:	01 0b       	sbc	r16, r17
 66a:	0b 3a       	cpi	r16, 0xAB	; 171
 66c:	0b 3b       	cpi	r16, 0xBB	; 187
 66e:	0b 01       	movw	r0, r22
 670:	13 00       	.word	0x0013	; ????
 672:	00 39       	cpi	r16, 0x90	; 144
 674:	0d 00       	.word	0x000d	; ????
 676:	49 13       	cpse	r20, r25
 678:	38 0a       	sbc	r3, r24
 67a:	00 00       	nop
 67c:	3a 13       	cpse	r19, r26
 67e:	01 03       	mulsu	r16, r17
 680:	0e 0b       	sbc	r16, r30
 682:	0b 3a       	cpi	r16, 0xAB	; 171
 684:	0b 3b       	cpi	r16, 0xBB	; 187
 686:	0b 1d       	adc	r16, r11
 688:	13 01       	movw	r2, r6
 68a:	13 00       	.word	0x0013	; ????
 68c:	00 3b       	cpi	r16, 0xB0	; 176
 68e:	2e 01       	movw	r4, r28
 690:	03 0e       	add	r0, r19
 692:	3a 0b       	sbc	r19, r26
 694:	3b 0b       	sbc	r19, r27
 696:	49 13       	cpse	r20, r25
 698:	4c 0b       	sbc	r20, r28
 69a:	4d 0a       	sbc	r4, r29
 69c:	1d 13       	cpse	r17, r29
 69e:	3c 0c       	add	r3, r12
 6a0:	64 13       	cpse	r22, r20
 6a2:	01 13       	cpse	r16, r17
 6a4:	00 00       	nop
 6a6:	3c 1c       	adc	r3, r12
 6a8:	00 49       	sbci	r16, 0x90	; 144
 6aa:	13 38       	cpi	r17, 0x83	; 131
 6ac:	0a 32       	cpi	r16, 0x2A	; 42
 6ae:	0b 00       	.word	0x000b	; ????
 6b0:	00 3d       	cpi	r16, 0xD0	; 208
 6b2:	2e 01       	movw	r4, r28
 6b4:	47 13       	cpse	r20, r23
 6b6:	3a 0b       	sbc	r19, r26
 6b8:	3b 0b       	sbc	r19, r27
 6ba:	20 0b       	sbc	r18, r16
 6bc:	64 13       	cpse	r22, r20
 6be:	01 13       	cpse	r16, r17
 6c0:	00 00       	nop
 6c2:	3e 2e       	mov	r3, r30
 6c4:	01 47       	sbci	r16, 0x71	; 113
 6c6:	13 20       	and	r1, r3
 6c8:	0b 01       	movw	r0, r22
 6ca:	13 00       	.word	0x0013	; ????
 6cc:	00 3f       	cpi	r16, 0xF0	; 240
 6ce:	34 00       	.word	0x0034	; ????
 6d0:	03 0e       	add	r0, r19
 6d2:	3a 0b       	sbc	r19, r26
 6d4:	3b 05       	cpc	r19, r11
 6d6:	49 13       	cpse	r20, r25
 6d8:	02 06       	cpc	r0, r18
 6da:	00 00       	nop
 6dc:	40 05       	cpc	r20, r0
 6de:	00 31       	cpi	r16, 0x10	; 16
 6e0:	13 02       	muls	r17, r19
 6e2:	0a 00       	.word	0x000a	; ????
 6e4:	00 41       	sbci	r16, 0x10	; 16
 6e6:	89 82       	std	Y+1, r8	; 0x01
 6e8:	01 01       	movw	r0, r2
 6ea:	11 01       	movw	r2, r2
 6ec:	00 00       	nop
 6ee:	42 2e       	mov	r4, r18
 6f0:	01 47       	sbci	r16, 0x71	; 113
 6f2:	13 11       	cpse	r17, r3
 6f4:	01 12       	cpse	r0, r17
 6f6:	01 40       	sbci	r16, 0x01	; 1
 6f8:	06 64       	ori	r16, 0x46	; 70
 6fa:	13 97       	sbiw	r26, 0x03	; 3
 6fc:	42 0c       	add	r4, r2
 6fe:	01 13       	cpse	r16, r17
 700:	00 00       	nop
 702:	43 34       	cpi	r20, 0x43	; 67
 704:	00 03       	mulsu	r16, r16
 706:	0e 3a       	cpi	r16, 0xAE	; 174
 708:	0b 3b       	cpi	r16, 0xBB	; 187
 70a:	0b 49       	sbci	r16, 0x9B	; 155
 70c:	13 02       	muls	r17, r19
 70e:	06 00       	.word	0x0006	; ????
 710:	00 44       	sbci	r16, 0x40	; 64
 712:	1d 01       	movw	r2, r26
 714:	31 13       	cpse	r19, r17
 716:	11 01       	movw	r2, r2
 718:	12 01       	movw	r2, r4
 71a:	58 0b       	sbc	r21, r24
 71c:	59 05       	cpc	r21, r9
 71e:	01 13       	cpse	r16, r17
 720:	00 00       	nop
 722:	45 1d       	adc	r20, r5
 724:	01 31       	cpi	r16, 0x11	; 17
 726:	13 52       	subi	r17, 0x23	; 35
 728:	01 55       	subi	r16, 0x51	; 81
 72a:	06 58       	subi	r16, 0x86	; 134
 72c:	0b 59       	subi	r16, 0x9B	; 155
 72e:	05 01       	movw	r0, r10
 730:	13 00       	.word	0x0013	; ????
 732:	00 46       	sbci	r16, 0x60	; 96
 734:	2e 01       	movw	r4, r28
 736:	03 0e       	add	r0, r19
 738:	34 0c       	add	r3, r4
 73a:	3c 0c       	add	r3, r12
 73c:	64 13       	cpse	r22, r20
 73e:	01 13       	cpse	r16, r17
 740:	00 00       	nop
 742:	47 2e       	mov	r4, r23
 744:	01 03       	mulsu	r16, r17
 746:	0e 3a       	cpi	r16, 0xAE	; 174
 748:	0b 3b       	cpi	r16, 0xBB	; 187
 74a:	0b 49       	sbci	r16, 0x9B	; 155
 74c:	13 3c       	cpi	r17, 0xC3	; 195
 74e:	0c 64       	ori	r16, 0x4C	; 76
 750:	13 01       	movw	r2, r6
 752:	13 00       	.word	0x0013	; ????
 754:	00 48       	sbci	r16, 0x80	; 128
 756:	2e 01       	movw	r4, r28
 758:	3f 0c       	add	r3, r15
 75a:	03 0e       	add	r0, r19
 75c:	3a 0b       	sbc	r19, r26
 75e:	3b 0b       	sbc	r19, r27
 760:	87 40       	sbci	r24, 0x07	; 7
 762:	0e 3c       	cpi	r16, 0xCE	; 206
 764:	0c 64       	ori	r16, 0x4C	; 76
 766:	13 01       	movw	r2, r6
 768:	13 00       	.word	0x0013	; ????
 76a:	00 49       	sbci	r16, 0x90	; 144
 76c:	34 00       	.word	0x0034	; ????
 76e:	03 08       	sbc	r0, r3
 770:	3a 0b       	sbc	r19, r26
 772:	3b 05       	cpc	r19, r11
 774:	49 13       	cpse	r20, r25
 776:	02 0a       	sbc	r0, r18
 778:	00 00       	nop
 77a:	4a 2e       	mov	r4, r26
 77c:	01 47       	sbci	r16, 0x71	; 113
 77e:	13 11       	cpse	r17, r3
 780:	01 12       	cpse	r0, r17
 782:	01 40       	sbci	r16, 0x01	; 1
 784:	0a 64       	ori	r16, 0x4A	; 74
 786:	13 97       	sbiw	r26, 0x03	; 3
 788:	42 0c       	add	r4, r2
 78a:	01 13       	cpse	r16, r17
 78c:	00 00       	nop
 78e:	4b 2e       	mov	r4, r27
 790:	01 03       	mulsu	r16, r17
 792:	0e 34       	cpi	r16, 0x4E	; 78
 794:	0c 20       	and	r0, r12
 796:	0b 01       	movw	r0, r22
 798:	13 00       	.word	0x0013	; ????
 79a:	00 4c       	sbci	r16, 0xC0	; 192
 79c:	15 01       	movw	r2, r10
 79e:	49 13       	cpse	r20, r25
 7a0:	01 13       	cpse	r16, r17
 7a2:	00 00       	nop
 7a4:	4d 2e       	mov	r4, r29
 7a6:	01 03       	mulsu	r16, r17
 7a8:	0e 3a       	cpi	r16, 0xAE	; 174
 7aa:	0b 3b       	cpi	r16, 0xBB	; 187
 7ac:	0b 49       	sbci	r16, 0x9B	; 155
 7ae:	13 3c       	cpi	r17, 0xC3	; 195
 7b0:	0c 01       	movw	r0, r24
 7b2:	13 00       	.word	0x0013	; ????
 7b4:	00 4e       	sbci	r16, 0xE0	; 224
 7b6:	2e 01       	movw	r4, r28
 7b8:	03 0e       	add	r0, r19
 7ba:	3a 0b       	sbc	r19, r26
 7bc:	3b 0b       	sbc	r19, r27
 7be:	3c 0c       	add	r3, r12
 7c0:	64 13       	cpse	r22, r20
 7c2:	00 00       	nop
 7c4:	4f 0d       	add	r20, r15
 7c6:	00 03       	mulsu	r16, r16
 7c8:	0e 3a       	cpi	r16, 0xAE	; 174
 7ca:	0b 3b       	cpi	r16, 0xBB	; 187
 7cc:	0b 49       	sbci	r16, 0x9B	; 155
 7ce:	13 00       	.word	0x0013	; ????
 7d0:	00 50       	subi	r16, 0x00	; 0
 7d2:	16 00       	.word	0x0016	; ????
 7d4:	03 0e       	add	r0, r19
 7d6:	3a 0b       	sbc	r19, r26
 7d8:	3b 05       	cpc	r19, r11
 7da:	49 13       	cpse	r20, r25
 7dc:	00 00       	nop
 7de:	51 28       	or	r5, r1
 7e0:	00 03       	mulsu	r16, r16
 7e2:	08 1c       	adc	r0, r8
 7e4:	06 00       	.word	0x0006	; ????
 7e6:	00 52       	subi	r16, 0x20	; 32
 7e8:	2e 01       	movw	r4, r28
 7ea:	3f 0c       	add	r3, r15
 7ec:	03 0e       	add	r0, r19
 7ee:	3a 0b       	sbc	r19, r26
 7f0:	3b 0b       	sbc	r19, r27
 7f2:	87 40       	sbci	r24, 0x07	; 7
 7f4:	0e 3c       	cpi	r16, 0xCE	; 206
 7f6:	0c 64       	ori	r16, 0x4C	; 76
 7f8:	13 00       	.word	0x0013	; ????
 7fa:	00 53       	subi	r16, 0x30	; 48
 7fc:	0d 00       	.word	0x000d	; ????
 7fe:	03 0e       	add	r0, r19
 800:	49 13       	cpse	r20, r25
 802:	38 0a       	sbc	r3, r24
 804:	34 0c       	add	r3, r4
 806:	00 00       	nop
 808:	54 2e       	mov	r5, r20
 80a:	01 03       	mulsu	r16, r17
 80c:	0e 3a       	cpi	r16, 0xAE	; 174
 80e:	0b 3b       	cpi	r16, 0xBB	; 187
 810:	0b 4c       	sbci	r16, 0xCB	; 203
 812:	0b 4d       	sbci	r16, 0xDB	; 219
 814:	0a 1d       	adc	r16, r10
 816:	13 3c       	cpi	r17, 0xC3	; 195
 818:	0c 64       	ori	r16, 0x4C	; 76
 81a:	13 00       	.word	0x0013	; ????
 81c:	00 55       	subi	r16, 0x50	; 80
 81e:	13 01       	movw	r2, r6
 820:	03 0e       	add	r0, r19
 822:	0b 0b       	sbc	r16, r27
 824:	3a 0b       	sbc	r19, r26
 826:	3b 05       	cpc	r19, r11
 828:	1d 13       	cpse	r17, r29
 82a:	01 13       	cpse	r16, r17
 82c:	00 00       	nop
 82e:	56 16       	cp	r5, r22
 830:	00 03       	mulsu	r16, r16
 832:	0e 3a       	cpi	r16, 0xAE	; 174
 834:	0b 3b       	cpi	r16, 0xBB	; 187
 836:	0b 49       	sbci	r16, 0x9B	; 155
 838:	13 32       	cpi	r17, 0x23	; 35
 83a:	0b 00       	.word	0x000b	; ????
 83c:	00 57       	subi	r16, 0x70	; 112
 83e:	2e 01       	movw	r4, r28
 840:	03 0e       	add	r0, r19
 842:	34 0c       	add	r3, r4
 844:	3c 0c       	add	r3, r12
 846:	64 13       	cpse	r22, r20
 848:	00 00       	nop
 84a:	58 0d       	add	r21, r8
 84c:	00 03       	mulsu	r16, r16
 84e:	08 3a       	cpi	r16, 0xA8	; 168
 850:	0b 3b       	cpi	r16, 0xBB	; 187
 852:	0b 49       	sbci	r16, 0x9B	; 155
 854:	13 38       	cpi	r17, 0x83	; 131
 856:	0a 00       	.word	0x000a	; ????
 858:	00 59       	subi	r16, 0x90	; 144
 85a:	0d 00       	.word	0x000d	; ????
 85c:	03 0e       	add	r0, r19
 85e:	3a 0b       	sbc	r19, r26
 860:	3b 0b       	sbc	r19, r27
 862:	49 13       	cpse	r20, r25
 864:	38 0a       	sbc	r3, r24
 866:	00 00       	nop
 868:	5a 0d       	add	r21, r10
 86a:	00 03       	mulsu	r16, r16
 86c:	08 3a       	cpi	r16, 0xA8	; 168
 86e:	0b 3b       	cpi	r16, 0xBB	; 187
 870:	05 49       	sbci	r16, 0x95	; 149
 872:	13 38       	cpi	r17, 0x83	; 131
 874:	0a 00       	.word	0x000a	; ????
 876:	00 5b       	subi	r16, 0xB0	; 176
 878:	2e 01       	movw	r4, r28
 87a:	3f 0c       	add	r3, r15
 87c:	03 0e       	add	r0, r19
 87e:	3a 0b       	sbc	r19, r26
 880:	3b 05       	cpc	r19, r11
 882:	87 40       	sbci	r24, 0x07	; 7
 884:	0e 49       	sbci	r16, 0x9E	; 158
 886:	13 3c       	cpi	r17, 0xC3	; 195
 888:	0c 64       	ori	r16, 0x4C	; 76
 88a:	13 01       	movw	r2, r6
 88c:	13 00       	.word	0x0013	; ????
 88e:	00 5c       	subi	r16, 0xC0	; 192
 890:	04 01       	movw	r0, r8
 892:	03 0e       	add	r0, r19
 894:	3e 0b       	sbc	r19, r30
 896:	0b 0b       	sbc	r16, r27
 898:	49 13       	cpse	r20, r25
 89a:	3a 0b       	sbc	r19, r26
 89c:	3b 0b       	sbc	r19, r27
 89e:	01 13       	cpse	r16, r17
 8a0:	00 00       	nop
 8a2:	5d 04       	cpc	r5, r13
 8a4:	01 03       	mulsu	r16, r17
 8a6:	0e 3e       	cpi	r16, 0xEE	; 238
 8a8:	0b 0b       	sbc	r16, r27
 8aa:	0b 49       	sbci	r16, 0x9B	; 155
 8ac:	13 3a       	cpi	r17, 0xA3	; 163
 8ae:	0b 3b       	cpi	r16, 0xBB	; 187
 8b0:	0b 87       	std	Y+11, r16	; 0x0b
 8b2:	40 0e       	add	r4, r16
 8b4:	01 13       	cpse	r16, r17
 8b6:	00 00       	nop
 8b8:	5e 0b       	sbc	r21, r30
 8ba:	01 31       	cpi	r16, 0x11	; 17
 8bc:	13 55       	subi	r17, 0x53	; 83
 8be:	06 01       	movw	r0, r12
 8c0:	13 00       	.word	0x0013	; ????
 8c2:	00 5f       	subi	r16, 0xF0	; 240
 8c4:	34 00       	.word	0x0034	; ????
 8c6:	31 13       	cpse	r19, r17
 8c8:	02 0a       	sbc	r0, r18
 8ca:	00 00       	nop
 8cc:	60 2e       	mov	r6, r16
 8ce:	01 31       	cpi	r16, 0x11	; 17
 8d0:	13 11       	cpse	r17, r3
 8d2:	01 12       	cpse	r0, r17
 8d4:	01 40       	sbci	r16, 0x01	; 1
 8d6:	0a 64       	ori	r16, 0x4A	; 74
 8d8:	13 97       	sbiw	r26, 0x03	; 3
 8da:	42 0c       	add	r4, r2
 8dc:	01 13       	cpse	r16, r17
 8de:	00 00       	nop
 8e0:	61 2e       	mov	r6, r17
 8e2:	00 03       	mulsu	r16, r16
 8e4:	0e 3a       	cpi	r16, 0xAE	; 174
 8e6:	0b 3b       	cpi	r16, 0xBB	; 187
 8e8:	0b 49       	sbci	r16, 0x9B	; 155
 8ea:	13 20       	and	r1, r3
 8ec:	0b 00       	.word	0x000b	; ????
 8ee:	00 62       	ori	r16, 0x20	; 32
 8f0:	05 00       	.word	0x0005	; ????
 8f2:	03 0e       	add	r0, r19
 8f4:	3a 0b       	sbc	r19, r26
 8f6:	3b 0b       	sbc	r19, r27
 8f8:	49 13       	cpse	r20, r25
 8fa:	02 06       	cpc	r0, r18
 8fc:	00 00       	nop
 8fe:	63 34       	cpi	r22, 0x43	; 67
 900:	00 03       	mulsu	r16, r16
 902:	0e 49       	sbci	r16, 0x9E	; 158
 904:	13 34       	cpi	r17, 0x43	; 67
 906:	0c 02       	muls	r16, r28
 908:	06 00       	.word	0x0006	; ????
 90a:	00 64       	ori	r16, 0x40	; 64
 90c:	2e 00       	.word	0x002e	; ????
 90e:	3f 0c       	add	r3, r15
 910:	03 08       	sbc	r0, r3
 912:	3a 0b       	sbc	r19, r26
 914:	3b 0b       	sbc	r19, r27
 916:	87 40       	sbci	r24, 0x07	; 7
 918:	0e 20       	and	r0, r14
 91a:	0b 00       	.word	0x000b	; ????
 91c:	00 65       	ori	r16, 0x50	; 80
 91e:	89 82       	std	Y+1, r8	; 0x01
 920:	01 01       	movw	r0, r2
 922:	11 01       	movw	r2, r2
 924:	31 13       	cpse	r19, r17
 926:	00 00       	nop
 928:	66 2e       	mov	r6, r22
 92a:	00 03       	mulsu	r16, r16
 92c:	0e 3a       	cpi	r16, 0xAE	; 174
 92e:	0b 3b       	cpi	r16, 0xBB	; 187
 930:	05 20       	and	r0, r5
 932:	0b 00       	.word	0x000b	; ????
 934:	00 67       	ori	r16, 0x70	; 112
 936:	34 00       	.word	0x0034	; ????
 938:	31 13       	cpse	r19, r17
 93a:	1c 0b       	sbc	r17, r28
 93c:	00 00       	nop
 93e:	68 34       	cpi	r22, 0x48	; 72
 940:	00 03       	mulsu	r16, r16
 942:	0e 3a       	cpi	r16, 0xAE	; 174
 944:	0b 3b       	cpi	r16, 0xBB	; 187
 946:	0b 49       	sbci	r16, 0x9B	; 155
 948:	13 32       	cpi	r17, 0x23	; 35
 94a:	0b 02       	muls	r16, r27
 94c:	0a 00       	.word	0x000a	; ????
 94e:	00 69       	ori	r16, 0x90	; 144
 950:	11 01       	movw	r2, r2
 952:	25 0e       	add	r2, r21
 954:	13 0b       	sbc	r17, r19
 956:	03 0e       	add	r0, r19
 958:	1b 0e       	add	r1, r27
 95a:	55 06       	cpc	r5, r21
 95c:	11 01       	movw	r2, r2
 95e:	52 01       	movw	r10, r4
 960:	10 06       	cpc	r1, r16
 962:	00 00       	nop
 964:	6a 2e       	mov	r6, r26
 966:	01 03       	mulsu	r16, r17
 968:	0e 3a       	cpi	r16, 0xAE	; 174
 96a:	0b 3b       	cpi	r16, 0xBB	; 187
 96c:	05 49       	sbci	r16, 0x95	; 149
 96e:	13 3c       	cpi	r17, 0xC3	; 195
 970:	0c 01       	movw	r0, r24
 972:	13 00       	.word	0x0013	; ????
 974:	00 6b       	ori	r16, 0xB0	; 176
 976:	13 01       	movw	r2, r6
 978:	0b 0b       	sbc	r16, r27
 97a:	3a 0b       	sbc	r19, r26
 97c:	3b 0b       	sbc	r19, r27
 97e:	01 13       	cpse	r16, r17
 980:	00 00       	nop
 982:	6c 0d       	add	r22, r12
 984:	00 49       	sbci	r16, 0x90	; 144
 986:	13 00       	.word	0x0013	; ????
 988:	00 6d       	ori	r16, 0xD0	; 208
 98a:	04 01       	movw	r0, r8
 98c:	03 0e       	add	r0, r19
 98e:	3e 0b       	sbc	r19, r30
 990:	0b 0b       	sbc	r16, r27
 992:	49 13       	cpse	r20, r25
 994:	3a 0b       	sbc	r19, r26
 996:	3b 05       	cpc	r19, r11
 998:	87 40       	sbci	r24, 0x07	; 7
 99a:	0e 01       	movw	r0, r28
 99c:	13 00       	.word	0x0013	; ????
 99e:	00 6e       	ori	r16, 0xE0	; 224
 9a0:	18 00       	.word	0x0018	; ????
 9a2:	00 00       	nop
 9a4:	6f 24       	eor	r6, r15
 9a6:	00 0b       	sbc	r16, r16
 9a8:	0b 3e       	cpi	r16, 0xEB	; 235
 9aa:	0b 03       	fmul	r16, r19
 9ac:	08 00       	.word	0x0008	; ????
 9ae:	00 70       	andi	r16, 0x00	; 0
 9b0:	0f 00       	.word	0x000f	; ????
 9b2:	0b 0b       	sbc	r16, r27
 9b4:	03 0e       	add	r0, r19
 9b6:	49 13       	cpse	r20, r25
 9b8:	00 00       	nop
 9ba:	71 2e       	mov	r7, r17
 9bc:	01 03       	mulsu	r16, r17
 9be:	0e 3a       	cpi	r16, 0xAE	; 174
 9c0:	0b 3b       	cpi	r16, 0xBB	; 187
 9c2:	05 4c       	sbci	r16, 0xC5	; 197
 9c4:	0b 4d       	sbci	r16, 0xDB	; 219
 9c6:	0a 1d       	adc	r16, r10
 9c8:	13 32       	cpi	r17, 0x23	; 35
 9ca:	0b 3c       	cpi	r16, 0xCB	; 203
 9cc:	0c 64       	ori	r16, 0x4C	; 76
 9ce:	13 01       	movw	r2, r6
 9d0:	13 00       	.word	0x0013	; ????
 9d2:	00 72       	andi	r16, 0x20	; 32
 9d4:	2e 01       	movw	r4, r28
 9d6:	03 0e       	add	r0, r19
 9d8:	3a 0b       	sbc	r19, r26
 9da:	3b 05       	cpc	r19, r11
 9dc:	4c 0b       	sbc	r20, r28
 9de:	4d 0a       	sbc	r4, r29
 9e0:	1d 13       	cpse	r17, r29
 9e2:	32 0b       	sbc	r19, r18
 9e4:	3c 0c       	add	r3, r12
 9e6:	64 13       	cpse	r22, r20
 9e8:	00 00       	nop
 9ea:	73 2e       	mov	r7, r19
 9ec:	00 03       	mulsu	r16, r16
 9ee:	0e 3a       	cpi	r16, 0xAE	; 174
 9f0:	0b 3b       	cpi	r16, 0xBB	; 187
 9f2:	0b 3c       	cpi	r16, 0xCB	; 203
 9f4:	0c 00       	.word	0x000c	; ????
 9f6:	00 74       	andi	r16, 0x40	; 64
 9f8:	2e 01       	movw	r4, r28
 9fa:	03 0e       	add	r0, r19
 9fc:	3a 0b       	sbc	r19, r26
 9fe:	3b 05       	cpc	r19, r11
 a00:	32 0b       	sbc	r19, r18
 a02:	3c 0c       	add	r3, r12
 a04:	01 13       	cpse	r16, r17
 a06:	00 00       	nop
 a08:	75 2e       	mov	r7, r21
 a0a:	01 03       	mulsu	r16, r17
 a0c:	0e 3a       	cpi	r16, 0xAE	; 174
 a0e:	0b 3b       	cpi	r16, 0xBB	; 187
 a10:	0b 4c       	sbci	r16, 0xCB	; 203
 a12:	0b 4d       	sbci	r16, 0xDB	; 219
 a14:	0a 1d       	adc	r16, r10
 a16:	13 32       	cpi	r17, 0x23	; 35
 a18:	0b 3c       	cpi	r16, 0xCB	; 203
 a1a:	0c 64       	ori	r16, 0x4C	; 76
 a1c:	13 01       	movw	r2, r6
 a1e:	13 00       	.word	0x0013	; ????
 a20:	00 76       	andi	r16, 0x60	; 96
 a22:	2e 00       	.word	0x002e	; ????
 a24:	3f 0c       	add	r3, r15
 a26:	03 0e       	add	r0, r19
 a28:	3a 0b       	sbc	r19, r26
 a2a:	3b 0b       	sbc	r19, r27
 a2c:	87 40       	sbci	r24, 0x07	; 7
 a2e:	0e 49       	sbci	r16, 0x9E	; 158
 a30:	13 3c       	cpi	r17, 0xC3	; 195
 a32:	0c 00       	.word	0x000c	; ????
 a34:	00 77       	andi	r16, 0x70	; 112
 a36:	2e 01       	movw	r4, r28
 a38:	3f 0c       	add	r3, r15
 a3a:	03 0e       	add	r0, r19
 a3c:	3a 0b       	sbc	r19, r26
 a3e:	3b 0b       	sbc	r19, r27
 a40:	87 40       	sbci	r24, 0x07	; 7
 a42:	0e 49       	sbci	r16, 0x9E	; 158
 a44:	13 3c       	cpi	r17, 0xC3	; 195
 a46:	0c 64       	ori	r16, 0x4C	; 76
 a48:	13 01       	movw	r2, r6
 a4a:	13 00       	.word	0x0013	; ????
 a4c:	00 78       	andi	r16, 0x80	; 128
 a4e:	2e 01       	movw	r4, r28
 a50:	3f 0c       	add	r3, r15
 a52:	03 0e       	add	r0, r19
 a54:	3a 0b       	sbc	r19, r26
 a56:	3b 0b       	sbc	r19, r27
 a58:	87 40       	sbci	r24, 0x07	; 7
 a5a:	0e 49       	sbci	r16, 0x9E	; 158
 a5c:	13 3c       	cpi	r17, 0xC3	; 195
 a5e:	0c 64       	ori	r16, 0x4C	; 76
 a60:	13 00       	.word	0x0013	; ????
 a62:	00 79       	andi	r16, 0x90	; 144
 a64:	13 01       	movw	r2, r6
 a66:	03 0e       	add	r0, r19
 a68:	0b 0b       	sbc	r16, r27
 a6a:	3a 0b       	sbc	r19, r26
 a6c:	3b 05       	cpc	r19, r11
 a6e:	01 13       	cpse	r16, r17
 a70:	00 00       	nop
 a72:	7a 2e       	mov	r7, r26
 a74:	01 3f       	cpi	r16, 0xF1	; 241
 a76:	0c 03       	fmul	r16, r20
 a78:	0e 3a       	cpi	r16, 0xAE	; 174
 a7a:	0b 3b       	cpi	r16, 0xBB	; 187
 a7c:	05 87       	std	Z+13, r16	; 0x0d
 a7e:	40 0e       	add	r4, r16
 a80:	3c 0c       	add	r3, r12
 a82:	64 13       	cpse	r22, r20
 a84:	01 13       	cpse	r16, r17
 a86:	00 00       	nop
 a88:	7b 2e       	mov	r7, r27
 a8a:	01 03       	mulsu	r16, r17
 a8c:	0e 3a       	cpi	r16, 0xAE	; 174
 a8e:	0b 3b       	cpi	r16, 0xBB	; 187
 a90:	05 3c       	cpi	r16, 0xC5	; 197
 a92:	0c 64       	ori	r16, 0x4C	; 76
 a94:	13 00       	.word	0x0013	; ????
 a96:	00 7c       	andi	r16, 0xC0	; 192
 a98:	04 01       	movw	r0, r8
 a9a:	3e 0b       	sbc	r19, r30
 a9c:	0b 0b       	sbc	r16, r27
 a9e:	49 13       	cpse	r20, r25
 aa0:	3a 0b       	sbc	r19, r26
 aa2:	3b 0b       	sbc	r19, r27
 aa4:	01 13       	cpse	r16, r17
 aa6:	00 00       	nop
 aa8:	7d 2e       	mov	r7, r29
 aaa:	01 47       	sbci	r16, 0x71	; 113
 aac:	13 3a       	cpi	r17, 0xA3	; 163
 aae:	0b 3b       	cpi	r16, 0xBB	; 187
 ab0:	05 20       	and	r0, r5
 ab2:	0b 64       	ori	r16, 0x4B	; 75
 ab4:	13 01       	movw	r2, r6
 ab6:	13 00       	.word	0x0013	; ????
 ab8:	00 7e       	andi	r16, 0xE0	; 224
 aba:	15 01       	movw	r2, r10
 abc:	01 13       	cpse	r16, r17
 abe:	00 00       	nop
 ac0:	7f 15       	cp	r23, r15
 ac2:	00 00       	nop
 ac4:	00 80       	ld	r0, Z
 ac6:	01 34       	cpi	r16, 0x41	; 65
 ac8:	00 03       	mulsu	r16, r16
 aca:	08 3a       	cpi	r16, 0xA8	; 168
 acc:	0b 3b       	cpi	r16, 0xBB	; 187
 ace:	0b 49       	sbci	r16, 0x9B	; 155
 ad0:	13 02       	muls	r17, r19
 ad2:	0a 00       	.word	0x000a	; ????
 ad4:	00 81       	ld	r16, Z
 ad6:	01 2e       	mov	r0, r17
 ad8:	01 03       	mulsu	r16, r17
 ada:	0e 3a       	cpi	r16, 0xAE	; 174
 adc:	0b 3b       	cpi	r16, 0xBB	; 187
 ade:	05 49       	sbci	r16, 0x95	; 149
 ae0:	13 11       	cpse	r17, r3
 ae2:	01 12       	cpse	r0, r17
 ae4:	01 40       	sbci	r16, 0x01	; 1
 ae6:	0a 97       	sbiw	r24, 0x0a	; 10
 ae8:	42 0c       	add	r4, r2
 aea:	01 13       	cpse	r16, r17
 aec:	00 00       	nop
 aee:	82 01       	movw	r16, r4
 af0:	2e 01       	movw	r4, r28
 af2:	03 0e       	add	r0, r19
 af4:	3a 0b       	sbc	r19, r26
 af6:	3b 05       	cpc	r19, r11
 af8:	49 13       	cpse	r20, r25
 afa:	20 0b       	sbc	r18, r16
 afc:	01 13       	cpse	r16, r17
 afe:	00 00       	nop
 b00:	83 01       	movw	r16, r6
 b02:	2e 01       	movw	r4, r28
 b04:	31 13       	cpse	r19, r17
 b06:	11 01       	movw	r2, r2
 b08:	12 01       	movw	r2, r4
 b0a:	40 06       	cpc	r4, r16
 b0c:	96 42       	sbci	r25, 0x26	; 38
 b0e:	0c 01       	movw	r0, r24
 b10:	13 00       	.word	0x0013	; ????
 b12:	00 84       	ldd	r0, Z+8	; 0x08
 b14:	01 89       	ldd	r16, Z+17	; 0x11
 b16:	82 01       	movw	r16, r4
 b18:	01 11       	cpse	r16, r1
 b1a:	01 93       	st	Z+, r16
 b1c:	42 0a       	sbc	r4, r18
 b1e:	00 00       	nop
 b20:	85 01       	movw	r16, r10
 b22:	2e 01       	movw	r4, r28
 b24:	03 0e       	add	r0, r19
 b26:	3a 0b       	sbc	r19, r26
 b28:	3b 0b       	sbc	r19, r27
 b2a:	11 01       	movw	r2, r2
 b2c:	12 01       	movw	r2, r4
 b2e:	40 0a       	sbc	r4, r16
 b30:	97 42       	sbci	r25, 0x27	; 39
 b32:	0c 01       	movw	r0, r24
 b34:	13 00       	.word	0x0013	; ????
 b36:	00 86       	std	Z+8, r0	; 0x08
 b38:	01 05       	cpc	r16, r1
 b3a:	00 03       	mulsu	r16, r16
 b3c:	08 3a       	cpi	r16, 0xA8	; 168
 b3e:	0b 3b       	cpi	r16, 0xBB	; 187
 b40:	0b 49       	sbci	r16, 0x9B	; 155
 b42:	13 02       	muls	r17, r19
 b44:	06 00       	.word	0x0006	; ????
 b46:	00 87       	std	Z+8, r16	; 0x08
 b48:	01 2e       	mov	r0, r17
 b4a:	00 03       	mulsu	r16, r16
 b4c:	0e 3a       	cpi	r16, 0xAE	; 174
 b4e:	0b 3b       	cpi	r16, 0xBB	; 187
 b50:	0b 11       	cpse	r16, r11
 b52:	01 12       	cpse	r0, r17
 b54:	01 40       	sbci	r16, 0x01	; 1
 b56:	0a 97       	sbiw	r24, 0x0a	; 10
 b58:	42 0c       	add	r4, r2
 b5a:	00 00       	nop
 b5c:	88 01       	movw	r16, r16
 b5e:	2e 01       	movw	r4, r28
 b60:	03 0e       	add	r0, r19
 b62:	3a 0b       	sbc	r19, r26
 b64:	3b 0b       	sbc	r19, r27
 b66:	49 13       	cpse	r20, r25
 b68:	11 01       	movw	r2, r2
 b6a:	12 01       	movw	r2, r4
 b6c:	40 0a       	sbc	r4, r16
 b6e:	97 42       	sbci	r25, 0x27	; 39
 b70:	0c 01       	movw	r0, r24
 b72:	13 00       	.word	0x0013	; ????
 b74:	00 89       	ldd	r16, Z+16	; 0x10
 b76:	01 34       	cpi	r16, 0x41	; 65
 b78:	00 03       	mulsu	r16, r16
 b7a:	0e 3a       	cpi	r16, 0xAE	; 174
 b7c:	0b 3b       	cpi	r16, 0xBB	; 187
 b7e:	05 49       	sbci	r16, 0x95	; 149
 b80:	13 1c       	adc	r1, r3
 b82:	0b 00       	.word	0x000b	; ????
 b84:	00 8a       	std	Z+16, r0	; 0x10
 b86:	01 1d       	adc	r16, r1
 b88:	01 31       	cpi	r16, 0x11	; 17
 b8a:	13 52       	subi	r17, 0x23	; 35
 b8c:	01 55       	subi	r16, 0x51	; 81
 b8e:	06 58       	subi	r16, 0x86	; 134
 b90:	0b 59       	subi	r16, 0x9B	; 155
 b92:	05 00       	.word	0x0005	; ????
 b94:	00 8b       	std	Z+16, r16	; 0x10
 b96:	01 2e       	mov	r0, r17
 b98:	01 47       	sbci	r16, 0x71	; 113
 b9a:	13 11       	cpse	r17, r3
 b9c:	01 12       	cpse	r0, r17
 b9e:	01 40       	sbci	r16, 0x01	; 1
 ba0:	06 64       	ori	r16, 0x46	; 70
 ba2:	13 96       	adiw	r26, 0x03	; 3
 ba4:	42 0c       	add	r4, r2
 ba6:	01 13       	cpse	r16, r17
 ba8:	00 00       	nop
 baa:	8c 01       	movw	r16, r24
 bac:	0b 01       	movw	r0, r22
 bae:	11 01       	movw	r2, r2
 bb0:	12 01       	movw	r2, r4
 bb2:	01 13       	cpse	r16, r17
 bb4:	00 00       	nop
 bb6:	8d 01       	movw	r16, r26
 bb8:	34 00       	.word	0x0034	; ????
 bba:	03 08       	sbc	r0, r3
 bbc:	3a 0b       	sbc	r19, r26
 bbe:	3b 0b       	sbc	r19, r27
 bc0:	49 13       	cpse	r20, r25
 bc2:	02 06       	cpc	r0, r18
 bc4:	00 00       	nop
 bc6:	8e 01       	movw	r16, r28
 bc8:	2e 00       	.word	0x002e	; ????
 bca:	03 0e       	add	r0, r19
 bcc:	3a 0b       	sbc	r19, r26
 bce:	3b 05       	cpc	r19, r11
 bd0:	49 13       	cpse	r20, r25
 bd2:	20 0b       	sbc	r18, r16
 bd4:	00 00       	nop
 bd6:	8f 01       	movw	r16, r30
 bd8:	2e 01       	movw	r4, r28
 bda:	03 0e       	add	r0, r19
 bdc:	3a 0b       	sbc	r19, r26
 bde:	3b 0b       	sbc	r19, r27
 be0:	87 01       	movw	r16, r14
 be2:	0c 11       	cpse	r16, r12
 be4:	01 12       	cpse	r0, r17
 be6:	01 40       	sbci	r16, 0x01	; 1
 be8:	0a 97       	sbiw	r24, 0x0a	; 10
 bea:	42 0c       	add	r4, r2
 bec:	01 13       	cpse	r16, r17
 bee:	00 00       	nop
 bf0:	90 01       	movw	r18, r0
 bf2:	89 82       	std	Y+1, r8	; 0x01
 bf4:	01 00       	.word	0x0001	; ????
 bf6:	11 01       	movw	r2, r2
 bf8:	00 00       	nop
 bfa:	91 01       	movw	r18, r2
 bfc:	2e 01       	movw	r4, r28
 bfe:	3f 0c       	add	r3, r15
 c00:	03 0e       	add	r0, r19
 c02:	3a 0b       	sbc	r19, r26
 c04:	3b 05       	cpc	r19, r11
 c06:	11 01       	movw	r2, r2
 c08:	12 01       	movw	r2, r4
 c0a:	40 06       	cpc	r4, r16
 c0c:	97 42       	sbci	r25, 0x27	; 39
 c0e:	0c 01       	movw	r0, r24
 c10:	13 00       	.word	0x0013	; ????
 c12:	00 92 01 05 	sts	0x0501, r0	; 0x800501 <__bss_end+0x2e2>
 c16:	00 03       	mulsu	r16, r16
 c18:	08 3a       	cpi	r16, 0xA8	; 168
 c1a:	0b 3b       	cpi	r16, 0xBB	; 187
 c1c:	0b 49       	sbci	r16, 0x9B	; 155
 c1e:	13 00       	.word	0x0013	; ????
 c20:	00 93 01 2e 	sts	0x2E01, r16	; 0x802e01 <__bss_end+0x2be2>
 c24:	01 3f       	cpi	r16, 0xF1	; 241
 c26:	0c 03       	fmul	r16, r20
 c28:	0e 3a       	cpi	r16, 0xAE	; 174
 c2a:	0b 3b       	cpi	r16, 0xBB	; 187
 c2c:	0b 49       	sbci	r16, 0x9B	; 155
 c2e:	13 87       	std	Z+11, r17	; 0x0b
 c30:	01 0c       	add	r0, r1
 c32:	11 01       	movw	r2, r2
 c34:	12 01       	movw	r2, r4
 c36:	40 06       	cpc	r4, r16
 c38:	97 42       	sbci	r25, 0x27	; 39
 c3a:	0c 01       	movw	r0, r24
 c3c:	13 00       	.word	0x0013	; ????
 c3e:	00 94       	com	r0
 c40:	01 1d       	adc	r16, r1
 c42:	00 31       	cpi	r16, 0x10	; 16
 c44:	13 11       	cpse	r17, r3
 c46:	01 12       	cpse	r0, r17
 c48:	01 58       	subi	r16, 0x81	; 129
 c4a:	0b 59       	subi	r16, 0x9B	; 155
 c4c:	05 00       	.word	0x0005	; ????
 c4e:	00 95       	com	r16
 c50:	01 05       	cpc	r16, r1
 c52:	00 31       	cpi	r16, 0x10	; 16
 c54:	13 1c       	adc	r1, r3
 c56:	05 00       	.word	0x0005	; ????
 c58:	00 96       	adiw	r24, 0x00	; 0
 c5a:	01 2e       	mov	r0, r17
 c5c:	01 03       	mulsu	r16, r17
 c5e:	0e 34       	cpi	r16, 0x4E	; 78
 c60:	0c 11       	cpse	r16, r12
 c62:	01 12       	cpse	r0, r17
 c64:	01 40       	sbci	r16, 0x01	; 1
 c66:	0a 97       	sbiw	r24, 0x0a	; 10
 c68:	42 0c       	add	r4, r2
 c6a:	01 13       	cpse	r16, r17
 c6c:	00 00       	nop
 c6e:	97 01       	movw	r18, r14
 c70:	1d 01       	movw	r2, r26
 c72:	11 01       	movw	r2, r2
 c74:	12 01       	movw	r2, r4
 c76:	58 0b       	sbc	r21, r24
 c78:	59 05       	cpc	r21, r9
 c7a:	00 00       	nop
 c7c:	98 01       	movw	r18, r16
 c7e:	2e 01       	movw	r4, r28
 c80:	3f 0c       	add	r3, r15
 c82:	03 0e       	add	r0, r19
 c84:	3a 0b       	sbc	r19, r26
 c86:	3b 0b       	sbc	r19, r27
 c88:	11 01       	movw	r2, r2
 c8a:	12 01       	movw	r2, r4
 c8c:	40 06       	cpc	r4, r16
 c8e:	96 42       	sbci	r25, 0x26	; 38
 c90:	0c 01       	movw	r0, r24
 c92:	13 00       	.word	0x0013	; ????
 c94:	00 99       	sbic	0x00, 0	; 0
 c96:	01 2e       	mov	r0, r17
 c98:	00 3f       	cpi	r16, 0xF0	; 240
 c9a:	0c 03       	fmul	r16, r20
 c9c:	0e 3a       	cpi	r16, 0xAE	; 174
 c9e:	0b 3b       	cpi	r16, 0xBB	; 187
 ca0:	0b 11       	cpse	r16, r11
 ca2:	01 12       	cpse	r0, r17
 ca4:	01 40       	sbci	r16, 0x01	; 1
 ca6:	06 97       	sbiw	r24, 0x06	; 6
 ca8:	42 0c       	add	r4, r2
 caa:	00 00       	nop
 cac:	00 01       	movw	r0, r0
 cae:	11 00       	.word	0x0011	; ????
 cb0:	10 06       	cpc	r1, r16
 cb2:	11 01       	movw	r2, r2
 cb4:	12 01       	movw	r2, r4
 cb6:	03 08       	sbc	r0, r3
 cb8:	1b 08       	sbc	r1, r11
 cba:	25 08       	sbc	r2, r5
 cbc:	13 05       	cpc	r17, r3
 cbe:	00 00       	nop
 cc0:	00 01       	movw	r0, r0
 cc2:	11 00       	.word	0x0011	; ????
 cc4:	10 06       	cpc	r1, r16
 cc6:	11 01       	movw	r2, r2
 cc8:	12 01       	movw	r2, r4
 cca:	03 08       	sbc	r0, r3
 ccc:	1b 08       	sbc	r1, r11
 cce:	25 08       	sbc	r2, r5
 cd0:	13 05       	cpc	r17, r3
 cd2:	00 00       	nop
 cd4:	00 01       	movw	r0, r0
 cd6:	11 00       	.word	0x0011	; ????
 cd8:	10 06       	cpc	r1, r16
 cda:	11 01       	movw	r2, r2
 cdc:	12 01       	movw	r2, r4
 cde:	03 08       	sbc	r0, r3
 ce0:	1b 08       	sbc	r1, r11
 ce2:	25 08       	sbc	r2, r5
 ce4:	13 05       	cpc	r17, r3
 ce6:	00 00       	nop
 ce8:	00 01       	movw	r0, r0
 cea:	11 00       	.word	0x0011	; ????
 cec:	10 06       	cpc	r1, r16
 cee:	11 01       	movw	r2, r2
 cf0:	12 01       	movw	r2, r4
 cf2:	03 08       	sbc	r0, r3
 cf4:	1b 08       	sbc	r1, r11
 cf6:	25 08       	sbc	r2, r5
 cf8:	13 05       	cpc	r17, r3
 cfa:	00 00       	nop
 cfc:	00 01       	movw	r0, r0
 cfe:	11 00       	.word	0x0011	; ????
 d00:	10 06       	cpc	r1, r16
 d02:	11 01       	movw	r2, r2
 d04:	12 01       	movw	r2, r4
 d06:	03 08       	sbc	r0, r3
 d08:	1b 08       	sbc	r1, r11
 d0a:	25 08       	sbc	r2, r5
 d0c:	13 05       	cpc	r17, r3
 d0e:	00 00       	nop
 d10:	00 01       	movw	r0, r0
 d12:	11 00       	.word	0x0011	; ????
 d14:	10 06       	cpc	r1, r16
 d16:	11 01       	movw	r2, r2
 d18:	12 01       	movw	r2, r4
 d1a:	03 08       	sbc	r0, r3
 d1c:	1b 08       	sbc	r1, r11
 d1e:	25 08       	sbc	r2, r5
 d20:	13 05       	cpc	r17, r3
 d22:	00 00       	nop
 d24:	00 01       	movw	r0, r0
 d26:	11 00       	.word	0x0011	; ????
 d28:	10 06       	cpc	r1, r16
 d2a:	11 01       	movw	r2, r2
 d2c:	12 01       	movw	r2, r4
 d2e:	03 08       	sbc	r0, r3
 d30:	1b 08       	sbc	r1, r11
 d32:	25 08       	sbc	r2, r5
 d34:	13 05       	cpc	r17, r3
 d36:	00 00       	nop
 d38:	00 01       	movw	r0, r0
 d3a:	11 00       	.word	0x0011	; ????
 d3c:	10 06       	cpc	r1, r16
 d3e:	11 01       	movw	r2, r2
 d40:	12 01       	movw	r2, r4
 d42:	03 08       	sbc	r0, r3
 d44:	1b 08       	sbc	r1, r11
 d46:	25 08       	sbc	r2, r5
 d48:	13 05       	cpc	r17, r3
 d4a:	00 00       	nop
 d4c:	00 01       	movw	r0, r0
 d4e:	11 00       	.word	0x0011	; ????
 d50:	10 06       	cpc	r1, r16
 d52:	11 01       	movw	r2, r2
 d54:	12 01       	movw	r2, r4
 d56:	03 08       	sbc	r0, r3
 d58:	1b 08       	sbc	r1, r11
 d5a:	25 08       	sbc	r2, r5
 d5c:	13 05       	cpc	r17, r3
 d5e:	00 00       	nop
 d60:	00 01       	movw	r0, r0
 d62:	11 00       	.word	0x0011	; ????
 d64:	10 06       	cpc	r1, r16
 d66:	11 01       	movw	r2, r2
 d68:	12 01       	movw	r2, r4
 d6a:	03 08       	sbc	r0, r3
 d6c:	1b 08       	sbc	r1, r11
 d6e:	25 08       	sbc	r2, r5
 d70:	13 05       	cpc	r17, r3
 d72:	00 00       	nop
 d74:	00 01       	movw	r0, r0
 d76:	11 00       	.word	0x0011	; ????
 d78:	10 06       	cpc	r1, r16
 d7a:	11 01       	movw	r2, r2
 d7c:	12 01       	movw	r2, r4
 d7e:	03 08       	sbc	r0, r3
 d80:	1b 08       	sbc	r1, r11
 d82:	25 08       	sbc	r2, r5
 d84:	13 05       	cpc	r17, r3
 d86:	00 00       	nop
	...

Disassembly of section .debug_line:

00000000 <.debug_line>:
       0:	16 00       	.word	0x0016	; ????
       2:	00 00       	nop
       4:	02 00       	.word	0x0002	; ????
       6:	10 00       	.word	0x0010	; ????
       8:	00 00       	nop
       a:	02 01       	movw	r0, r4
       c:	fb 0e       	add	r15, r27
       e:	0a 00       	.word	0x000a	; ????
      10:	01 01       	movw	r0, r2
      12:	01 01       	movw	r0, r2
      14:	00 00       	nop
      16:	00 01       	movw	r0, r0
      18:	00 00       	nop
      1a:	69 0c       	add	r6, r9
      1c:	00 00       	nop
      1e:	02 00       	.word	0x0002	; ????
      20:	76 03       	mulsu	r23, r22
      22:	00 00       	nop
      24:	02 01       	movw	r0, r4
      26:	fb 0e       	add	r15, r27
      28:	0a 00       	.word	0x000a	; ????
      2a:	01 01       	movw	r0, r2
      2c:	01 01       	movw	r0, r2
      2e:	00 00       	nop
      30:	00 01       	movw	r0, r0
      32:	2f 68       	ori	r18, 0x8F	; 143
      34:	6f 6d       	ori	r22, 0xDF	; 223
      36:	65 2f       	mov	r22, r21
      38:	61 79       	andi	r22, 0x91	; 145
      3a:	69 6c       	ori	r22, 0xC9	; 201
      3c:	61 79       	andi	r22, 0x91	; 145
      3e:	2f 2e       	mov	r2, r31
      40:	61 72       	andi	r22, 0x21	; 33
      42:	64 75       	andi	r22, 0x54	; 84
      44:	69 6e       	ori	r22, 0xE9	; 233
      46:	6f 31       	cpi	r22, 0x1F	; 31
      48:	35 2f       	mov	r19, r21
      4a:	70 61       	ori	r23, 0x10	; 16
      4c:	63 6b       	ori	r22, 0xB3	; 179
      4e:	61 67       	ori	r22, 0x71	; 113
      50:	65 73       	andi	r22, 0x35	; 53
      52:	2f 41       	sbci	r18, 0x1F	; 31
      54:	54 54       	subi	r21, 0x44	; 68
      56:	69 6e       	ori	r22, 0xE9	; 233
      58:	79 43       	sbci	r23, 0x39	; 57
      5a:	6f 72       	andi	r22, 0x2F	; 47
      5c:	65 2f       	mov	r22, r21
      5e:	68 61       	ori	r22, 0x18	; 24
      60:	72 64       	ori	r23, 0x42	; 66
      62:	77 61       	ori	r23, 0x17	; 23
      64:	72 65       	ori	r23, 0x52	; 82
      66:	2f 61       	ori	r18, 0x1F	; 31
      68:	76 72       	andi	r23, 0x26	; 38
      6a:	2f 31       	cpi	r18, 0x1F	; 31
      6c:	2e 35       	cpi	r18, 0x5E	; 94
      6e:	2e 32       	cpi	r18, 0x2E	; 46
      70:	2f 63       	ori	r18, 0x3F	; 63
      72:	6f 72       	andi	r22, 0x2F	; 47
      74:	65 73       	andi	r22, 0x35	; 53
      76:	2f 74       	andi	r18, 0x4F	; 79
      78:	69 6e       	ori	r22, 0xE9	; 233
      7a:	79 00       	.word	0x0079	; ????
      7c:	2f 68       	ori	r18, 0x8F	; 143
      7e:	6f 6d       	ori	r22, 0xDF	; 223
      80:	65 2f       	mov	r22, r21
      82:	61 79       	andi	r22, 0x91	; 145
      84:	69 6c       	ori	r22, 0xC9	; 201
      86:	61 79       	andi	r22, 0x91	; 145
      88:	2f 41       	sbci	r18, 0x1F	; 31
      8a:	72 64       	ori	r23, 0x42	; 66
      8c:	75 69       	ori	r23, 0x95	; 149
      8e:	6e 6f       	ori	r22, 0xFE	; 254
      90:	2f 6c       	ori	r18, 0xCF	; 207
      92:	69 62       	ori	r22, 0x29	; 41
      94:	72 61       	ori	r23, 0x12	; 18
      96:	72 69       	ori	r23, 0x92	; 146
      98:	65 73       	andi	r22, 0x35	; 53
      9a:	2f 46       	sbci	r18, 0x6F	; 111
      9c:	61 73       	andi	r22, 0x31	; 49
      9e:	74 4c       	sbci	r23, 0xC4	; 196
      a0:	45 44       	sbci	r20, 0x45	; 69
      a2:	2f 73       	andi	r18, 0x3F	; 63
      a4:	72 63       	ori	r23, 0x32	; 50
      a6:	00 2f       	mov	r16, r16
      a8:	68 6f       	ori	r22, 0xF8	; 248
      aa:	6d 65       	ori	r22, 0x5D	; 93
      ac:	2f 61       	ori	r18, 0x1F	; 31
      ae:	79 69       	ori	r23, 0x99	; 153
      b0:	6c 61       	ori	r22, 0x1C	; 28
      b2:	79 2f       	mov	r23, r25
      b4:	77 69       	ori	r23, 0x97	; 151
      b6:	6e 41       	sbci	r22, 0x1E	; 30
      b8:	79 69       	ori	r23, 0x99	; 153
      ba:	6c 61       	ori	r22, 0x1C	; 28
      bc:	79 2f       	mov	r23, r25
      be:	44 6f       	ori	r20, 0xF4	; 244
      c0:	63 75       	andi	r22, 0x53	; 83
      c2:	6d 65       	ori	r22, 0x5D	; 93
      c4:	6e 74       	andi	r22, 0x4E	; 78
      c6:	73 2f       	mov	r23, r19
      c8:	50 72       	andi	r21, 0x20	; 32
      ca:	6f 6a       	ori	r22, 0xAF	; 175
      cc:	65 63       	ori	r22, 0x35	; 53
      ce:	74 73       	andi	r23, 0x34	; 52
      d0:	2f 30       	cpi	r18, 0x0F	; 15
      d2:	30 30       	cpi	r19, 0x00	; 0
      d4:	31 2d       	mov	r19, r1
      d6:	48 65       	ori	r20, 0x58	; 88
      d8:	78 61       	ori	r23, 0x18	; 24
      da:	67 6f       	ori	r22, 0xF7	; 247
      dc:	6e 43       	sbci	r22, 0x3E	; 62
      de:	6f 66       	ori	r22, 0x6F	; 111
      e0:	66 65       	ori	r22, 0x56	; 86
      e2:	65 54       	subi	r22, 0x45	; 69
      e4:	61 62       	ori	r22, 0x21	; 33
      e6:	6c 65       	ori	r22, 0x5C	; 92
      e8:	2f 53       	subi	r18, 0x3F	; 63
      ea:	6f 66       	ori	r22, 0x6F	; 111
      ec:	74 77       	andi	r23, 0x74	; 116
      ee:	61 72       	andi	r22, 0x21	; 33
      f0:	65 2f       	mov	r22, r21
      f2:	52 6f       	ori	r21, 0xF2	; 242
      f4:	77 43       	sbci	r23, 0x37	; 55
      f6:	6f 6e       	ori	r22, 0xEF	; 239
      f8:	74 72       	andi	r23, 0x24	; 36
      fa:	6f 6c       	ori	r22, 0xCF	; 207
      fc:	6c 65       	ori	r22, 0x5C	; 92
      fe:	72 2f       	mov	r23, r18
     100:	52 6f       	ori	r21, 0xF2	; 242
     102:	77 43       	sbci	r23, 0x37	; 55
     104:	6f 6e       	ori	r22, 0xEF	; 239
     106:	74 72       	andi	r23, 0x24	; 36
     108:	6f 6c       	ori	r22, 0xCF	; 207
     10a:	6c 65       	ori	r22, 0x5C	; 92
     10c:	72 42       	sbci	r23, 0x22	; 34
     10e:	61 73       	andi	r22, 0x31	; 49
     110:	65 00       	.word	0x0065	; ????
     112:	2f 68       	ori	r18, 0x8F	; 143
     114:	6f 6d       	ori	r22, 0xDF	; 223
     116:	65 2f       	mov	r22, r21
     118:	61 79       	andi	r22, 0x91	; 145
     11a:	69 6c       	ori	r22, 0xC9	; 201
     11c:	61 79       	andi	r22, 0x91	; 145
     11e:	2f 41       	sbci	r18, 0x1F	; 31
     120:	72 64       	ori	r23, 0x42	; 66
     122:	75 69       	ori	r23, 0x95	; 149
     124:	6e 6f       	ori	r22, 0xFE	; 254
     126:	2f 6c       	ori	r18, 0xCF	; 207
     128:	69 62       	ori	r22, 0x29	; 41
     12a:	72 61       	ori	r23, 0x12	; 18
     12c:	72 69       	ori	r23, 0x92	; 146
     12e:	65 73       	andi	r22, 0x35	; 53
     130:	2f 46       	sbci	r18, 0x6F	; 111
     132:	61 73       	andi	r22, 0x31	; 49
     134:	74 4c       	sbci	r23, 0xC4	; 196
     136:	45 44       	sbci	r20, 0x45	; 69
     138:	2f 73       	andi	r18, 0x3F	; 63
     13a:	72 63       	ori	r23, 0x32	; 50
     13c:	2f 70       	andi	r18, 0x0F	; 15
     13e:	6c 61       	ori	r22, 0x1C	; 28
     140:	74 66       	ori	r23, 0x64	; 100
     142:	6f 72       	andi	r22, 0x2F	; 47
     144:	6d 73       	andi	r22, 0x3D	; 61
     146:	2f 61       	ori	r18, 0x1F	; 31
     148:	76 72       	andi	r23, 0x26	; 38
     14a:	00 2f       	mov	r16, r16
     14c:	68 6f       	ori	r22, 0xF8	; 248
     14e:	6d 65       	ori	r22, 0x5D	; 93
     150:	2f 61       	ori	r18, 0x1F	; 31
     152:	79 69       	ori	r23, 0x99	; 153
     154:	6c 61       	ori	r22, 0x1C	; 28
     156:	79 2f       	mov	r23, r25
     158:	41 72       	andi	r20, 0x21	; 33
     15a:	64 75       	andi	r22, 0x54	; 84
     15c:	69 6e       	ori	r22, 0xE9	; 233
     15e:	6f 2f       	mov	r22, r31
     160:	6c 69       	ori	r22, 0x9C	; 156
     162:	62 72       	andi	r22, 0x22	; 34
     164:	61 72       	andi	r22, 0x21	; 33
     166:	69 65       	ori	r22, 0x59	; 89
     168:	73 2f       	mov	r23, r19
     16a:	54 69       	ori	r21, 0x94	; 148
     16c:	6e 79       	andi	r22, 0x9E	; 158
     16e:	57 69       	ori	r21, 0x97	; 151
     170:	72 65       	ori	r23, 0x52	; 82
     172:	53 2f       	mov	r21, r19
     174:	75 74       	andi	r23, 0x45	; 69
     176:	69 6c       	ori	r22, 0xC9	; 201
     178:	69 74       	andi	r22, 0x49	; 73
     17a:	79 00       	.word	0x0079	; ????
     17c:	2f 68       	ori	r18, 0x8F	; 143
     17e:	6f 6d       	ori	r22, 0xDF	; 223
     180:	65 2f       	mov	r22, r21
     182:	61 79       	andi	r22, 0x91	; 145
     184:	69 6c       	ori	r22, 0xC9	; 201
     186:	61 79       	andi	r22, 0x91	; 145
     188:	2f 41       	sbci	r18, 0x1F	; 31
     18a:	72 64       	ori	r23, 0x42	; 66
     18c:	75 69       	ori	r23, 0x95	; 149
     18e:	6e 6f       	ori	r22, 0xFE	; 254
     190:	2f 6c       	ori	r18, 0xCF	; 207
     192:	69 62       	ori	r22, 0x29	; 41
     194:	72 61       	ori	r23, 0x12	; 18
     196:	72 69       	ori	r23, 0x92	; 146
     198:	65 73       	andi	r22, 0x35	; 53
     19a:	2f 46       	sbci	r18, 0x6F	; 111
     19c:	61 73       	andi	r22, 0x31	; 49
     19e:	74 4c       	sbci	r23, 0xC4	; 196
     1a0:	45 44       	sbci	r20, 0x45	; 69
     1a2:	2f 73       	andi	r18, 0x3F	; 63
     1a4:	72 63       	ori	r23, 0x32	; 50
     1a6:	2f 6c       	ori	r18, 0xCF	; 207
     1a8:	69 62       	ori	r22, 0x29	; 41
     1aa:	38 74       	andi	r19, 0x48	; 72
     1ac:	69 6f       	ori	r22, 0xF9	; 249
     1ae:	6e 00       	.word	0x006e	; ????
     1b0:	2f 68       	ori	r18, 0x8F	; 143
     1b2:	6f 6d       	ori	r22, 0xDF	; 223
     1b4:	65 2f       	mov	r22, r21
     1b6:	61 79       	andi	r22, 0x91	; 145
     1b8:	69 6c       	ori	r22, 0xC9	; 201
     1ba:	61 79       	andi	r22, 0x91	; 145
     1bc:	2f 41       	sbci	r18, 0x1F	; 31
     1be:	72 64       	ori	r23, 0x42	; 66
     1c0:	75 69       	ori	r23, 0x95	; 149
     1c2:	6e 6f       	ori	r22, 0xFE	; 254
     1c4:	2f 6c       	ori	r18, 0xCF	; 207
     1c6:	69 62       	ori	r22, 0x29	; 41
     1c8:	72 61       	ori	r23, 0x12	; 18
     1ca:	72 69       	ori	r23, 0x92	; 146
     1cc:	65 73       	andi	r22, 0x35	; 53
     1ce:	2f 54       	subi	r18, 0x4F	; 79
     1d0:	69 6e       	ori	r22, 0xE9	; 233
     1d2:	79 57       	subi	r23, 0x79	; 121
     1d4:	69 72       	andi	r22, 0x29	; 41
     1d6:	65 53       	subi	r22, 0x35	; 53
     1d8:	00 2f       	mov	r16, r16
     1da:	68 6f       	ori	r22, 0xF8	; 248
     1dc:	6d 65       	ori	r22, 0x5D	; 93
     1de:	2f 61       	ori	r18, 0x1F	; 31
     1e0:	79 69       	ori	r23, 0x99	; 153
     1e2:	6c 61       	ori	r22, 0x1C	; 28
     1e4:	79 2f       	mov	r23, r25
     1e6:	2e 61       	ori	r18, 0x1E	; 30
     1e8:	72 64       	ori	r23, 0x42	; 66
     1ea:	75 69       	ori	r23, 0x95	; 149
     1ec:	6e 6f       	ori	r22, 0xFE	; 254
     1ee:	31 35       	cpi	r19, 0x51	; 81
     1f0:	2f 70       	andi	r18, 0x0F	; 15
     1f2:	61 63       	ori	r22, 0x31	; 49
     1f4:	6b 61       	ori	r22, 0x1B	; 27
     1f6:	67 65       	ori	r22, 0x57	; 87
     1f8:	73 2f       	mov	r23, r19
     1fa:	61 72       	andi	r22, 0x21	; 33
     1fc:	64 75       	andi	r22, 0x54	; 84
     1fe:	69 6e       	ori	r22, 0xE9	; 233
     200:	6f 2f       	mov	r22, r31
     202:	74 6f       	ori	r23, 0xF4	; 244
     204:	6f 6c       	ori	r22, 0xCF	; 207
     206:	73 2f       	mov	r23, r19
     208:	61 76       	andi	r22, 0x61	; 97
     20a:	72 2d       	mov	r23, r2
     20c:	67 63       	ori	r22, 0x37	; 55
     20e:	63 2f       	mov	r22, r19
     210:	37 2e       	mov	r3, r23
     212:	33 2e       	mov	r3, r19
     214:	30 2d       	mov	r19, r0
     216:	61 74       	andi	r22, 0x41	; 65
     218:	6d 65       	ori	r22, 0x5D	; 93
     21a:	6c 33       	cpi	r22, 0x3C	; 60
     21c:	2e 36       	cpi	r18, 0x6E	; 110
     21e:	2e 31       	cpi	r18, 0x1E	; 30
     220:	2d 61       	ori	r18, 0x1D	; 29
     222:	72 64       	ori	r23, 0x42	; 66
     224:	75 69       	ori	r23, 0x95	; 149
     226:	6e 6f       	ori	r22, 0xFE	; 254
     228:	37 2f       	mov	r19, r23
     22a:	61 76       	andi	r22, 0x61	; 97
     22c:	72 2f       	mov	r23, r18
     22e:	69 6e       	ori	r22, 0xE9	; 233
     230:	63 6c       	ori	r22, 0xC3	; 195
     232:	75 64       	ori	r23, 0x45	; 69
     234:	65 00       	.word	0x0065	; ????
     236:	00 77       	andi	r16, 0x70	; 112
     238:	69 72       	andi	r22, 0x29	; 41
     23a:	69 6e       	ori	r22, 0xE9	; 233
     23c:	67 2e       	mov	r6, r23
     23e:	63 00       	.word	0x0063	; ????
     240:	01 00       	.word	0x0001	; ????
     242:	00 46       	sbci	r16, 0x60	; 96
     244:	61 73       	andi	r22, 0x31	; 49
     246:	74 4c       	sbci	r23, 0xC4	; 196
     248:	45 44       	sbci	r20, 0x45	; 69
     24a:	2e 63       	ori	r18, 0x3E	; 62
     24c:	70 70       	andi	r23, 0x00	; 0
     24e:	00 02       	muls	r16, r16
     250:	00 00       	nop
     252:	63 6f       	ori	r22, 0xF3	; 243
     254:	6e 74       	andi	r22, 0x4E	; 78
     256:	72 6f       	ori	r23, 0xF2	; 242
     258:	6c 6c       	ori	r22, 0xCC	; 204
     25a:	65 72       	andi	r22, 0x25	; 37
     25c:	2e 68       	ori	r18, 0x8E	; 142
     25e:	00 02       	muls	r16, r16
     260:	00 00       	nop
     262:	70 69       	ori	r23, 0x90	; 144
     264:	78 65       	ori	r23, 0x58	; 88
     266:	6c 74       	andi	r22, 0x4C	; 76
     268:	79 70       	andi	r23, 0x09	; 9
     26a:	65 73       	andi	r22, 0x35	; 53
     26c:	2e 68       	ori	r18, 0x8E	; 142
     26e:	00 02       	muls	r16, r16
     270:	00 00       	nop
     272:	52 6f       	ori	r21, 0xF2	; 242
     274:	77 43       	sbci	r23, 0x37	; 55
     276:	6f 6e       	ori	r22, 0xEF	; 239
     278:	74 72       	andi	r23, 0x24	; 36
     27a:	6f 6c       	ori	r22, 0xCF	; 207
     27c:	6c 65       	ori	r22, 0x5C	; 92
     27e:	72 42       	sbci	r23, 0x22	; 34
     280:	61 73       	andi	r22, 0x31	; 49
     282:	65 2e       	mov	r6, r21
     284:	69 6e       	ori	r22, 0xE9	; 233
     286:	6f 00       	.word	0x006f	; ????
     288:	03 00       	.word	0x0003	; ????
     28a:	00 63       	ori	r16, 0x30	; 48
     28c:	6c 6f       	ori	r22, 0xFC	; 252
     28e:	63 6b       	ori	r22, 0xB3	; 179
     290:	6c 65       	ori	r22, 0x5C	; 92
     292:	73 73       	andi	r23, 0x33	; 51
     294:	5f 74       	andi	r21, 0x4F	; 79
     296:	72 69       	ori	r23, 0x92	; 146
     298:	6e 6b       	ori	r22, 0xBE	; 190
     29a:	65 74       	andi	r22, 0x45	; 69
     29c:	2e 68       	ori	r18, 0x8E	; 142
     29e:	00 04       	cpc	r0, r0
     2a0:	00 00       	nop
     2a2:	55 53       	subi	r21, 0x35	; 53
     2a4:	49 5f       	subi	r20, 0xF9	; 249
     2a6:	54 57       	subi	r21, 0x74	; 116
     2a8:	49 5f       	subi	r20, 0xF9	; 249
     2aa:	53 6c       	ori	r21, 0xC3	; 195
     2ac:	61 76       	andi	r22, 0x61	; 97
     2ae:	65 2e       	mov	r6, r21
     2b0:	63 00       	.word	0x0063	; ????
     2b2:	05 00       	.word	0x0005	; ????
     2b4:	00 73       	andi	r16, 0x30	; 48
     2b6:	63 61       	ori	r22, 0x13	; 19
     2b8:	6c 65       	ori	r22, 0x5C	; 92
     2ba:	38 2e       	mov	r3, r24
     2bc:	68 00       	.word	0x0068	; ????
     2be:	06 00       	.word	0x0006	; ????
     2c0:	00 66       	ori	r16, 0x60	; 96
     2c2:	61 73       	andi	r22, 0x31	; 49
     2c4:	74 6c       	ori	r23, 0xC4	; 196
     2c6:	65 64       	ori	r22, 0x45	; 69
     2c8:	5f 64       	ori	r21, 0x4F	; 79
     2ca:	65 6c       	ori	r22, 0xC5	; 197
     2cc:	61 79       	andi	r22, 0x91	; 145
     2ce:	2e 68       	ori	r18, 0x8E	; 142
     2d0:	00 02       	muls	r16, r16
     2d2:	00 00       	nop
     2d4:	66 61       	ori	r22, 0x16	; 22
     2d6:	73 74       	andi	r23, 0x43	; 67
     2d8:	70 69       	ori	r23, 0x90	; 144
     2da:	6e 5f       	subi	r22, 0xFE	; 254
     2dc:	61 76       	andi	r22, 0x61	; 97
     2de:	72 2e       	mov	r7, r18
     2e0:	68 00       	.word	0x0068	; ????
     2e2:	04 00       	.word	0x0004	; ????
     2e4:	00 61       	ori	r16, 0x10	; 16
     2e6:	62 69       	ori	r22, 0x92	; 146
     2e8:	2e 63       	ori	r18, 0x3E	; 62
     2ea:	70 70       	andi	r23, 0x00	; 0
     2ec:	00 01       	movw	r0, r0
     2ee:	00 00       	nop
     2f0:	6d 61       	ori	r22, 0x1D	; 29
     2f2:	69 6e       	ori	r22, 0xE9	; 233
     2f4:	2e 63       	ori	r18, 0x3E	; 62
     2f6:	70 70       	andi	r23, 0x00	; 0
     2f8:	00 01       	movw	r0, r0
     2fa:	00 00       	nop
     2fc:	46 61       	ori	r20, 0x16	; 22
     2fe:	73 74       	andi	r23, 0x43	; 67
     300:	4c 45       	sbci	r20, 0x5C	; 92
     302:	44 2e       	mov	r4, r20
     304:	68 00       	.word	0x0068	; ????
     306:	02 00       	.word	0x0002	; ????
     308:	00 54       	subi	r16, 0x40	; 64
     30a:	69 6e       	ori	r22, 0xE9	; 233
     30c:	79 57       	subi	r23, 0x79	; 121
     30e:	69 72       	andi	r22, 0x29	; 41
     310:	65 53       	subi	r22, 0x35	; 53
     312:	2e 63       	ori	r18, 0x3E	; 62
     314:	70 70       	andi	r23, 0x00	; 0
     316:	00 07       	cpc	r16, r16
     318:	00 00       	nop
     31a:	73 74       	andi	r23, 0x43	; 67
     31c:	64 69       	ori	r22, 0x94	; 148
     31e:	6e 74       	andi	r22, 0x4E	; 78
     320:	2e 68       	ori	r18, 0x8E	; 142
     322:	00 08       	sbc	r0, r0
     324:	00 00       	nop
     326:	54 69       	ori	r21, 0x94	; 148
     328:	6e 79       	andi	r22, 0x9E	; 158
     32a:	57 69       	ori	r21, 0x97	; 151
     32c:	72 65       	ori	r23, 0x52	; 82
     32e:	53 2e       	mov	r5, r19
     330:	68 00       	.word	0x0068	; ????
     332:	07 00       	.word	0x0007	; ????
     334:	00 63       	ori	r16, 0x30	; 48
     336:	68 69       	ori	r22, 0x98	; 152
     338:	70 73       	andi	r23, 0x30	; 48
     33a:	65 74       	andi	r22, 0x45	; 69
     33c:	73 2e       	mov	r7, r19
     33e:	68 00       	.word	0x0068	; ????
     340:	02 00       	.word	0x0002	; ????
     342:	00 63       	ori	r16, 0x30	; 48
     344:	6f 6d       	ori	r22, 0xDF	; 223
     346:	6d 61       	ori	r22, 0x1D	; 29
     348:	6e 64       	ori	r22, 0x4E	; 78
     34a:	73 2e       	mov	r7, r19
     34c:	68 00       	.word	0x0068	; ????
     34e:	03 00       	.word	0x0003	; ????
     350:	00 41       	sbci	r16, 0x10	; 16
     352:	72 64       	ori	r23, 0x42	; 66
     354:	75 69       	ori	r23, 0x95	; 149
     356:	6e 6f       	ori	r22, 0xFE	; 254
     358:	2e 68       	ori	r18, 0x8E	; 142
     35a:	00 01       	movw	r0, r0
     35c:	00 00       	nop
     35e:	63 6f       	ori	r22, 0xF3	; 243
     360:	6c 6f       	ori	r22, 0xFC	; 252
     362:	72 2e       	mov	r7, r18
     364:	68 00       	.word	0x0068	; ????
     366:	02 00       	.word	0x0002	; ????
     368:	00 6c       	ori	r16, 0xC0	; 192
     36a:	69 62       	ori	r22, 0x29	; 41
     36c:	38 74       	andi	r19, 0x48	; 72
     36e:	69 6f       	ori	r22, 0xF9	; 249
     370:	6e 2e       	mov	r6, r30
     372:	68 00       	.word	0x0068	; ????
     374:	02 00       	.word	0x0002	; ????
     376:	00 63       	ori	r16, 0x30	; 48
     378:	6d 64       	ori	r22, 0x4D	; 77
     37a:	5f 74       	andi	r21, 0x4F	; 79
     37c:	61 62       	ori	r22, 0x21	; 33
     37e:	6c 65       	ori	r22, 0x5C	; 92
     380:	2e 68       	ori	r18, 0x8E	; 142
     382:	00 03       	mulsu	r16, r16
     384:	00 00       	nop
     386:	55 53       	subi	r21, 0x35	; 53
     388:	49 5f       	subi	r20, 0xF9	; 249
     38a:	54 57       	subi	r21, 0x74	; 116
     38c:	49 5f       	subi	r20, 0xF9	; 249
     38e:	53 6c       	ori	r21, 0xC3	; 195
     390:	61 76       	andi	r22, 0x61	; 97
     392:	65 2e       	mov	r6, r21
     394:	68 00       	.word	0x0068	; ????
     396:	05 00       	.word	0x0005	; ????
     398:	00 00       	nop
     39a:	00 05       	cpc	r16, r0
     39c:	02 70       	andi	r16, 0x02	; 2
     39e:	00 00       	nop
     3a0:	00 03       	mulsu	r16, r16
     3a2:	e0 02       	muls	r30, r16
     3a4:	01 03       	mulsu	r16, r17
     3a6:	07 09       	sbc	r16, r7
     3a8:	00 00       	nop
     3aa:	01 03       	mulsu	r16, r17
     3ac:	02 09       	sbc	r16, r2
     3ae:	02 00       	.word	0x0002	; ????
     3b0:	01 03       	mulsu	r16, r17
     3b2:	05 09       	sbc	r16, r5
     3b4:	02 00       	.word	0x0002	; ????
     3b6:	01 03       	mulsu	r16, r17
     3b8:	03 09       	sbc	r16, r3
     3ba:	10 00       	.word	0x0010	; ????
     3bc:	01 03       	mulsu	r16, r17
     3be:	0c 09       	sbc	r16, r12
     3c0:	02 00       	.word	0x0002	; ????
     3c2:	01 03       	mulsu	r16, r17
     3c4:	02 09       	sbc	r16, r2
     3c6:	0a 00       	.word	0x000a	; ????
     3c8:	01 03       	mulsu	r16, r17
     3ca:	1b 09       	sbc	r17, r11
     3cc:	06 00       	.word	0x0006	; ????
     3ce:	01 03       	mulsu	r16, r17
     3d0:	2a 09       	sbc	r18, r10
     3d2:	02 00       	.word	0x0002	; ????
     3d4:	01 03       	mulsu	r16, r17
     3d6:	37 09       	sbc	r19, r7
     3d8:	22 00       	.word	0x0022	; ????
     3da:	01 04       	cpc	r0, r1
     3dc:	02 03       	mulsu	r16, r18
     3de:	ba 7c       	andi	r27, 0xCA	; 202
     3e0:	09 02       	muls	r16, r25
     3e2:	00 01       	movw	r0, r0
     3e4:	03 02       	muls	r16, r19
     3e6:	09 2c       	mov	r0, r9
     3e8:	00 01       	movw	r0, r0
     3ea:	03 01       	movw	r0, r6
     3ec:	09 4c       	sbci	r16, 0xC9	; 201
     3ee:	00 01       	movw	r0, r0
     3f0:	03 03       	mulsu	r16, r19
     3f2:	09 12       	cpse	r0, r25
     3f4:	00 01       	movw	r0, r0
     3f6:	03 01       	movw	r0, r6
     3f8:	09 0c       	add	r0, r9
     3fa:	00 01       	movw	r0, r0
     3fc:	04 03       	mulsu	r16, r20
     3fe:	03 d0       	rcall	.+6      	; 0x406 <__LOCK_REGION_LENGTH__+0x6>
     400:	00 09       	sbc	r16, r0
     402:	16 00       	.word	0x0016	; ????
     404:	01 03       	mulsu	r16, r17
     406:	df 00       	.word	0x00df	; ????
     408:	09 08       	sbc	r0, r9
     40a:	00 01       	movw	r0, r0
     40c:	04 02       	muls	r16, r20
     40e:	03 d5       	rcall	.+2566   	; 0xe16 <_GLOBAL__sub_I_pSmartMatrix+0x2>
     410:	7e 09       	sbc	r23, r14
     412:	08 00       	.word	0x0008	; ????
     414:	01 03       	mulsu	r16, r17
     416:	02 09       	sbc	r16, r2
     418:	10 00       	.word	0x0010	; ????
     41a:	01 04       	cpc	r0, r1
     41c:	03 03       	mulsu	r16, r19
     41e:	f4 00       	.word	0x00f4	; ????
     420:	09 0e       	add	r0, r25
     422:	00 01       	movw	r0, r0
     424:	03 48       	sbci	r16, 0x83	; 131
     426:	09 04       	cpc	r0, r9
     428:	00 01       	movw	r0, r0
     42a:	04 04       	cpc	r0, r4
     42c:	03 2a       	or	r0, r19
     42e:	09 0a       	sbc	r0, r25
     430:	00 01       	movw	r0, r0
     432:	04 03       	mulsu	r16, r20
     434:	03 3e       	cpi	r16, 0xE3	; 227
     436:	09 06       	cpc	r0, r25
     438:	00 01       	movw	r0, r0
     43a:	03 02       	muls	r16, r19
     43c:	09 10       	cpse	r0, r9
     43e:	00 01       	movw	r0, r0
     440:	03 02       	muls	r16, r19
     442:	09 06       	cpc	r0, r25
     444:	00 01       	movw	r0, r0
     446:	03 7f       	andi	r16, 0xF3	; 243
     448:	09 04       	cpc	r0, r9
     44a:	00 01       	movw	r0, r0
     44c:	03 01       	movw	r0, r6
     44e:	09 02       	muls	r16, r25
     450:	00 01       	movw	r0, r0
     452:	03 01       	movw	r0, r6
     454:	09 04       	cpc	r0, r9
     456:	00 01       	movw	r0, r0
     458:	03 02       	muls	r16, r19
     45a:	09 26       	eor	r0, r25
     45c:	00 01       	movw	r0, r0
     45e:	03 7a       	andi	r16, 0xA3	; 163
     460:	09 12       	cpse	r0, r25
     462:	00 01       	movw	r0, r0
     464:	03 0b       	sbc	r16, r19
     466:	09 06       	cpc	r0, r25
     468:	00 01       	movw	r0, r0
     46a:	03 8c       	ldd	r0, Z+27	; 0x1b
     46c:	7f 09       	sbc	r23, r15
     46e:	06 00       	.word	0x0006	; ????
     470:	01 03       	mulsu	r16, r17
     472:	38 09       	sbc	r19, r8
     474:	16 00       	.word	0x0016	; ????
     476:	01 04       	cpc	r0, r1
     478:	02 03       	mulsu	r16, r18
     47a:	2a 09       	sbc	r18, r10
     47c:	10 00       	.word	0x0010	; ????
     47e:	01 04       	cpc	r0, r1
     480:	01 03       	mulsu	r16, r17
     482:	f4 00       	.word	0x00f4	; ????
     484:	09 1c       	adc	r0, r9
     486:	00 01       	movw	r0, r0
     488:	03 04       	cpc	r0, r3
     48a:	09 02       	muls	r16, r25
     48c:	00 01       	movw	r0, r0
     48e:	03 01       	movw	r0, r6
     490:	09 02       	muls	r16, r25
     492:	00 01       	movw	r0, r0
     494:	03 01       	movw	r0, r6
     496:	09 10       	cpse	r0, r9
     498:	00 01       	movw	r0, r0
     49a:	04 02       	muls	r16, r20
     49c:	03 88       	ldd	r0, Z+19	; 0x13
     49e:	7f 09       	sbc	r23, r15
     4a0:	02 00       	.word	0x0002	; ????
     4a2:	01 03       	mulsu	r16, r17
     4a4:	01 09       	sbc	r16, r1
     4a6:	18 00       	.word	0x0018	; ????
     4a8:	01 03       	mulsu	r16, r17
     4aa:	01 09       	sbc	r16, r1
     4ac:	02 00       	.word	0x0002	; ????
     4ae:	01 03       	mulsu	r16, r17
     4b0:	02 09       	sbc	r16, r2
     4b2:	08 00       	.word	0x0008	; ????
     4b4:	01 03       	mulsu	r16, r17
     4b6:	01 09       	sbc	r16, r1
     4b8:	24 00       	.word	0x0024	; ????
     4ba:	01 04       	cpc	r0, r1
     4bc:	01 03       	mulsu	r16, r17
     4be:	ed 00       	.word	0x00ed	; ????
     4c0:	09 08       	sbc	r0, r9
     4c2:	00 01       	movw	r0, r0
     4c4:	03 04       	cpc	r0, r3
     4c6:	09 02       	muls	r16, r25
     4c8:	00 01       	movw	r0, r0
     4ca:	03 01       	movw	r0, r6
     4cc:	09 02       	muls	r16, r25
     4ce:	00 01       	movw	r0, r0
     4d0:	03 01       	movw	r0, r6
     4d2:	09 10       	cpse	r0, r9
     4d4:	00 01       	movw	r0, r0
     4d6:	04 02       	muls	r16, r20
     4d8:	03 8e       	std	Z+27, r0	; 0x1b
     4da:	7f 09       	sbc	r23, r15
     4dc:	02 00       	.word	0x0002	; ????
     4de:	01 03       	mulsu	r16, r17
     4e0:	e0 7e       	andi	r30, 0xE0	; 224
     4e2:	09 10       	cpse	r0, r9
     4e4:	00 01       	movw	r0, r0
     4e6:	04 05       	cpc	r16, r4
     4e8:	03 2d       	mov	r16, r3
     4ea:	09 2a       	or	r0, r25
     4ec:	00 01       	movw	r0, r0
     4ee:	03 03       	mulsu	r16, r19
     4f0:	09 00       	.word	0x0009	; ????
     4f2:	00 01       	movw	r0, r0
     4f4:	03 01       	movw	r0, r6
     4f6:	09 02       	muls	r16, r25
     4f8:	00 01       	movw	r0, r0
     4fa:	03 01       	movw	r0, r6
     4fc:	09 12       	cpse	r0, r25
     4fe:	00 01       	movw	r0, r0
     500:	03 03       	mulsu	r16, r19
     502:	09 02       	muls	r16, r25
     504:	00 01       	movw	r0, r0
     506:	03 01       	movw	r0, r6
     508:	09 00       	.word	0x0009	; ????
     50a:	00 01       	movw	r0, r0
     50c:	03 01       	movw	r0, r6
     50e:	09 02       	muls	r16, r25
     510:	00 01       	movw	r0, r0
     512:	03 01       	movw	r0, r6
     514:	09 12       	cpse	r0, r25
     516:	00 01       	movw	r0, r0
     518:	04 06       	cpc	r0, r20
     51a:	03 74       	andi	r16, 0x43	; 67
     51c:	09 02       	muls	r16, r25
     51e:	00 01       	movw	r0, r0
     520:	03 00       	.word	0x0003	; ????
     522:	09 00       	.word	0x0009	; ????
     524:	00 01       	movw	r0, r0
     526:	04 07       	cpc	r16, r20
     528:	03 d6       	rcall	.+3078   	; 0x1130 <__data_load_end+0x1c6>
     52a:	00 09       	sbc	r16, r0
     52c:	06 00       	.word	0x0006	; ????
     52e:	01 03       	mulsu	r16, r17
     530:	02 09       	sbc	r16, r2
     532:	00 00       	nop
     534:	01 03       	mulsu	r16, r17
     536:	01 09       	sbc	r16, r1
     538:	08 00       	.word	0x0008	; ????
     53a:	01 03       	mulsu	r16, r17
     53c:	01 09       	sbc	r16, r1
     53e:	0c 00       	.word	0x000c	; ????
     540:	01 03       	mulsu	r16, r17
     542:	01 09       	sbc	r16, r1
     544:	0c 00       	.word	0x000c	; ????
     546:	01 03       	mulsu	r16, r17
     548:	02 09       	sbc	r16, r2
     54a:	0a 00       	.word	0x000a	; ????
     54c:	01 04       	cpc	r0, r1
     54e:	03 03       	mulsu	r16, r19
     550:	a2 01       	movw	r20, r4
     552:	09 02       	muls	r16, r25
     554:	00 01       	movw	r0, r0
     556:	03 04       	cpc	r0, r3
     558:	09 0c       	add	r0, r9
     55a:	00 01       	movw	r0, r0
     55c:	03 05       	cpc	r16, r3
     55e:	09 06       	cpc	r0, r25
     560:	00 01       	movw	r0, r0
     562:	03 09       	sbc	r16, r3
     564:	09 08       	sbc	r0, r9
     566:	00 01       	movw	r0, r0
     568:	03 7c       	andi	r16, 0xC3	; 195
     56a:	09 04       	cpc	r0, r9
     56c:	00 01       	movw	r0, r0
     56e:	03 05       	cpc	r16, r3
     570:	09 02       	muls	r16, r25
     572:	00 01       	movw	r0, r0
     574:	03 01       	movw	r0, r6
     576:	09 04       	cpc	r0, r9
     578:	00 01       	movw	r0, r0
     57a:	03 0d       	add	r16, r3
     57c:	09 06       	cpc	r0, r25
     57e:	00 01       	movw	r0, r0
     580:	03 0a       	sbc	r0, r19
     582:	09 0a       	sbc	r0, r25
     584:	00 01       	movw	r0, r0
     586:	04 08       	sbc	r0, r4
     588:	03 83       	std	Z+3, r16	; 0x03
     58a:	7d 09       	sbc	r23, r13
     58c:	06 00       	.word	0x0006	; ????
     58e:	01 04       	cpc	r0, r1
     590:	03 03       	mulsu	r16, r19
     592:	fc 02       	muls	r31, r28
     594:	09 02       	muls	r16, r25
     596:	00 01       	movw	r0, r0
     598:	03 01       	movw	r0, r6
     59a:	09 02       	muls	r16, r25
     59c:	00 01       	movw	r0, r0
     59e:	04 08       	sbc	r0, r4
     5a0:	03 83       	std	Z+3, r16	; 0x03
     5a2:	7d 09       	sbc	r23, r13
     5a4:	12 00       	.word	0x0012	; ????
     5a6:	01 04       	cpc	r0, r1
     5a8:	03 03       	mulsu	r16, r19
     5aa:	80 03       	fmuls	r16, r16
     5ac:	09 0a       	sbc	r0, r25
     5ae:	00 01       	movw	r0, r0
     5b0:	03 7e       	andi	r16, 0xE3	; 227
     5b2:	09 04       	cpc	r0, r9
     5b4:	00 01       	movw	r0, r0
     5b6:	03 04       	cpc	r0, r3
     5b8:	09 02       	muls	r16, r25
     5ba:	00 01       	movw	r0, r0
     5bc:	03 79       	andi	r16, 0x93	; 147
     5be:	09 0c       	add	r0, r9
     5c0:	00 01       	movw	r0, r0
     5c2:	03 0a       	sbc	r0, r19
     5c4:	09 06       	cpc	r0, r25
     5c6:	00 01       	movw	r0, r0
     5c8:	03 7b       	andi	r16, 0xB3	; 179
     5ca:	09 0e       	add	r0, r25
     5cc:	00 01       	movw	r0, r0
     5ce:	04 06       	cpc	r0, r20
     5d0:	03 d6       	rcall	.+3078   	; 0x11d8 <__data_load_end+0x26e>
     5d2:	7d 09       	sbc	r23, r13
     5d4:	06 00       	.word	0x0006	; ????
     5d6:	01 04       	cpc	r0, r1
     5d8:	09 03       	fmul	r16, r17
     5da:	a4 7f       	andi	r26, 0xF4	; 244
     5dc:	09 22       	and	r0, r25
     5de:	00 01       	movw	r0, r0
     5e0:	03 01       	movw	r0, r6
     5e2:	09 0c       	add	r0, r9
     5e4:	00 01       	movw	r0, r0
     5e6:	04 06       	cpc	r0, r20
     5e8:	03 de       	rcall	.-1018   	; 0x1f0 <CFastLED::show(unsigned char) [clone .constprop.18]+0x134>
     5ea:	00 09       	sbc	r16, r0
     5ec:	06 00       	.word	0x0006	; ????
     5ee:	01 03       	mulsu	r16, r17
     5f0:	02 09       	sbc	r16, r2
     5f2:	02 00       	.word	0x0002	; ????
     5f4:	01 03       	mulsu	r16, r17
     5f6:	ec 01       	movw	r28, r24
     5f8:	09 0c       	add	r0, r9
     5fa:	00 01       	movw	r0, r0
     5fc:	03 06       	cpc	r0, r19
     5fe:	09 04       	cpc	r0, r9
     600:	00 01       	movw	r0, r0
     602:	03 01       	movw	r0, r6
     604:	09 08       	sbc	r0, r9
     606:	00 01       	movw	r0, r0
     608:	03 01       	movw	r0, r6
     60a:	09 04       	cpc	r0, r9
     60c:	00 01       	movw	r0, r0
     60e:	04 03       	mulsu	r16, r20
     610:	03 e6       	ldi	r16, 0x63	; 99
     612:	00 09       	sbc	r16, r0
     614:	02 00       	.word	0x0002	; ????
     616:	01 03       	mulsu	r16, r17
     618:	6f 09       	sbc	r22, r15
     61a:	0c 00       	.word	0x000c	; ????
     61c:	01 04       	cpc	r0, r1
     61e:	06 03       	mulsu	r16, r22
     620:	b9 7f       	andi	r27, 0xF9	; 249
     622:	09 08       	sbc	r0, r9
     624:	00 01       	movw	r0, r0
     626:	03 02       	muls	r16, r19
     628:	09 04       	cpc	r0, r9
     62a:	00 01       	movw	r0, r0
     62c:	03 01       	movw	r0, r6
     62e:	09 02       	muls	r16, r25
     630:	00 01       	movw	r0, r0
     632:	03 01       	movw	r0, r6
     634:	09 02       	muls	r16, r25
     636:	00 01       	movw	r0, r0
     638:	03 02       	muls	r16, r19
     63a:	09 02       	muls	r16, r25
     63c:	00 01       	movw	r0, r0
     63e:	03 03       	mulsu	r16, r19
     640:	09 06       	cpc	r0, r25
     642:	00 01       	movw	r0, r0
     644:	03 01       	movw	r0, r6
     646:	09 02       	muls	r16, r25
     648:	00 01       	movw	r0, r0
     64a:	03 02       	muls	r16, r19
     64c:	09 02       	muls	r16, r25
     64e:	00 01       	movw	r0, r0
     650:	03 01       	movw	r0, r6
     652:	09 02       	muls	r16, r25
     654:	00 01       	movw	r0, r0
     656:	03 05       	cpc	r16, r3
     658:	09 02       	muls	r16, r25
     65a:	00 01       	movw	r0, r0
     65c:	03 02       	muls	r16, r19
     65e:	09 02       	muls	r16, r25
     660:	00 01       	movw	r0, r0
     662:	03 01       	movw	r0, r6
     664:	09 12       	cpse	r0, r25
     666:	00 01       	movw	r0, r0
     668:	03 01       	movw	r0, r6
     66a:	09 0c       	add	r0, r9
     66c:	00 01       	movw	r0, r0
     66e:	03 01       	movw	r0, r6
     670:	09 0c       	add	r0, r9
     672:	00 01       	movw	r0, r0
     674:	03 01       	movw	r0, r6
     676:	09 0c       	add	r0, r9
     678:	00 01       	movw	r0, r0
     67a:	03 01       	movw	r0, r6
     67c:	09 0c       	add	r0, r9
     67e:	00 01       	movw	r0, r0
     680:	03 01       	movw	r0, r6
     682:	09 0c       	add	r0, r9
     684:	00 01       	movw	r0, r0
     686:	03 01       	movw	r0, r6
     688:	09 0c       	add	r0, r9
     68a:	00 01       	movw	r0, r0
     68c:	03 01       	movw	r0, r6
     68e:	09 08       	sbc	r0, r9
     690:	00 01       	movw	r0, r0
     692:	03 07       	cpc	r16, r19
     694:	09 02       	muls	r16, r25
     696:	00 01       	movw	r0, r0
     698:	03 01       	movw	r0, r6
     69a:	09 02       	muls	r16, r25
     69c:	00 01       	movw	r0, r0
     69e:	03 0d       	add	r16, r3
     6a0:	09 00       	.word	0x0009	; ????
     6a2:	00 01       	movw	r0, r0
     6a4:	03 01       	movw	r0, r6
     6a6:	09 12       	cpse	r0, r25
     6a8:	00 01       	movw	r0, r0
     6aa:	03 01       	movw	r0, r6
     6ac:	09 14       	cp	r0, r9
     6ae:	00 01       	movw	r0, r0
     6b0:	03 01       	movw	r0, r6
     6b2:	09 14       	cp	r0, r9
     6b4:	00 01       	movw	r0, r0
     6b6:	03 01       	movw	r0, r6
     6b8:	09 14       	cp	r0, r9
     6ba:	00 01       	movw	r0, r0
     6bc:	03 01       	movw	r0, r6
     6be:	09 14       	cp	r0, r9
     6c0:	00 01       	movw	r0, r0
     6c2:	03 01       	movw	r0, r6
     6c4:	09 14       	cp	r0, r9
     6c6:	00 01       	movw	r0, r0
     6c8:	03 01       	movw	r0, r6
     6ca:	09 14       	cp	r0, r9
     6cc:	00 01       	movw	r0, r0
     6ce:	03 07       	cpc	r16, r19
     6d0:	09 06       	cpc	r0, r25
     6d2:	00 01       	movw	r0, r0
     6d4:	03 f9       	bld	r16, 3
     6d6:	7c 09       	sbc	r23, r12
     6d8:	0a 00       	.word	0x000a	; ????
     6da:	01 03       	mulsu	r16, r17
     6dc:	89 03       	fmulsu	r16, r17
     6de:	09 02       	muls	r16, r25
     6e0:	00 01       	movw	r0, r0
     6e2:	03 01       	movw	r0, r6
     6e4:	09 12       	cpse	r0, r25
     6e6:	00 01       	movw	r0, r0
     6e8:	03 01       	movw	r0, r6
     6ea:	09 14       	cp	r0, r9
     6ec:	00 01       	movw	r0, r0
     6ee:	03 01       	movw	r0, r6
     6f0:	09 14       	cp	r0, r9
     6f2:	00 01       	movw	r0, r0
     6f4:	03 01       	movw	r0, r6
     6f6:	09 14       	cp	r0, r9
     6f8:	00 01       	movw	r0, r0
     6fa:	03 01       	movw	r0, r6
     6fc:	09 14       	cp	r0, r9
     6fe:	00 01       	movw	r0, r0
     700:	03 01       	movw	r0, r6
     702:	09 14       	cp	r0, r9
     704:	00 01       	movw	r0, r0
     706:	03 01       	movw	r0, r6
     708:	09 14       	cp	r0, r9
     70a:	00 01       	movw	r0, r0
     70c:	03 0b       	sbc	r16, r19
     70e:	09 06       	cpc	r0, r25
     710:	00 01       	movw	r0, r0
     712:	03 e1       	ldi	r16, 0x13	; 19
     714:	7c 09       	sbc	r23, r12
     716:	0c 00       	.word	0x000c	; ????
     718:	01 03       	mulsu	r16, r17
     71a:	a0 03       	fmuls	r18, r16
     71c:	09 02       	muls	r16, r25
     71e:	00 01       	movw	r0, r0
     720:	03 01       	movw	r0, r6
     722:	09 12       	cpse	r0, r25
     724:	00 01       	movw	r0, r0
     726:	03 01       	movw	r0, r6
     728:	09 14       	cp	r0, r9
     72a:	00 01       	movw	r0, r0
     72c:	03 01       	movw	r0, r6
     72e:	09 14       	cp	r0, r9
     730:	00 01       	movw	r0, r0
     732:	03 01       	movw	r0, r6
     734:	09 14       	cp	r0, r9
     736:	00 01       	movw	r0, r0
     738:	03 01       	movw	r0, r6
     73a:	09 14       	cp	r0, r9
     73c:	00 01       	movw	r0, r0
     73e:	03 01       	movw	r0, r6
     740:	09 14       	cp	r0, r9
     742:	00 01       	movw	r0, r0
     744:	03 01       	movw	r0, r6
     746:	09 14       	cp	r0, r9
     748:	00 01       	movw	r0, r0
     74a:	03 07       	cpc	r16, r19
     74c:	09 06       	cpc	r0, r25
     74e:	00 01       	movw	r0, r0
     750:	03 01       	movw	r0, r6
     752:	09 0a       	sbc	r0, r25
     754:	00 01       	movw	r0, r0
     756:	03 02       	muls	r16, r19
     758:	09 06       	cpc	r0, r25
     75a:	00 01       	movw	r0, r0
     75c:	04 03       	mulsu	r16, r20
     75e:	03 5a       	subi	r16, 0xA3	; 163
     760:	09 00       	.word	0x0009	; ????
     762:	00 01       	movw	r0, r0
     764:	04 06       	cpc	r0, r20
     766:	03 c5       	rjmp	.+2566   	; 0x116e <__data_load_end+0x204>
     768:	7d 09       	sbc	r23, r13
     76a:	06 00       	.word	0x0006	; ????
     76c:	01 04       	cpc	r0, r1
     76e:	08 03       	fmul	r16, r16
     770:	da 02       	muls	r29, r26
     772:	09 26       	eor	r0, r25
     774:	00 01       	movw	r0, r0
     776:	04 06       	cpc	r0, r20
     778:	03 ab       	std	Z+51, r16	; 0x33
     77a:	7d 09       	sbc	r23, r13
     77c:	0c 00       	.word	0x000c	; ????
     77e:	01 03       	mulsu	r16, r17
     780:	08 09       	sbc	r16, r8
     782:	16 00       	.word	0x0016	; ????
     784:	01 03       	mulsu	r16, r17
     786:	04 09       	sbc	r16, r4
     788:	0c 00       	.word	0x000c	; ????
     78a:	01 03       	mulsu	r16, r17
     78c:	05 09       	sbc	r16, r5
     78e:	08 00       	.word	0x0008	; ????
     790:	01 04       	cpc	r0, r1
     792:	08 03       	fmul	r16, r16
     794:	c4 02       	muls	r28, r20
     796:	09 0e       	add	r0, r25
     798:	00 01       	movw	r0, r0
     79a:	04 06       	cpc	r0, r20
     79c:	03 bf       	out	0x33, r16	; 51
     79e:	7d 09       	sbc	r23, r13
     7a0:	10 00       	.word	0x0010	; ????
     7a2:	01 03       	mulsu	r16, r17
     7a4:	01 09       	sbc	r16, r1
     7a6:	0e 00       	.word	0x000e	; ????
     7a8:	01 03       	mulsu	r16, r17
     7aa:	01 09       	sbc	r16, r1
     7ac:	2c 00       	.word	0x002c	; ????
     7ae:	01 03       	mulsu	r16, r17
     7b0:	14 09       	sbc	r17, r4
     7b2:	04 00       	.word	0x0004	; ????
     7b4:	01 04       	cpc	r0, r1
     7b6:	09 03       	fmul	r16, r17
     7b8:	ef 7e       	andi	r30, 0xEF	; 239
     7ba:	09 02       	muls	r16, r25
     7bc:	00 01       	movw	r0, r0
     7be:	04 06       	cpc	r0, r20
     7c0:	03 93       	.word	0x9303	; ????
     7c2:	01 09       	sbc	r16, r1
     7c4:	08 00       	.word	0x0008	; ????
     7c6:	01 04       	cpc	r0, r1
     7c8:	03 03       	mulsu	r16, r19
     7ca:	75 09       	sbc	r23, r5
     7cc:	20 00       	.word	0x0020	; ????
     7ce:	01 03       	mulsu	r16, r17
     7d0:	00 09       	sbc	r16, r0
     7d2:	00 00       	nop
     7d4:	01 04       	cpc	r0, r1
     7d6:	06 03       	mulsu	r16, r22
     7d8:	48 09       	sbc	r20, r8
     7da:	06 00       	.word	0x0006	; ????
     7dc:	01 04       	cpc	r0, r1
     7de:	0a 03       	fmul	r16, r18
     7e0:	a5 7f       	andi	r26, 0xF5	; 245
     7e2:	09 00       	.word	0x0009	; ????
     7e4:	00 01       	movw	r0, r0
     7e6:	04 06       	cpc	r0, r20
     7e8:	03 dd       	rcall	.-1530   	; 0x1f0 <CFastLED::show(unsigned char) [clone .constprop.18]+0x134>
     7ea:	00 09       	sbc	r16, r0
     7ec:	02 00       	.word	0x0002	; ????
     7ee:	01 04       	cpc	r0, r1
     7f0:	03 03       	mulsu	r16, r19
     7f2:	88 04       	cpc	r8, r8
     7f4:	09 02       	muls	r16, r25
     7f6:	00 01       	movw	r0, r0
     7f8:	03 01       	movw	r0, r6
     7fa:	09 34       	cpi	r16, 0x49	; 73
     7fc:	00 01       	movw	r0, r0
     7fe:	03 be       	out	0x33, r0	; 51
     800:	7d 09       	sbc	r23, r13
     802:	0e 00       	.word	0x000e	; ????
     804:	01 03       	mulsu	r16, r17
     806:	fc 00       	.word	0x00fc	; ????
     808:	09 12       	cpse	r0, r25
     80a:	00 01       	movw	r0, r0
     80c:	03 01       	movw	r0, r6
     80e:	09 04       	cpc	r0, r9
     810:	00 01       	movw	r0, r0
     812:	03 85       	ldd	r16, Z+11	; 0x0b
     814:	7f 09       	sbc	r23, r15
     816:	06 00       	.word	0x0006	; ????
     818:	01 03       	mulsu	r16, r17
     81a:	66 09       	sbc	r22, r6
     81c:	04 00       	.word	0x0004	; ????
     81e:	01 03       	mulsu	r16, r17
     820:	db 02       	muls	r29, r27
     822:	09 04       	cpc	r0, r9
     824:	00 01       	movw	r0, r0
     826:	03 02       	muls	r16, r19
     828:	09 04       	cpc	r0, r9
     82a:	00 01       	movw	r0, r0
     82c:	03 02       	muls	r16, r19
     82e:	09 04       	cpc	r0, r9
     830:	00 01       	movw	r0, r0
     832:	03 01       	movw	r0, r6
     834:	09 16       	cp	r0, r25
     836:	00 01       	movw	r0, r0
     838:	03 b6       	in	r0, 0x33	; 51
     83a:	7e 09       	sbc	r23, r14
     83c:	24 00       	.word	0x0024	; ????
     83e:	01 03       	mulsu	r16, r17
     840:	ba 01       	movw	r22, r20
     842:	09 0e       	add	r0, r25
     844:	00 01       	movw	r0, r0
     846:	03 d3       	rcall	.+1542   	; 0xe4e <__mulhi3+0x8>
     848:	7d 09       	sbc	r23, r13
     84a:	24 00       	.word	0x0024	; ????
     84c:	01 03       	mulsu	r16, r17
     84e:	f1 00       	.word	0x00f1	; ????
     850:	09 12       	cpse	r0, r25
     852:	00 01       	movw	r0, r0
     854:	03 01       	movw	r0, r6
     856:	09 04       	cpc	r0, r9
     858:	00 01       	movw	r0, r0
     85a:	03 90       	.word	0x9003	; ????
     85c:	7f 09       	sbc	r23, r15
     85e:	06 00       	.word	0x0006	; ????
     860:	01 03       	mulsu	r16, r17
     862:	5b 09       	sbc	r21, r11
     864:	02 00       	.word	0x0002	; ????
     866:	01 03       	mulsu	r16, r17
     868:	d2 02       	muls	r29, r18
     86a:	09 04       	cpc	r0, r9
     86c:	00 01       	movw	r0, r0
     86e:	03 01       	movw	r0, r6
     870:	09 16       	cp	r0, r25
     872:	00 01       	movw	r0, r0
     874:	03 c3       	rjmp	.+1542   	; 0xe7c <__mulsi3_helper+0x10>
     876:	7e 09       	sbc	r23, r14
     878:	1a 00       	.word	0x001a	; ????
     87a:	01 03       	mulsu	r16, r17
     87c:	c1 7e       	andi	r28, 0xE1	; 225
     87e:	09 0e       	add	r0, r25
     880:	00 01       	movw	r0, r0
     882:	03 00       	.word	0x0003	; ????
     884:	09 00       	.word	0x0009	; ????
     886:	00 01       	movw	r0, r0
     888:	03 ac       	ldd	r0, Z+59	; 0x3b
     88a:	7f 09       	sbc	r23, r15
     88c:	06 00       	.word	0x0006	; ????
     88e:	01 03       	mulsu	r16, r17
     890:	00 09       	sbc	r16, r0
     892:	00 00       	nop
     894:	01 03       	mulsu	r16, r17
     896:	be 7f       	andi	r27, 0xFE	; 254
     898:	09 08       	sbc	r0, r9
     89a:	00 01       	movw	r0, r0
     89c:	04 04       	cpc	r0, r4
     89e:	03 cd       	rjmp	.-1530   	; 0x2a6 <__stack+0x47>
     8a0:	00 09       	sbc	r16, r0
     8a2:	12 00       	.word	0x0012	; ????
     8a4:	01 04       	cpc	r0, r1
     8a6:	03 03       	mulsu	r16, r19
     8a8:	48 09       	sbc	r20, r8
     8aa:	06 00       	.word	0x0006	; ????
     8ac:	01 03       	mulsu	r16, r17
     8ae:	6b 09       	sbc	r22, r11
     8b0:	1a 00       	.word	0x001a	; ????
     8b2:	01 04       	cpc	r0, r1
     8b4:	0b 03       	fmul	r16, r19
     8b6:	b5 7f       	andi	r27, 0xF5	; 245
     8b8:	09 10       	cpse	r0, r9
     8ba:	00 01       	movw	r0, r0
     8bc:	03 03       	mulsu	r16, r19
     8be:	09 00       	.word	0x0009	; ????
     8c0:	00 01       	movw	r0, r0
     8c2:	04 01       	movw	r0, r8
     8c4:	03 99       	sbic	0x00, 3	; 0
     8c6:	02 09       	sbc	r16, r2
     8c8:	02 00       	.word	0x0002	; ????
     8ca:	01 03       	mulsu	r16, r17
     8cc:	03 09       	sbc	r16, r3
     8ce:	16 00       	.word	0x0016	; ????
     8d0:	01 03       	mulsu	r16, r17
     8d2:	01 09       	sbc	r16, r1
     8d4:	10 00       	.word	0x0010	; ????
     8d6:	01 03       	mulsu	r16, r17
     8d8:	07 09       	sbc	r16, r7
     8da:	04 00       	.word	0x0004	; ????
     8dc:	01 03       	mulsu	r16, r17
     8de:	02 09       	sbc	r16, r2
     8e0:	04 00       	.word	0x0004	; ????
     8e2:	01 03       	mulsu	r16, r17
     8e4:	02 09       	sbc	r16, r2
     8e6:	04 00       	.word	0x0004	; ????
     8e8:	01 03       	mulsu	r16, r17
     8ea:	01 09       	sbc	r16, r1
     8ec:	04 00       	.word	0x0004	; ????
     8ee:	01 03       	mulsu	r16, r17
     8f0:	07 09       	sbc	r16, r7
     8f2:	06 00       	.word	0x0006	; ????
     8f4:	01 03       	mulsu	r16, r17
     8f6:	01 09       	sbc	r16, r1
     8f8:	04 00       	.word	0x0004	; ????
     8fa:	01 03       	mulsu	r16, r17
     8fc:	02 09       	sbc	r16, r2
     8fe:	10 00       	.word	0x0010	; ????
     900:	01 03       	mulsu	r16, r17
     902:	02 09       	sbc	r16, r2
     904:	26 00       	.word	0x0026	; ????
     906:	01 03       	mulsu	r16, r17
     908:	78 09       	sbc	r23, r8
     90a:	16 00       	.word	0x0016	; ????
     90c:	01 04       	cpc	r0, r1
     90e:	07 03       	mulsu	r16, r23
     910:	9f 7f       	andi	r25, 0xFF	; 255
     912:	09 08       	sbc	r0, r9
     914:	00 01       	movw	r0, r0
     916:	03 01       	movw	r0, r6
     918:	09 22       	and	r0, r25
     91a:	00 01       	movw	r0, r0
     91c:	03 2f       	mov	r16, r19
     91e:	09 1c       	adc	r0, r9
     920:	00 01       	movw	r0, r0
     922:	03 51       	subi	r16, 0x13	; 19
     924:	09 22       	and	r0, r25
     926:	00 01       	movw	r0, r0
     928:	03 25       	eor	r16, r3
     92a:	09 10       	cpse	r0, r9
     92c:	00 01       	movw	r0, r0
     92e:	03 01       	movw	r0, r6
     930:	09 08       	sbc	r0, r9
     932:	00 01       	movw	r0, r0
     934:	03 01       	movw	r0, r6
     936:	09 0e       	add	r0, r25
     938:	00 01       	movw	r0, r0
     93a:	03 01       	movw	r0, r6
     93c:	09 0c       	add	r0, r9
     93e:	00 01       	movw	r0, r0
     940:	03 02       	muls	r16, r19
     942:	09 0a       	sbc	r0, r25
     944:	00 01       	movw	r0, r0
     946:	03 58       	subi	r16, 0x83	; 131
     948:	09 06       	cpc	r0, r25
     94a:	00 01       	movw	r0, r0
     94c:	03 01       	movw	r0, r6
     94e:	09 12       	cpse	r0, r25
     950:	00 01       	movw	r0, r0
     952:	03 01       	movw	r0, r6
     954:	09 04       	cpc	r0, r9
     956:	00 01       	movw	r0, r0
     958:	03 69       	ori	r16, 0x93	; 147
     95a:	09 0c       	add	r0, r9
     95c:	00 01       	movw	r0, r0
     95e:	03 17       	cp	r16, r19
     960:	09 04       	cpc	r0, r9
     962:	00 01       	movw	r0, r0
     964:	03 69       	ori	r16, 0x93	; 147
     966:	09 04       	cpc	r0, r9
     968:	00 01       	movw	r0, r0
     96a:	03 17       	cp	r16, r19
     96c:	09 04       	cpc	r0, r9
     96e:	00 01       	movw	r0, r0
     970:	03 01       	movw	r0, r6
     972:	09 10       	cpse	r0, r9
     974:	00 01       	movw	r0, r0
     976:	03 25       	eor	r16, r3
     978:	09 04       	cpc	r0, r9
     97a:	00 01       	movw	r0, r0
     97c:	03 01       	movw	r0, r6
     97e:	09 08       	sbc	r0, r9
     980:	00 01       	movw	r0, r0
     982:	03 60       	ori	r16, 0x03	; 3
     984:	09 06       	cpc	r0, r25
     986:	00 01       	movw	r0, r0
     988:	03 0b       	sbc	r16, r19
     98a:	09 06       	cpc	r0, r25
     98c:	00 01       	movw	r0, r0
     98e:	03 7a       	andi	r16, 0xA3	; 163
     990:	09 06       	cpc	r0, r25
     992:	00 01       	movw	r0, r0
     994:	03 01       	movw	r0, r6
     996:	09 08       	sbc	r0, r9
     998:	00 01       	movw	r0, r0
     99a:	03 01       	movw	r0, r6
     99c:	09 0e       	add	r0, r25
     99e:	00 01       	movw	r0, r0
     9a0:	03 01       	movw	r0, r6
     9a2:	09 0c       	add	r0, r9
     9a4:	00 01       	movw	r0, r0
     9a6:	03 06       	cpc	r0, r19
     9a8:	09 0a       	sbc	r0, r25
     9aa:	00 01       	movw	r0, r0
     9ac:	03 01       	movw	r0, r6
     9ae:	09 0c       	add	r0, r9
     9b0:	00 01       	movw	r0, r0
     9b2:	03 08       	sbc	r0, r3
     9b4:	09 02       	muls	r16, r25
     9b6:	00 01       	movw	r0, r0
     9b8:	03 09       	sbc	r16, r3
     9ba:	09 02       	muls	r16, r25
     9bc:	00 01       	movw	r0, r0
     9be:	03 6a       	ori	r16, 0xA3	; 163
     9c0:	09 04       	cpc	r0, r9
     9c2:	00 01       	movw	r0, r0
     9c4:	03 08       	sbc	r0, r3
     9c6:	09 0a       	sbc	r0, r25
     9c8:	00 01       	movw	r0, r0
     9ca:	03 01       	movw	r0, r6
     9cc:	09 0c       	add	r0, r9
     9ce:	00 01       	movw	r0, r0
     9d0:	03 0d       	add	r16, r3
     9d2:	09 04       	cpc	r0, r9
     9d4:	00 01       	movw	r0, r0
     9d6:	03 76       	andi	r16, 0x63	; 99
     9d8:	09 04       	cpc	r0, r9
     9da:	00 01       	movw	r0, r0
     9dc:	03 01       	movw	r0, r6
     9de:	09 0c       	add	r0, r9
     9e0:	00 01       	movw	r0, r0
     9e2:	03 4e       	sbci	r16, 0xE3	; 227
     9e4:	09 04       	cpc	r0, r9
     9e6:	00 01       	movw	r0, r0
     9e8:	03 01       	movw	r0, r6
     9ea:	09 0c       	add	r0, r9
     9ec:	00 01       	movw	r0, r0
     9ee:	03 01       	movw	r0, r6
     9f0:	09 08       	sbc	r0, r9
     9f2:	00 01       	movw	r0, r0
     9f4:	03 01       	movw	r0, r6
     9f6:	09 02       	muls	r16, r25
     9f8:	00 01       	movw	r0, r0
     9fa:	03 01       	movw	r0, r6
     9fc:	09 08       	sbc	r0, r9
     9fe:	00 01       	movw	r0, r0
     a00:	03 01       	movw	r0, r6
     a02:	09 04       	cpc	r0, r9
     a04:	00 01       	movw	r0, r0
     a06:	03 03       	mulsu	r16, r19
     a08:	09 02       	muls	r16, r25
     a0a:	00 01       	movw	r0, r0
     a0c:	03 03       	mulsu	r16, r19
     a0e:	09 02       	muls	r16, r25
     a10:	00 01       	movw	r0, r0
     a12:	03 02       	muls	r16, r19
     a14:	09 04       	cpc	r0, r9
     a16:	00 01       	movw	r0, r0
     a18:	03 7b       	andi	r16, 0xB3	; 179
     a1a:	09 0c       	add	r0, r9
     a1c:	00 01       	movw	r0, r0
     a1e:	09 04       	cpc	r0, r9
     a20:	00 00       	nop
     a22:	01 01       	movw	r0, r2
     a24:	04 0c       	add	r0, r4
     a26:	00 05       	cpc	r16, r0
     a28:	02 62       	ori	r16, 0x22	; 34
     a2a:	0b 00       	.word	0x000b	; ????
     a2c:	00 12       	cpse	r0, r16
     a2e:	04 01       	movw	r0, r8
     a30:	03 ee       	ldi	r16, 0xE3	; 227
     a32:	08 09       	sbc	r16, r8
     a34:	14 00       	.word	0x0014	; ????
     a36:	01 03       	mulsu	r16, r17
     a38:	03 09       	sbc	r16, r3
     a3a:	04 00       	.word	0x0004	; ????
     a3c:	01 03       	mulsu	r16, r17
     a3e:	15 09       	sbc	r17, r5
     a40:	02 00       	.word	0x0002	; ????
     a42:	01 03       	mulsu	r16, r17
     a44:	07 09       	sbc	r16, r7
     a46:	02 00       	.word	0x0002	; ????
     a48:	01 03       	mulsu	r16, r17
     a4a:	bb 7e       	andi	r27, 0xEB	; 235
     a4c:	09 06       	cpc	r0, r25
     a4e:	00 01       	movw	r0, r0
     a50:	03 01       	movw	r0, r6
     a52:	09 04       	cpc	r0, r9
     a54:	00 01       	movw	r0, r0
     a56:	03 f1       	brvs	.+64     	; 0xa98 <__vector_16+0xdc>
     a58:	01 09       	sbc	r16, r1
     a5a:	02 00       	.word	0x0002	; ????
     a5c:	01 04       	cpc	r0, r1
     a5e:	05 03       	mulsu	r16, r21
     a60:	a0 77       	andi	r26, 0x70	; 112
     a62:	09 04       	cpc	r0, r9
     a64:	00 01       	movw	r0, r0
     a66:	04 0d       	add	r16, r4
     a68:	03 82       	std	Z+3, r0	; 0x03
     a6a:	02 09       	sbc	r16, r2
     a6c:	02 00       	.word	0x0002	; ????
     a6e:	01 04       	cpc	r0, r1
     a70:	03 03       	mulsu	r16, r19
     a72:	f7 7d       	andi	r31, 0xD7	; 215
     a74:	09 08       	sbc	r0, r9
     a76:	00 01       	movw	r0, r0
     a78:	04 04       	cpc	r0, r4
     a7a:	03 e0       	ldi	r16, 0x03	; 3
     a7c:	00 09       	sbc	r16, r0
     a7e:	08 00       	.word	0x0008	; ????
     a80:	01 03       	mulsu	r16, r17
     a82:	08 09       	sbc	r16, r8
     a84:	0e 00       	.word	0x000e	; ????
     a86:	01 04       	cpc	r0, r1
     a88:	03 03       	mulsu	r16, r19
     a8a:	98 7f       	andi	r25, 0xF8	; 248
     a8c:	09 0c       	add	r0, r9
     a8e:	00 01       	movw	r0, r0
     a90:	03 01       	movw	r0, r6
     a92:	09 0c       	add	r0, r9
     a94:	00 01       	movw	r0, r0
     a96:	03 01       	movw	r0, r6
     a98:	09 08       	sbc	r0, r9
     a9a:	00 01       	movw	r0, r0
     a9c:	03 01       	movw	r0, r6
     a9e:	09 18       	sub	r0, r9
     aa0:	00 01       	movw	r0, r0
     aa2:	03 01       	movw	r0, r6
     aa4:	09 14       	cp	r0, r9
     aa6:	00 01       	movw	r0, r0
     aa8:	04 09       	sbc	r16, r4
     aaa:	03 bb       	out	0x13, r16	; 19
     aac:	7f 09       	sbc	r23, r15
     aae:	0c 00       	.word	0x000c	; ????
     ab0:	01 04       	cpc	r0, r1
     ab2:	0d 03       	fmul	r16, r21
     ab4:	ec 00       	.word	0x00ec	; ????
     ab6:	09 08       	sbc	r0, r9
     ab8:	00 01       	movw	r0, r0
     aba:	03 de       	rcall	.-1018   	; 0x6c2 <L_3674+0x18>
     abc:	01 09       	sbc	r16, r1
     abe:	0c 00       	.word	0x000c	; ????
     ac0:	01 04       	cpc	r0, r1
     ac2:	0a 03       	fmul	r16, r18
     ac4:	b6 7d       	andi	r27, 0xD6	; 214
     ac6:	09 06       	cpc	r0, r25
     ac8:	00 01       	movw	r0, r0
     aca:	04 03       	mulsu	r16, r20
     acc:	03 81       	ldd	r16, Z+3	; 0x03
     ace:	01 09       	sbc	r16, r1
     ad0:	02 00       	.word	0x0002	; ????
     ad2:	01 03       	mulsu	r16, r17
     ad4:	01 09       	sbc	r16, r1
     ad6:	0c 00       	.word	0x000c	; ????
     ad8:	01 04       	cpc	r0, r1
     ada:	02 03       	mulsu	r16, r18
     adc:	da 00       	.word	0x00da	; ????
     ade:	09 0c       	add	r0, r9
     ae0:	00 01       	movw	r0, r0
     ae2:	04 07       	cpc	r16, r20
     ae4:	03 b8       	out	0x03, r0	; 3
     ae6:	7f 09       	sbc	r23, r15
     ae8:	34 00       	.word	0x0034	; ????
     aea:	01 03       	mulsu	r16, r17
     aec:	01 09       	sbc	r16, r1
     aee:	04 00       	.word	0x0004	; ????
     af0:	01 03       	mulsu	r16, r17
     af2:	01 09       	sbc	r16, r1
     af4:	04 00       	.word	0x0004	; ????
     af6:	01 03       	mulsu	r16, r17
     af8:	01 09       	sbc	r16, r1
     afa:	04 00       	.word	0x0004	; ????
     afc:	01 03       	mulsu	r16, r17
     afe:	01 09       	sbc	r16, r1
     b00:	04 00       	.word	0x0004	; ????
     b02:	01 03       	mulsu	r16, r17
     b04:	01 09       	sbc	r16, r1
     b06:	04 00       	.word	0x0004	; ????
     b08:	01 03       	mulsu	r16, r17
     b0a:	05 09       	sbc	r16, r5
     b0c:	04 00       	.word	0x0004	; ????
     b0e:	01 03       	mulsu	r16, r17
     b10:	01 09       	sbc	r16, r1
     b12:	06 00       	.word	0x0006	; ????
     b14:	01 03       	mulsu	r16, r17
     b16:	01 09       	sbc	r16, r1
     b18:	06 00       	.word	0x0006	; ????
     b1a:	01 03       	mulsu	r16, r17
     b1c:	01 09       	sbc	r16, r1
     b1e:	02 00       	.word	0x0002	; ????
     b20:	01 03       	mulsu	r16, r17
     b22:	01 09       	sbc	r16, r1
     b24:	02 00       	.word	0x0002	; ????
     b26:	01 03       	mulsu	r16, r17
     b28:	01 09       	sbc	r16, r1
     b2a:	02 00       	.word	0x0002	; ????
     b2c:	01 03       	mulsu	r16, r17
     b2e:	02 09       	sbc	r16, r2
     b30:	04 00       	.word	0x0004	; ????
     b32:	01 04       	cpc	r0, r1
     b34:	0e 03       	fmul	r16, r22
     b36:	83 7f       	andi	r24, 0xF3	; 243
     b38:	09 04       	cpc	r0, r9
     b3a:	00 01       	movw	r0, r0
     b3c:	03 04       	cpc	r0, r3
     b3e:	09 0c       	add	r0, r9
     b40:	00 01       	movw	r0, r0
     b42:	04 05       	cpc	r16, r4
     b44:	03 24       	eor	r0, r3
     b46:	09 0c       	add	r0, r9
     b48:	00 01       	movw	r0, r0
     b4a:	03 01       	movw	r0, r6
     b4c:	09 10       	cpse	r0, r9
     b4e:	00 01       	movw	r0, r0
     b50:	03 82       	std	Z+3, r0	; 0x03
     b52:	01 09       	sbc	r16, r1
     b54:	0a 00       	.word	0x000a	; ????
     b56:	01 03       	mulsu	r16, r17
     b58:	d6 7e       	andi	r29, 0xE6	; 230
     b5a:	09 06       	cpc	r0, r25
     b5c:	00 01       	movw	r0, r0
     b5e:	03 db       	rcall	.-2554   	; 0x166 <CFastLED::show(unsigned char) [clone .constprop.18]+0xaa>
     b60:	00 09       	sbc	r16, r0
     b62:	12 00       	.word	0x0012	; ????
     b64:	01 04       	cpc	r0, r1
     b66:	07 03       	mulsu	r16, r23
     b68:	2b 09       	sbc	r18, r11
     b6a:	04 00       	.word	0x0004	; ????
     b6c:	01 03       	mulsu	r16, r17
     b6e:	01 09       	sbc	r16, r1
     b70:	08 00       	.word	0x0008	; ????
     b72:	01 03       	mulsu	r16, r17
     b74:	01 09       	sbc	r16, r1
     b76:	0c 00       	.word	0x000c	; ????
     b78:	01 03       	mulsu	r16, r17
     b7a:	01 09       	sbc	r16, r1
     b7c:	0c 00       	.word	0x000c	; ????
     b7e:	01 04       	cpc	r0, r1
     b80:	05 03       	mulsu	r16, r21
     b82:	54 09       	sbc	r21, r4
     b84:	0a 00       	.word	0x000a	; ????
     b86:	01 04       	cpc	r0, r1
     b88:	0e 03       	fmul	r16, r22
     b8a:	9e 7f       	andi	r25, 0xFE	; 254
     b8c:	09 0c       	add	r0, r9
     b8e:	00 01       	movw	r0, r0
     b90:	04 07       	cpc	r16, r20
     b92:	03 9b       	sbis	0x00, 3	; 0
     b94:	01 09       	sbc	r16, r1
     b96:	06 00       	.word	0x0006	; ????
     b98:	01 04       	cpc	r0, r1
     b9a:	05 03       	mulsu	r16, r21
     b9c:	b8 7f       	andi	r27, 0xF8	; 248
     b9e:	09 0a       	sbc	r0, r25
     ba0:	00 01       	movw	r0, r0
     ba2:	04 0e       	add	r0, r20
     ba4:	03 ad       	ldd	r16, Z+59	; 0x3b
     ba6:	7f 09       	sbc	r23, r15
     ba8:	04 00       	.word	0x0004	; ????
     baa:	01 04       	cpc	r0, r1
     bac:	05 03       	mulsu	r16, r21
     bae:	d5 00       	.word	0x00d5	; ????
     bb0:	09 02       	muls	r16, r25
     bb2:	00 01       	movw	r0, r0
     bb4:	03 42       	sbci	r16, 0x23	; 35
     bb6:	09 12       	cpse	r0, r25
     bb8:	00 01       	movw	r0, r0
     bba:	03 f2       	brvs	.-128    	; 0xb3c <__vector_15+0x14>
     bbc:	00 09       	sbc	r16, r0
     bbe:	10 00       	.word	0x0010	; ????
     bc0:	01 03       	mulsu	r16, r17
     bc2:	05 09       	sbc	r16, r5
     bc4:	06 00       	.word	0x0006	; ????
     bc6:	01 03       	mulsu	r16, r17
     bc8:	01 09       	sbc	r16, r1
     bca:	02 00       	.word	0x0002	; ????
     bcc:	01 03       	mulsu	r16, r17
     bce:	01 09       	sbc	r16, r1
     bd0:	02 00       	.word	0x0002	; ????
     bd2:	01 03       	mulsu	r16, r17
     bd4:	05 09       	sbc	r16, r5
     bd6:	02 00       	.word	0x0002	; ????
     bd8:	01 03       	mulsu	r16, r17
     bda:	01 09       	sbc	r16, r1
     bdc:	08 00       	.word	0x0008	; ????
     bde:	01 03       	mulsu	r16, r17
     be0:	02 09       	sbc	r16, r2
     be2:	04 00       	.word	0x0004	; ????
     be4:	01 03       	mulsu	r16, r17
     be6:	7a 09       	sbc	r23, r10
     be8:	14 00       	.word	0x0014	; ????
     bea:	01 03       	mulsu	r16, r17
     bec:	34 09       	sbc	r19, r4
     bee:	06 00       	.word	0x0006	; ????
     bf0:	01 04       	cpc	r0, r1
     bf2:	0d 03       	fmul	r16, r21
     bf4:	bd 02       	muls	r27, r29
     bf6:	09 0c       	add	r0, r9
     bf8:	00 01       	movw	r0, r0
     bfa:	04 05       	cpc	r16, r4
     bfc:	03 ea       	ldi	r16, 0xA3	; 163
     bfe:	7c 09       	sbc	r23, r12
     c00:	08 00       	.word	0x0008	; ????
     c02:	01 03       	mulsu	r16, r17
     c04:	06 09       	sbc	r16, r6
     c06:	0c 00       	.word	0x000c	; ????
     c08:	01 03       	mulsu	r16, r17
     c0a:	01 09       	sbc	r16, r1
     c0c:	02 00       	.word	0x0002	; ????
     c0e:	01 03       	mulsu	r16, r17
     c10:	01 09       	sbc	r16, r1
     c12:	02 00       	.word	0x0002	; ????
     c14:	01 03       	mulsu	r16, r17
     c16:	03 09       	sbc	r16, r3
     c18:	04 00       	.word	0x0004	; ????
     c1a:	01 03       	mulsu	r16, r17
     c1c:	07 09       	sbc	r16, r7
     c1e:	02 00       	.word	0x0002	; ????
     c20:	01 03       	mulsu	r16, r17
     c22:	79 09       	sbc	r23, r9
     c24:	0e 00       	.word	0x000e	; ????
     c26:	01 03       	mulsu	r16, r17
     c28:	78 09       	sbc	r23, r8
     c2a:	0c 00       	.word	0x000c	; ????
     c2c:	01 03       	mulsu	r16, r17
     c2e:	31 09       	sbc	r19, r1
     c30:	08 00       	.word	0x0008	; ????
     c32:	01 03       	mulsu	r16, r17
     c34:	07 09       	sbc	r16, r7
     c36:	04 00       	.word	0x0004	; ????
     c38:	01 03       	mulsu	r16, r17
     c3a:	b2 7f       	andi	r27, 0xF2	; 242
     c3c:	09 0c       	add	r0, r9
     c3e:	00 01       	movw	r0, r0
     c40:	03 08       	sbc	r0, r3
     c42:	09 0a       	sbc	r0, r25
     c44:	00 01       	movw	r0, r0
     c46:	03 01       	movw	r0, r6
     c48:	09 08       	sbc	r0, r9
     c4a:	00 01       	movw	r0, r0
     c4c:	03 c8       	rjmp	.-4090   	; 0xfffffc54 <__eeprom_end+0xff7efc54>
     c4e:	00 09       	sbc	r16, r0
     c50:	04 00       	.word	0x0004	; ????
     c52:	01 03       	mulsu	r16, r17
     c54:	04 09       	sbc	r16, r4
     c56:	0a 00       	.word	0x000a	; ????
     c58:	01 04       	cpc	r0, r1
     c5a:	02 03       	mulsu	r16, r18
     c5c:	18 09       	sbc	r17, r8
     c5e:	0a 00       	.word	0x000a	; ????
     c60:	01 03       	mulsu	r16, r17
     c62:	a3 7e       	andi	r26, 0xE3	; 227
     c64:	09 00       	.word	0x0009	; ????
     c66:	00 01       	movw	r0, r0
     c68:	03 01       	movw	r0, r6
     c6a:	09 08       	sbc	r0, r9
     c6c:	00 01       	movw	r0, r0
     c6e:	03 01       	movw	r0, r6
     c70:	09 04       	cpc	r0, r9
     c72:	00 01       	movw	r0, r0
     c74:	03 01       	movw	r0, r6
     c76:	09 04       	cpc	r0, r9
     c78:	00 01       	movw	r0, r0
     c7a:	03 da       	rcall	.-3066   	; 0x82 <micros+0x12>
     c7c:	01 09       	sbc	r16, r1
     c7e:	0e 00       	.word	0x000e	; ????
     c80:	01 09       	sbc	r16, r1
     c82:	02 00       	.word	0x0002	; ????
     c84:	00 01       	movw	r0, r0
     c86:	01 5e       	subi	r16, 0xE1	; 225
     c88:	00 00       	nop
     c8a:	00 02       	muls	r16, r16
     c8c:	00 41       	sbci	r16, 0x10	; 16
     c8e:	00 00       	nop
     c90:	00 02       	muls	r16, r16
     c92:	01 fb       	bst	r16, 1
     c94:	0e 0a       	sbc	r0, r30
     c96:	00 01       	movw	r0, r0
     c98:	01 01       	movw	r0, r2
     c9a:	01 00       	.word	0x0001	; ????
     c9c:	00 00       	nop
     c9e:	01 2e       	mov	r0, r17
     ca0:	2e 2f       	mov	r18, r30
     ca2:	2e 2e       	mov	r2, r30
     ca4:	2f 2e       	mov	r2, r31
     ca6:	2e 2f       	mov	r18, r30
     ca8:	2e 2e       	mov	r2, r30
     caa:	2f 67       	ori	r18, 0x7F	; 127
     cac:	63 63       	ori	r22, 0x33	; 51
     cae:	2f 6c       	ori	r18, 0xCF	; 207
     cb0:	69 62       	ori	r22, 0x29	; 41
     cb2:	67 63       	ori	r22, 0x37	; 55
     cb4:	63 2f       	mov	r22, r19
     cb6:	63 6f       	ori	r22, 0xF3	; 243
     cb8:	6e 66       	ori	r22, 0x6E	; 110
     cba:	69 67       	ori	r22, 0x79	; 121
     cbc:	2f 61       	ori	r18, 0x1F	; 31
     cbe:	76 72       	andi	r23, 0x26	; 38
     cc0:	00 00       	nop
     cc2:	6c 69       	ori	r22, 0x9C	; 156
     cc4:	62 31       	cpi	r22, 0x12	; 18
     cc6:	66 75       	andi	r22, 0x56	; 86
     cc8:	6e 63       	ori	r22, 0x3E	; 62
     cca:	73 2e       	mov	r7, r19
     ccc:	53 00       	.word	0x0053	; ????
     cce:	01 00       	.word	0x0001	; ????
     cd0:	00 00       	nop
     cd2:	00 05       	cpc	r16, r0
     cd4:	02 40       	sbci	r16, 0x02	; 2
     cd6:	0f 00       	.word	0x000f	; ????
     cd8:	00 03       	mulsu	r16, r16
     cda:	e5 11       	cpse	r30, r5
     cdc:	01 03       	mulsu	r16, r17
     cde:	02 09       	sbc	r16, r2
     ce0:	02 00       	.word	0x0002	; ????
     ce2:	01 09       	sbc	r16, r1
     ce4:	02 00       	.word	0x0002	; ????
     ce6:	00 01       	movw	r0, r0
     ce8:	01 88       	ldd	r0, Z+17	; 0x11
     cea:	00 00       	nop
     cec:	00 02       	muls	r16, r16
     cee:	00 41       	sbci	r16, 0x10	; 16
     cf0:	00 00       	nop
     cf2:	00 02       	muls	r16, r16
     cf4:	01 fb       	bst	r16, 1
     cf6:	0e 0a       	sbc	r0, r30
     cf8:	00 01       	movw	r0, r0
     cfa:	01 01       	movw	r0, r2
     cfc:	01 00       	.word	0x0001	; ????
     cfe:	00 00       	nop
     d00:	01 2e       	mov	r0, r17
     d02:	2e 2f       	mov	r18, r30
     d04:	2e 2e       	mov	r2, r30
     d06:	2f 2e       	mov	r2, r31
     d08:	2e 2f       	mov	r18, r30
     d0a:	2e 2e       	mov	r2, r30
     d0c:	2f 67       	ori	r18, 0x7F	; 127
     d0e:	63 63       	ori	r22, 0x33	; 51
     d10:	2f 6c       	ori	r18, 0xCF	; 207
     d12:	69 62       	ori	r22, 0x29	; 41
     d14:	67 63       	ori	r22, 0x37	; 55
     d16:	63 2f       	mov	r22, r19
     d18:	63 6f       	ori	r22, 0xF3	; 243
     d1a:	6e 66       	ori	r22, 0x6E	; 110
     d1c:	69 67       	ori	r22, 0x79	; 121
     d1e:	2f 61       	ori	r18, 0x1F	; 31
     d20:	76 72       	andi	r23, 0x26	; 38
     d22:	00 00       	nop
     d24:	6c 69       	ori	r22, 0x9C	; 156
     d26:	62 31       	cpi	r22, 0x12	; 18
     d28:	66 75       	andi	r22, 0x56	; 86
     d2a:	6e 63       	ori	r22, 0x3E	; 62
     d2c:	73 2e       	mov	r7, r19
     d2e:	53 00       	.word	0x0053	; ????
     d30:	01 00       	.word	0x0001	; ????
     d32:	00 00       	nop
     d34:	00 05       	cpc	r16, r0
     d36:	02 34       	cpi	r16, 0x42	; 66
     d38:	0e 00       	.word	0x000e	; ????
     d3a:	00 03       	mulsu	r16, r16
     d3c:	df 01       	movw	r26, r30
     d3e:	01 03       	mulsu	r16, r17
     d40:	02 09       	sbc	r16, r2
     d42:	02 00       	.word	0x0002	; ????
     d44:	01 03       	mulsu	r16, r17
     d46:	01 09       	sbc	r16, r1
     d48:	02 00       	.word	0x0002	; ????
     d4a:	01 03       	mulsu	r16, r17
     d4c:	01 09       	sbc	r16, r1
     d4e:	02 00       	.word	0x0002	; ????
     d50:	01 03       	mulsu	r16, r17
     d52:	01 09       	sbc	r16, r1
     d54:	02 00       	.word	0x0002	; ????
     d56:	01 03       	mulsu	r16, r17
     d58:	01 09       	sbc	r16, r1
     d5a:	02 00       	.word	0x0002	; ????
     d5c:	01 03       	mulsu	r16, r17
     d5e:	01 09       	sbc	r16, r1
     d60:	02 00       	.word	0x0002	; ????
     d62:	01 03       	mulsu	r16, r17
     d64:	02 09       	sbc	r16, r2
     d66:	02 00       	.word	0x0002	; ????
     d68:	01 03       	mulsu	r16, r17
     d6a:	01 09       	sbc	r16, r1
     d6c:	02 00       	.word	0x0002	; ????
     d6e:	01 09       	sbc	r16, r1
     d70:	02 00       	.word	0x0002	; ????
     d72:	00 01       	movw	r0, r0
     d74:	01 b8       	out	0x01, r0	; 1
     d76:	00 00       	nop
     d78:	00 02       	muls	r16, r16
     d7a:	00 41       	sbci	r16, 0x10	; 16
     d7c:	00 00       	nop
     d7e:	00 02       	muls	r16, r16
     d80:	01 fb       	bst	r16, 1
     d82:	0e 0a       	sbc	r0, r30
     d84:	00 01       	movw	r0, r0
     d86:	01 01       	movw	r0, r2
     d88:	01 00       	.word	0x0001	; ????
     d8a:	00 00       	nop
     d8c:	01 2e       	mov	r0, r17
     d8e:	2e 2f       	mov	r18, r30
     d90:	2e 2e       	mov	r2, r30
     d92:	2f 2e       	mov	r2, r31
     d94:	2e 2f       	mov	r18, r30
     d96:	2e 2e       	mov	r2, r30
     d98:	2f 67       	ori	r18, 0x7F	; 127
     d9a:	63 63       	ori	r22, 0x33	; 51
     d9c:	2f 6c       	ori	r18, 0xCF	; 207
     d9e:	69 62       	ori	r22, 0x29	; 41
     da0:	67 63       	ori	r22, 0x37	; 55
     da2:	63 2f       	mov	r22, r19
     da4:	63 6f       	ori	r22, 0xF3	; 243
     da6:	6e 66       	ori	r22, 0x6E	; 110
     da8:	69 67       	ori	r22, 0x79	; 121
     daa:	2f 61       	ori	r18, 0x1F	; 31
     dac:	76 72       	andi	r23, 0x26	; 38
     dae:	00 00       	nop
     db0:	6c 69       	ori	r22, 0x9C	; 156
     db2:	62 31       	cpi	r22, 0x12	; 18
     db4:	66 75       	andi	r22, 0x56	; 86
     db6:	6e 63       	ori	r22, 0x3E	; 62
     db8:	73 2e       	mov	r7, r19
     dba:	53 00       	.word	0x0053	; ????
     dbc:	01 00       	.word	0x0001	; ????
     dbe:	00 00       	nop
     dc0:	00 05       	cpc	r16, r0
     dc2:	02 46       	sbci	r16, 0x62	; 98
     dc4:	0e 00       	.word	0x000e	; ????
     dc6:	00 03       	mulsu	r16, r16
     dc8:	b7 02       	muls	r27, r23
     dca:	01 03       	mulsu	r16, r17
     dcc:	01 09       	sbc	r16, r1
     dce:	02 00       	.word	0x0002	; ????
     dd0:	01 03       	mulsu	r16, r17
     dd2:	01 09       	sbc	r16, r1
     dd4:	02 00       	.word	0x0002	; ????
     dd6:	01 03       	mulsu	r16, r17
     dd8:	03 09       	sbc	r16, r3
     dda:	02 00       	.word	0x0002	; ????
     ddc:	01 03       	mulsu	r16, r17
     dde:	01 09       	sbc	r16, r1
     de0:	02 00       	.word	0x0002	; ????
     de2:	01 03       	mulsu	r16, r17
     de4:	02 09       	sbc	r16, r2
     de6:	02 00       	.word	0x0002	; ????
     de8:	01 03       	mulsu	r16, r17
     dea:	01 09       	sbc	r16, r1
     dec:	02 00       	.word	0x0002	; ????
     dee:	01 03       	mulsu	r16, r17
     df0:	03 09       	sbc	r16, r3
     df2:	02 00       	.word	0x0002	; ????
     df4:	01 03       	mulsu	r16, r17
     df6:	01 09       	sbc	r16, r1
     df8:	02 00       	.word	0x0002	; ????
     dfa:	01 03       	mulsu	r16, r17
     dfc:	03 09       	sbc	r16, r3
     dfe:	02 00       	.word	0x0002	; ????
     e00:	01 03       	mulsu	r16, r17
     e02:	01 09       	sbc	r16, r1
     e04:	02 00       	.word	0x0002	; ????
     e06:	01 03       	mulsu	r16, r17
     e08:	02 09       	sbc	r16, r2
     e0a:	02 00       	.word	0x0002	; ????
     e0c:	01 03       	mulsu	r16, r17
     e0e:	04 09       	sbc	r16, r4
     e10:	02 00       	.word	0x0002	; ????
     e12:	01 03       	mulsu	r16, r17
     e14:	02 09       	sbc	r16, r2
     e16:	02 00       	.word	0x0002	; ????
     e18:	01 03       	mulsu	r16, r17
     e1a:	03 09       	sbc	r16, r3
     e1c:	02 00       	.word	0x0002	; ????
     e1e:	01 03       	mulsu	r16, r17
     e20:	01 09       	sbc	r16, r1
     e22:	02 00       	.word	0x0002	; ????
     e24:	01 03       	mulsu	r16, r17
     e26:	01 09       	sbc	r16, r1
     e28:	02 00       	.word	0x0002	; ????
     e2a:	01 09       	sbc	r16, r1
     e2c:	02 00       	.word	0x0002	; ????
     e2e:	00 01       	movw	r0, r0
     e30:	01 b2       	in	r0, 0x11	; 17
     e32:	00 00       	nop
     e34:	00 02       	muls	r16, r16
     e36:	00 41       	sbci	r16, 0x10	; 16
     e38:	00 00       	nop
     e3a:	00 02       	muls	r16, r16
     e3c:	01 fb       	bst	r16, 1
     e3e:	0e 0a       	sbc	r0, r30
     e40:	00 01       	movw	r0, r0
     e42:	01 01       	movw	r0, r2
     e44:	01 00       	.word	0x0001	; ????
     e46:	00 00       	nop
     e48:	01 2e       	mov	r0, r17
     e4a:	2e 2f       	mov	r18, r30
     e4c:	2e 2e       	mov	r2, r30
     e4e:	2f 2e       	mov	r2, r31
     e50:	2e 2f       	mov	r18, r30
     e52:	2e 2e       	mov	r2, r30
     e54:	2f 67       	ori	r18, 0x7F	; 127
     e56:	63 63       	ori	r22, 0x33	; 51
     e58:	2f 6c       	ori	r18, 0xCF	; 207
     e5a:	69 62       	ori	r22, 0x29	; 41
     e5c:	67 63       	ori	r22, 0x37	; 55
     e5e:	63 2f       	mov	r22, r19
     e60:	63 6f       	ori	r22, 0xF3	; 243
     e62:	6e 66       	ori	r22, 0x6E	; 110
     e64:	69 67       	ori	r22, 0x79	; 121
     e66:	2f 61       	ori	r18, 0x1F	; 31
     e68:	76 72       	andi	r23, 0x26	; 38
     e6a:	00 00       	nop
     e6c:	6c 69       	ori	r22, 0x9C	; 156
     e6e:	62 31       	cpi	r22, 0x12	; 18
     e70:	66 75       	andi	r22, 0x56	; 86
     e72:	6e 63       	ori	r22, 0x3E	; 62
     e74:	73 2e       	mov	r7, r19
     e76:	53 00       	.word	0x0053	; ????
     e78:	01 00       	.word	0x0001	; ????
     e7a:	00 00       	nop
     e7c:	00 05       	cpc	r16, r0
     e7e:	02 68       	ori	r16, 0x82	; 130
     e80:	0e 00       	.word	0x000e	; ????
     e82:	00 03       	mulsu	r16, r16
     e84:	bc 03       	fmulsu	r19, r20
     e86:	01 03       	mulsu	r16, r17
     e88:	01 09       	sbc	r16, r1
     e8a:	02 00       	.word	0x0002	; ????
     e8c:	01 03       	mulsu	r16, r17
     e8e:	05 09       	sbc	r16, r5
     e90:	02 00       	.word	0x0002	; ????
     e92:	01 03       	mulsu	r16, r17
     e94:	01 09       	sbc	r16, r1
     e96:	02 00       	.word	0x0002	; ????
     e98:	01 03       	mulsu	r16, r17
     e9a:	01 09       	sbc	r16, r1
     e9c:	02 00       	.word	0x0002	; ????
     e9e:	01 03       	mulsu	r16, r17
     ea0:	04 09       	sbc	r16, r4
     ea2:	02 00       	.word	0x0002	; ????
     ea4:	01 03       	mulsu	r16, r17
     ea6:	03 09       	sbc	r16, r3
     ea8:	08 00       	.word	0x0008	; ????
     eaa:	01 03       	mulsu	r16, r17
     eac:	03 09       	sbc	r16, r3
     eae:	08 00       	.word	0x0008	; ????
     eb0:	01 03       	mulsu	r16, r17
     eb2:	02 09       	sbc	r16, r2
     eb4:	08 00       	.word	0x0008	; ????
     eb6:	01 03       	mulsu	r16, r17
     eb8:	02 09       	sbc	r16, r2
     eba:	02 00       	.word	0x0002	; ????
     ebc:	01 03       	mulsu	r16, r17
     ebe:	01 09       	sbc	r16, r1
     ec0:	02 00       	.word	0x0002	; ????
     ec2:	01 03       	mulsu	r16, r17
     ec4:	01 09       	sbc	r16, r1
     ec6:	02 00       	.word	0x0002	; ????
     ec8:	01 03       	mulsu	r16, r17
     eca:	01 09       	sbc	r16, r1
     ecc:	02 00       	.word	0x0002	; ????
     ece:	01 03       	mulsu	r16, r17
     ed0:	03 09       	sbc	r16, r3
     ed2:	02 00       	.word	0x0002	; ????
     ed4:	01 03       	mulsu	r16, r17
     ed6:	01 09       	sbc	r16, r1
     ed8:	02 00       	.word	0x0002	; ????
     eda:	01 03       	mulsu	r16, r17
     edc:	06 09       	sbc	r16, r6
     ede:	02 00       	.word	0x0002	; ????
     ee0:	01 09       	sbc	r16, r1
     ee2:	02 00       	.word	0x0002	; ????
     ee4:	00 01       	movw	r0, r0
     ee6:	01 c4       	rjmp	.+2050   	; 0x16ea <__data_load_end+0x780>
     ee8:	00 00       	nop
     eea:	00 02       	muls	r16, r16
     eec:	00 41       	sbci	r16, 0x10	; 16
     eee:	00 00       	nop
     ef0:	00 02       	muls	r16, r16
     ef2:	01 fb       	bst	r16, 1
     ef4:	0e 0a       	sbc	r0, r30
     ef6:	00 01       	movw	r0, r0
     ef8:	01 01       	movw	r0, r2
     efa:	01 00       	.word	0x0001	; ????
     efc:	00 00       	nop
     efe:	01 2e       	mov	r0, r17
     f00:	2e 2f       	mov	r18, r30
     f02:	2e 2e       	mov	r2, r30
     f04:	2f 2e       	mov	r2, r31
     f06:	2e 2f       	mov	r18, r30
     f08:	2e 2e       	mov	r2, r30
     f0a:	2f 67       	ori	r18, 0x7F	; 127
     f0c:	63 63       	ori	r22, 0x33	; 51
     f0e:	2f 6c       	ori	r18, 0xCF	; 207
     f10:	69 62       	ori	r22, 0x29	; 41
     f12:	67 63       	ori	r22, 0x37	; 55
     f14:	63 2f       	mov	r22, r19
     f16:	63 6f       	ori	r22, 0xF3	; 243
     f18:	6e 66       	ori	r22, 0x6E	; 110
     f1a:	69 67       	ori	r22, 0x79	; 121
     f1c:	2f 61       	ori	r18, 0x1F	; 31
     f1e:	76 72       	andi	r23, 0x26	; 38
     f20:	00 00       	nop
     f22:	6c 69       	ori	r22, 0x9C	; 156
     f24:	62 31       	cpi	r22, 0x12	; 18
     f26:	66 75       	andi	r22, 0x56	; 86
     f28:	6e 63       	ori	r22, 0x3E	; 62
     f2a:	73 2e       	mov	r7, r19
     f2c:	53 00       	.word	0x0053	; ????
     f2e:	01 00       	.word	0x0001	; ????
     f30:	00 00       	nop
     f32:	00 05       	cpc	r16, r0
     f34:	02 9a       	sbi	0x00, 2	; 0
     f36:	0e 00       	.word	0x000e	; ????
     f38:	00 03       	mulsu	r16, r16
     f3a:	9f 0b       	sbc	r25, r31
     f3c:	01 03       	mulsu	r16, r17
     f3e:	01 09       	sbc	r16, r1
     f40:	02 00       	.word	0x0002	; ????
     f42:	01 03       	mulsu	r16, r17
     f44:	01 09       	sbc	r16, r1
     f46:	02 00       	.word	0x0002	; ????
     f48:	01 03       	mulsu	r16, r17
     f4a:	01 09       	sbc	r16, r1
     f4c:	02 00       	.word	0x0002	; ????
     f4e:	01 03       	mulsu	r16, r17
     f50:	01 09       	sbc	r16, r1
     f52:	02 00       	.word	0x0002	; ????
     f54:	01 03       	mulsu	r16, r17
     f56:	02 09       	sbc	r16, r2
     f58:	02 00       	.word	0x0002	; ????
     f5a:	01 03       	mulsu	r16, r17
     f5c:	01 09       	sbc	r16, r1
     f5e:	02 00       	.word	0x0002	; ????
     f60:	01 03       	mulsu	r16, r17
     f62:	01 09       	sbc	r16, r1
     f64:	02 00       	.word	0x0002	; ????
     f66:	01 03       	mulsu	r16, r17
     f68:	01 09       	sbc	r16, r1
     f6a:	02 00       	.word	0x0002	; ????
     f6c:	01 03       	mulsu	r16, r17
     f6e:	01 09       	sbc	r16, r1
     f70:	02 00       	.word	0x0002	; ????
     f72:	01 03       	mulsu	r16, r17
     f74:	01 09       	sbc	r16, r1
     f76:	02 00       	.word	0x0002	; ????
     f78:	01 03       	mulsu	r16, r17
     f7a:	03 09       	sbc	r16, r3
     f7c:	02 00       	.word	0x0002	; ????
     f7e:	01 03       	mulsu	r16, r17
     f80:	01 09       	sbc	r16, r1
     f82:	02 00       	.word	0x0002	; ????
     f84:	01 03       	mulsu	r16, r17
     f86:	01 09       	sbc	r16, r1
     f88:	02 00       	.word	0x0002	; ????
     f8a:	01 03       	mulsu	r16, r17
     f8c:	01 09       	sbc	r16, r1
     f8e:	02 00       	.word	0x0002	; ????
     f90:	01 03       	mulsu	r16, r17
     f92:	03 09       	sbc	r16, r3
     f94:	02 00       	.word	0x0002	; ????
     f96:	01 03       	mulsu	r16, r17
     f98:	01 09       	sbc	r16, r1
     f9a:	02 00       	.word	0x0002	; ????
     f9c:	01 03       	mulsu	r16, r17
     f9e:	01 09       	sbc	r16, r1
     fa0:	02 00       	.word	0x0002	; ????
     fa2:	01 03       	mulsu	r16, r17
     fa4:	02 09       	sbc	r16, r2
     fa6:	02 00       	.word	0x0002	; ????
     fa8:	01 09       	sbc	r16, r1
     faa:	02 00       	.word	0x0002	; ????
     fac:	00 01       	movw	r0, r0
     fae:	01 1e       	adc	r0, r17
     fb0:	01 00       	.word	0x0001	; ????
     fb2:	00 02       	muls	r16, r16
     fb4:	00 41       	sbci	r16, 0x10	; 16
     fb6:	00 00       	nop
     fb8:	00 02       	muls	r16, r16
     fba:	01 fb       	bst	r16, 1
     fbc:	0e 0a       	sbc	r0, r30
     fbe:	00 01       	movw	r0, r0
     fc0:	01 01       	movw	r0, r2
     fc2:	01 00       	.word	0x0001	; ????
     fc4:	00 00       	nop
     fc6:	01 2e       	mov	r0, r17
     fc8:	2e 2f       	mov	r18, r30
     fca:	2e 2e       	mov	r2, r30
     fcc:	2f 2e       	mov	r2, r31
     fce:	2e 2f       	mov	r18, r30
     fd0:	2e 2e       	mov	r2, r30
     fd2:	2f 67       	ori	r18, 0x7F	; 127
     fd4:	63 63       	ori	r22, 0x33	; 51
     fd6:	2f 6c       	ori	r18, 0xCF	; 207
     fd8:	69 62       	ori	r22, 0x29	; 41
     fda:	67 63       	ori	r22, 0x37	; 55
     fdc:	63 2f       	mov	r22, r19
     fde:	63 6f       	ori	r22, 0xF3	; 243
     fe0:	6e 66       	ori	r22, 0x6E	; 110
     fe2:	69 67       	ori	r22, 0x79	; 121
     fe4:	2f 61       	ori	r18, 0x1F	; 31
     fe6:	76 72       	andi	r23, 0x26	; 38
     fe8:	00 00       	nop
     fea:	6c 69       	ori	r22, 0x9C	; 156
     fec:	62 31       	cpi	r22, 0x12	; 18
     fee:	66 75       	andi	r22, 0x56	; 86
     ff0:	6e 63       	ori	r22, 0x3E	; 62
     ff2:	73 2e       	mov	r7, r19
     ff4:	53 00       	.word	0x0053	; ????
     ff6:	01 00       	.word	0x0001	; ????
     ff8:	00 00       	nop
     ffa:	00 05       	cpc	r16, r0
     ffc:	02 c0       	rjmp	.+4      	; 0x1002 <__data_load_end+0x98>
     ffe:	0e 00       	.word	0x000e	; ????
    1000:	00 03       	mulsu	r16, r16
    1002:	e5 0c       	add	r14, r5
    1004:	01 03       	mulsu	r16, r17
    1006:	01 09       	sbc	r16, r1
    1008:	02 00       	.word	0x0002	; ????
    100a:	01 03       	mulsu	r16, r17
    100c:	01 09       	sbc	r16, r1
    100e:	02 00       	.word	0x0002	; ????
    1010:	01 03       	mulsu	r16, r17
    1012:	01 09       	sbc	r16, r1
    1014:	02 00       	.word	0x0002	; ????
    1016:	01 03       	mulsu	r16, r17
    1018:	01 09       	sbc	r16, r1
    101a:	02 00       	.word	0x0002	; ????
    101c:	01 03       	mulsu	r16, r17
    101e:	02 09       	sbc	r16, r2
    1020:	02 00       	.word	0x0002	; ????
    1022:	01 03       	mulsu	r16, r17
    1024:	02 09       	sbc	r16, r2
    1026:	02 00       	.word	0x0002	; ????
    1028:	01 03       	mulsu	r16, r17
    102a:	01 09       	sbc	r16, r1
    102c:	02 00       	.word	0x0002	; ????
    102e:	01 03       	mulsu	r16, r17
    1030:	01 09       	sbc	r16, r1
    1032:	02 00       	.word	0x0002	; ????
    1034:	01 03       	mulsu	r16, r17
    1036:	01 09       	sbc	r16, r1
    1038:	02 00       	.word	0x0002	; ????
    103a:	01 03       	mulsu	r16, r17
    103c:	01 09       	sbc	r16, r1
    103e:	02 00       	.word	0x0002	; ????
    1040:	01 03       	mulsu	r16, r17
    1042:	01 09       	sbc	r16, r1
    1044:	02 00       	.word	0x0002	; ????
    1046:	01 03       	mulsu	r16, r17
    1048:	01 09       	sbc	r16, r1
    104a:	02 00       	.word	0x0002	; ????
    104c:	01 03       	mulsu	r16, r17
    104e:	01 09       	sbc	r16, r1
    1050:	02 00       	.word	0x0002	; ????
    1052:	01 03       	mulsu	r16, r17
    1054:	01 09       	sbc	r16, r1
    1056:	02 00       	.word	0x0002	; ????
    1058:	01 03       	mulsu	r16, r17
    105a:	01 09       	sbc	r16, r1
    105c:	02 00       	.word	0x0002	; ????
    105e:	01 03       	mulsu	r16, r17
    1060:	01 09       	sbc	r16, r1
    1062:	02 00       	.word	0x0002	; ????
    1064:	01 03       	mulsu	r16, r17
    1066:	01 09       	sbc	r16, r1
    1068:	02 00       	.word	0x0002	; ????
    106a:	01 03       	mulsu	r16, r17
    106c:	01 09       	sbc	r16, r1
    106e:	02 00       	.word	0x0002	; ????
    1070:	01 03       	mulsu	r16, r17
    1072:	02 09       	sbc	r16, r2
    1074:	02 00       	.word	0x0002	; ????
    1076:	01 03       	mulsu	r16, r17
    1078:	01 09       	sbc	r16, r1
    107a:	02 00       	.word	0x0002	; ????
    107c:	01 03       	mulsu	r16, r17
    107e:	01 09       	sbc	r16, r1
    1080:	02 00       	.word	0x0002	; ????
    1082:	01 03       	mulsu	r16, r17
    1084:	01 09       	sbc	r16, r1
    1086:	02 00       	.word	0x0002	; ????
    1088:	01 03       	mulsu	r16, r17
    108a:	01 09       	sbc	r16, r1
    108c:	02 00       	.word	0x0002	; ????
    108e:	01 03       	mulsu	r16, r17
    1090:	01 09       	sbc	r16, r1
    1092:	02 00       	.word	0x0002	; ????
    1094:	01 03       	mulsu	r16, r17
    1096:	02 09       	sbc	r16, r2
    1098:	02 00       	.word	0x0002	; ????
    109a:	01 03       	mulsu	r16, r17
    109c:	01 09       	sbc	r16, r1
    109e:	02 00       	.word	0x0002	; ????
    10a0:	01 03       	mulsu	r16, r17
    10a2:	01 09       	sbc	r16, r1
    10a4:	02 00       	.word	0x0002	; ????
    10a6:	01 03       	mulsu	r16, r17
    10a8:	01 09       	sbc	r16, r1
    10aa:	02 00       	.word	0x0002	; ????
    10ac:	01 03       	mulsu	r16, r17
    10ae:	02 09       	sbc	r16, r2
    10b0:	02 00       	.word	0x0002	; ????
    10b2:	01 03       	mulsu	r16, r17
    10b4:	02 09       	sbc	r16, r2
    10b6:	02 00       	.word	0x0002	; ????
    10b8:	01 03       	mulsu	r16, r17
    10ba:	02 09       	sbc	r16, r2
    10bc:	02 00       	.word	0x0002	; ????
    10be:	01 03       	mulsu	r16, r17
    10c0:	02 09       	sbc	r16, r2
    10c2:	02 00       	.word	0x0002	; ????
    10c4:	01 03       	mulsu	r16, r17
    10c6:	02 09       	sbc	r16, r2
    10c8:	02 00       	.word	0x0002	; ????
    10ca:	01 09       	sbc	r16, r1
    10cc:	02 00       	.word	0x0002	; ????
    10ce:	00 01       	movw	r0, r0
    10d0:	01 94       	neg	r0
    10d2:	00 00       	nop
    10d4:	00 02       	muls	r16, r16
    10d6:	00 41       	sbci	r16, 0x10	; 16
    10d8:	00 00       	nop
    10da:	00 02       	muls	r16, r16
    10dc:	01 fb       	bst	r16, 1
    10de:	0e 0a       	sbc	r0, r30
    10e0:	00 01       	movw	r0, r0
    10e2:	01 01       	movw	r0, r2
    10e4:	01 00       	.word	0x0001	; ????
    10e6:	00 00       	nop
    10e8:	01 2e       	mov	r0, r17
    10ea:	2e 2f       	mov	r18, r30
    10ec:	2e 2e       	mov	r2, r30
    10ee:	2f 2e       	mov	r2, r31
    10f0:	2e 2f       	mov	r18, r30
    10f2:	2e 2e       	mov	r2, r30
    10f4:	2f 67       	ori	r18, 0x7F	; 127
    10f6:	63 63       	ori	r22, 0x33	; 51
    10f8:	2f 6c       	ori	r18, 0xCF	; 207
    10fa:	69 62       	ori	r22, 0x29	; 41
    10fc:	67 63       	ori	r22, 0x37	; 55
    10fe:	63 2f       	mov	r22, r19
    1100:	63 6f       	ori	r22, 0xF3	; 243
    1102:	6e 66       	ori	r22, 0x6E	; 110
    1104:	69 67       	ori	r22, 0x79	; 121
    1106:	2f 61       	ori	r18, 0x1F	; 31
    1108:	76 72       	andi	r23, 0x26	; 38
    110a:	00 00       	nop
    110c:	6c 69       	ori	r22, 0x9C	; 156
    110e:	62 31       	cpi	r22, 0x12	; 18
    1110:	66 75       	andi	r22, 0x56	; 86
    1112:	6e 63       	ori	r22, 0x3E	; 62
    1114:	73 2e       	mov	r7, r19
    1116:	53 00       	.word	0x0053	; ????
    1118:	01 00       	.word	0x0001	; ????
    111a:	00 00       	nop
    111c:	00 05       	cpc	r16, r0
    111e:	02 30       	cpi	r16, 0x02	; 2
    1120:	00 00       	nop
    1122:	00 03       	mulsu	r16, r16
    1124:	e8 12       	cpse	r14, r24
    1126:	01 03       	mulsu	r16, r17
    1128:	01 09       	sbc	r16, r1
    112a:	02 00       	.word	0x0002	; ????
    112c:	01 03       	mulsu	r16, r17
    112e:	01 09       	sbc	r16, r1
    1130:	02 00       	.word	0x0002	; ????
    1132:	01 03       	mulsu	r16, r17
    1134:	01 09       	sbc	r16, r1
    1136:	02 00       	.word	0x0002	; ????
    1138:	01 03       	mulsu	r16, r17
    113a:	01 09       	sbc	r16, r1
    113c:	02 00       	.word	0x0002	; ????
    113e:	01 03       	mulsu	r16, r17
    1140:	01 09       	sbc	r16, r1
    1142:	02 00       	.word	0x0002	; ????
    1144:	01 03       	mulsu	r16, r17
    1146:	03 09       	sbc	r16, r3
    1148:	02 00       	.word	0x0002	; ????
    114a:	01 03       	mulsu	r16, r17
    114c:	05 09       	sbc	r16, r5
    114e:	02 00       	.word	0x0002	; ????
    1150:	01 03       	mulsu	r16, r17
    1152:	02 09       	sbc	r16, r2
    1154:	02 00       	.word	0x0002	; ????
    1156:	01 03       	mulsu	r16, r17
    1158:	01 09       	sbc	r16, r1
    115a:	02 00       	.word	0x0002	; ????
    115c:	01 03       	mulsu	r16, r17
    115e:	01 09       	sbc	r16, r1
    1160:	02 00       	.word	0x0002	; ????
    1162:	01 09       	sbc	r16, r1
    1164:	02 00       	.word	0x0002	; ????
    1166:	00 01       	movw	r0, r0
    1168:	01 82       	std	Z+1, r0	; 0x01
    116a:	00 00       	nop
    116c:	00 02       	muls	r16, r16
    116e:	00 41       	sbci	r16, 0x10	; 16
    1170:	00 00       	nop
    1172:	00 02       	muls	r16, r16
    1174:	01 fb       	bst	r16, 1
    1176:	0e 0a       	sbc	r0, r30
    1178:	00 01       	movw	r0, r0
    117a:	01 01       	movw	r0, r2
    117c:	01 00       	.word	0x0001	; ????
    117e:	00 00       	nop
    1180:	01 2e       	mov	r0, r17
    1182:	2e 2f       	mov	r18, r30
    1184:	2e 2e       	mov	r2, r30
    1186:	2f 2e       	mov	r2, r31
    1188:	2e 2f       	mov	r18, r30
    118a:	2e 2e       	mov	r2, r30
    118c:	2f 67       	ori	r18, 0x7F	; 127
    118e:	63 63       	ori	r22, 0x33	; 51
    1190:	2f 6c       	ori	r18, 0xCF	; 207
    1192:	69 62       	ori	r22, 0x29	; 41
    1194:	67 63       	ori	r22, 0x37	; 55
    1196:	63 2f       	mov	r22, r19
    1198:	63 6f       	ori	r22, 0xF3	; 243
    119a:	6e 66       	ori	r22, 0x6E	; 110
    119c:	69 67       	ori	r22, 0x79	; 121
    119e:	2f 61       	ori	r18, 0x1F	; 31
    11a0:	76 72       	andi	r23, 0x26	; 38
    11a2:	00 00       	nop
    11a4:	6c 69       	ori	r22, 0x9C	; 156
    11a6:	62 31       	cpi	r22, 0x12	; 18
    11a8:	66 75       	andi	r22, 0x56	; 86
    11aa:	6e 63       	ori	r22, 0x3E	; 62
    11ac:	73 2e       	mov	r7, r19
    11ae:	53 00       	.word	0x0053	; ????
    11b0:	01 00       	.word	0x0001	; ????
    11b2:	00 00       	nop
    11b4:	00 05       	cpc	r16, r0
    11b6:	02 46       	sbci	r16, 0x62	; 98
    11b8:	00 00       	nop
    11ba:	00 03       	mulsu	r16, r16
    11bc:	88 13       	cpse	r24, r24
    11be:	01 03       	mulsu	r16, r17
    11c0:	01 09       	sbc	r16, r1
    11c2:	02 00       	.word	0x0002	; ????
    11c4:	01 03       	mulsu	r16, r17
    11c6:	01 09       	sbc	r16, r1
    11c8:	02 00       	.word	0x0002	; ????
    11ca:	01 03       	mulsu	r16, r17
    11cc:	01 09       	sbc	r16, r1
    11ce:	02 00       	.word	0x0002	; ????
    11d0:	01 03       	mulsu	r16, r17
    11d2:	02 09       	sbc	r16, r2
    11d4:	02 00       	.word	0x0002	; ????
    11d6:	01 03       	mulsu	r16, r17
    11d8:	02 09       	sbc	r16, r2
    11da:	02 00       	.word	0x0002	; ????
    11dc:	01 03       	mulsu	r16, r17
    11de:	01 09       	sbc	r16, r1
    11e0:	02 00       	.word	0x0002	; ????
    11e2:	01 03       	mulsu	r16, r17
    11e4:	01 09       	sbc	r16, r1
    11e6:	02 00       	.word	0x0002	; ????
    11e8:	01 09       	sbc	r16, r1
    11ea:	02 00       	.word	0x0002	; ????
    11ec:	00 01       	movw	r0, r0
    11ee:	01 8e       	std	Z+25, r0	; 0x19
    11f0:	00 00       	nop
    11f2:	00 02       	muls	r16, r16
    11f4:	00 41       	sbci	r16, 0x10	; 16
    11f6:	00 00       	nop
    11f8:	00 02       	muls	r16, r16
    11fa:	01 fb       	bst	r16, 1
    11fc:	0e 0a       	sbc	r0, r30
    11fe:	00 01       	movw	r0, r0
    1200:	01 01       	movw	r0, r2
    1202:	01 00       	.word	0x0001	; ????
    1204:	00 00       	nop
    1206:	01 2e       	mov	r0, r17
    1208:	2e 2f       	mov	r18, r30
    120a:	2e 2e       	mov	r2, r30
    120c:	2f 2e       	mov	r2, r31
    120e:	2e 2f       	mov	r18, r30
    1210:	2e 2e       	mov	r2, r30
    1212:	2f 67       	ori	r18, 0x7F	; 127
    1214:	63 63       	ori	r22, 0x33	; 51
    1216:	2f 6c       	ori	r18, 0xCF	; 207
    1218:	69 62       	ori	r22, 0x29	; 41
    121a:	67 63       	ori	r22, 0x37	; 55
    121c:	63 2f       	mov	r22, r19
    121e:	63 6f       	ori	r22, 0xF3	; 243
    1220:	6e 66       	ori	r22, 0x6E	; 110
    1222:	69 67       	ori	r22, 0x79	; 121
    1224:	2f 61       	ori	r18, 0x1F	; 31
    1226:	76 72       	andi	r23, 0x26	; 38
    1228:	00 00       	nop
    122a:	6c 69       	ori	r22, 0x9C	; 156
    122c:	62 31       	cpi	r22, 0x12	; 18
    122e:	66 75       	andi	r22, 0x56	; 86
    1230:	6e 63       	ori	r22, 0x3E	; 62
    1232:	73 2e       	mov	r7, r19
    1234:	53 00       	.word	0x0053	; ????
    1236:	01 00       	.word	0x0001	; ????
    1238:	00 00       	nop
    123a:	00 05       	cpc	r16, r0
    123c:	02 56       	subi	r16, 0x62	; 98
    123e:	00 00       	nop
    1240:	00 03       	mulsu	r16, r16
    1242:	a1 13       	cpse	r26, r17
    1244:	01 03       	mulsu	r16, r17
    1246:	01 09       	sbc	r16, r1
    1248:	02 00       	.word	0x0002	; ????
    124a:	01 03       	mulsu	r16, r17
    124c:	01 09       	sbc	r16, r1
    124e:	02 00       	.word	0x0002	; ????
    1250:	01 03       	mulsu	r16, r17
    1252:	04 09       	sbc	r16, r4
    1254:	02 00       	.word	0x0002	; ????
    1256:	01 03       	mulsu	r16, r17
    1258:	02 09       	sbc	r16, r2
    125a:	02 00       	.word	0x0002	; ????
    125c:	01 03       	mulsu	r16, r17
    125e:	06 09       	sbc	r16, r6
    1260:	02 00       	.word	0x0002	; ????
    1262:	01 03       	mulsu	r16, r17
    1264:	01 09       	sbc	r16, r1
    1266:	02 00       	.word	0x0002	; ????
    1268:	01 03       	mulsu	r16, r17
    126a:	02 09       	sbc	r16, r2
    126c:	02 00       	.word	0x0002	; ????
    126e:	01 03       	mulsu	r16, r17
    1270:	01 09       	sbc	r16, r1
    1272:	02 00       	.word	0x0002	; ????
    1274:	01 03       	mulsu	r16, r17
    1276:	05 09       	sbc	r16, r5
    1278:	02 00       	.word	0x0002	; ????
    127a:	01 09       	sbc	r16, r1
    127c:	02 00       	.word	0x0002	; ????
    127e:	00 01       	movw	r0, r0
    1280:	01 ca       	rjmp	.-3070   	; 0x684 <L_3028+0x5e>
    1282:	00 00       	nop
    1284:	00 02       	muls	r16, r16
    1286:	00 41       	sbci	r16, 0x10	; 16
    1288:	00 00       	nop
    128a:	00 02       	muls	r16, r16
    128c:	01 fb       	bst	r16, 1
    128e:	0e 0a       	sbc	r0, r30
    1290:	00 01       	movw	r0, r0
    1292:	01 01       	movw	r0, r2
    1294:	01 00       	.word	0x0001	; ????
    1296:	00 00       	nop
    1298:	01 2e       	mov	r0, r17
    129a:	2e 2f       	mov	r18, r30
    129c:	2e 2e       	mov	r2, r30
    129e:	2f 2e       	mov	r2, r31
    12a0:	2e 2f       	mov	r18, r30
    12a2:	2e 2e       	mov	r2, r30
    12a4:	2f 67       	ori	r18, 0x7F	; 127
    12a6:	63 63       	ori	r22, 0x33	; 51
    12a8:	2f 6c       	ori	r18, 0xCF	; 207
    12aa:	69 62       	ori	r22, 0x29	; 41
    12ac:	67 63       	ori	r22, 0x37	; 55
    12ae:	63 2f       	mov	r22, r19
    12b0:	63 6f       	ori	r22, 0xF3	; 243
    12b2:	6e 66       	ori	r22, 0x6E	; 110
    12b4:	69 67       	ori	r22, 0x79	; 121
    12b6:	2f 61       	ori	r18, 0x1F	; 31
    12b8:	76 72       	andi	r23, 0x26	; 38
    12ba:	00 00       	nop
    12bc:	6c 69       	ori	r22, 0x9C	; 156
    12be:	62 31       	cpi	r22, 0x12	; 18
    12c0:	66 75       	andi	r22, 0x56	; 86
    12c2:	6e 63       	ori	r22, 0x3E	; 62
    12c4:	73 2e       	mov	r7, r19
    12c6:	53 00       	.word	0x0053	; ????
    12c8:	01 00       	.word	0x0001	; ????
    12ca:	00 00       	nop
    12cc:	00 05       	cpc	r16, r0
    12ce:	02 04       	cpc	r0, r2
    12d0:	0f 00       	.word	0x000f	; ????
    12d2:	00 03       	mulsu	r16, r16
    12d4:	ff 0a       	sbc	r15, r31
    12d6:	01 03       	mulsu	r16, r17
    12d8:	01 09       	sbc	r16, r1
    12da:	02 00       	.word	0x0002	; ????
    12dc:	01 03       	mulsu	r16, r17
    12de:	01 09       	sbc	r16, r1
    12e0:	02 00       	.word	0x0002	; ????
    12e2:	01 03       	mulsu	r16, r17
    12e4:	01 09       	sbc	r16, r1
    12e6:	02 00       	.word	0x0002	; ????
    12e8:	01 03       	mulsu	r16, r17
    12ea:	02 09       	sbc	r16, r2
    12ec:	02 00       	.word	0x0002	; ????
    12ee:	01 03       	mulsu	r16, r17
    12f0:	01 09       	sbc	r16, r1
    12f2:	02 00       	.word	0x0002	; ????
    12f4:	01 03       	mulsu	r16, r17
    12f6:	01 09       	sbc	r16, r1
    12f8:	02 00       	.word	0x0002	; ????
    12fa:	01 03       	mulsu	r16, r17
    12fc:	01 09       	sbc	r16, r1
    12fe:	02 00       	.word	0x0002	; ????
    1300:	01 03       	mulsu	r16, r17
    1302:	01 09       	sbc	r16, r1
    1304:	02 00       	.word	0x0002	; ????
    1306:	01 03       	mulsu	r16, r17
    1308:	01 09       	sbc	r16, r1
    130a:	02 00       	.word	0x0002	; ????
    130c:	01 03       	mulsu	r16, r17
    130e:	01 09       	sbc	r16, r1
    1310:	02 00       	.word	0x0002	; ????
    1312:	01 03       	mulsu	r16, r17
    1314:	02 09       	sbc	r16, r2
    1316:	02 00       	.word	0x0002	; ????
    1318:	01 03       	mulsu	r16, r17
    131a:	01 09       	sbc	r16, r1
    131c:	02 00       	.word	0x0002	; ????
    131e:	01 03       	mulsu	r16, r17
    1320:	01 09       	sbc	r16, r1
    1322:	02 00       	.word	0x0002	; ????
    1324:	01 03       	mulsu	r16, r17
    1326:	01 09       	sbc	r16, r1
    1328:	02 00       	.word	0x0002	; ????
    132a:	01 03       	mulsu	r16, r17
    132c:	01 09       	sbc	r16, r1
    132e:	02 00       	.word	0x0002	; ????
    1330:	01 03       	mulsu	r16, r17
    1332:	01 09       	sbc	r16, r1
    1334:	02 00       	.word	0x0002	; ????
    1336:	01 03       	mulsu	r16, r17
    1338:	02 09       	sbc	r16, r2
    133a:	02 00       	.word	0x0002	; ????
    133c:	01 03       	mulsu	r16, r17
    133e:	02 09       	sbc	r16, r2
    1340:	02 00       	.word	0x0002	; ????
    1342:	01 03       	mulsu	r16, r17
    1344:	02 09       	sbc	r16, r2
    1346:	02 00       	.word	0x0002	; ????
    1348:	01 09       	sbc	r16, r1
    134a:	02 00       	.word	0x0002	; ????
    134c:	00 01       	movw	r0, r0
    134e:	01 76       	andi	r16, 0x61	; 97
    1350:	00 00       	nop
    1352:	00 02       	muls	r16, r16
    1354:	00 41       	sbci	r16, 0x10	; 16
    1356:	00 00       	nop
    1358:	00 02       	muls	r16, r16
    135a:	01 fb       	bst	r16, 1
    135c:	0e 0a       	sbc	r0, r30
    135e:	00 01       	movw	r0, r0
    1360:	01 01       	movw	r0, r2
    1362:	01 00       	.word	0x0001	; ????
    1364:	00 00       	nop
    1366:	01 2e       	mov	r0, r17
    1368:	2e 2f       	mov	r18, r30
    136a:	2e 2e       	mov	r2, r30
    136c:	2f 2e       	mov	r2, r31
    136e:	2e 2f       	mov	r18, r30
    1370:	2e 2e       	mov	r2, r30
    1372:	2f 67       	ori	r18, 0x7F	; 127
    1374:	63 63       	ori	r22, 0x33	; 51
    1376:	2f 6c       	ori	r18, 0xCF	; 207
    1378:	69 62       	ori	r22, 0x29	; 41
    137a:	67 63       	ori	r22, 0x37	; 55
    137c:	63 2f       	mov	r22, r19
    137e:	63 6f       	ori	r22, 0xF3	; 243
    1380:	6e 66       	ori	r22, 0x6E	; 110
    1382:	69 67       	ori	r22, 0x79	; 121
    1384:	2f 61       	ori	r18, 0x1F	; 31
    1386:	76 72       	andi	r23, 0x26	; 38
    1388:	00 00       	nop
    138a:	6c 69       	ori	r22, 0x9C	; 156
    138c:	62 31       	cpi	r22, 0x12	; 18
    138e:	66 75       	andi	r22, 0x56	; 86
    1390:	6e 63       	ori	r22, 0x3E	; 62
    1392:	73 2e       	mov	r7, r19
    1394:	53 00       	.word	0x0053	; ????
    1396:	01 00       	.word	0x0001	; ????
    1398:	00 00       	nop
    139a:	00 05       	cpc	r16, r0
    139c:	02 2c       	mov	r0, r2
    139e:	0f 00       	.word	0x000f	; ????
    13a0:	00 03       	mulsu	r16, r16
    13a2:	f7 11       	cpse	r31, r7
    13a4:	01 03       	mulsu	r16, r17
    13a6:	01 09       	sbc	r16, r1
    13a8:	02 00       	.word	0x0002	; ????
    13aa:	01 03       	mulsu	r16, r17
    13ac:	1f 09       	sbc	r17, r15
    13ae:	02 00       	.word	0x0002	; ????
    13b0:	01 03       	mulsu	r16, r17
    13b2:	01 09       	sbc	r16, r1
    13b4:	02 00       	.word	0x0002	; ????
    13b6:	01 03       	mulsu	r16, r17
    13b8:	01 09       	sbc	r16, r1
    13ba:	02 00       	.word	0x0002	; ????
    13bc:	01 03       	mulsu	r16, r17
    13be:	01 09       	sbc	r16, r1
    13c0:	02 00       	.word	0x0002	; ????
    13c2:	01 09       	sbc	r16, r1
    13c4:	02 00       	.word	0x0002	; ????
    13c6:	00 01       	movw	r0, r0
    13c8:	01 00       	Address 0x00000000000013c8 is out of bounds.
.word	0xffff	; ????

Disassembly of section .debug_frame:

00000000 <.debug_frame>:
   0:	10 00       	.word	0x0010	; ????
   2:	00 00       	nop
   4:	ff ff       	.word	0xffff	; ????
   6:	ff ff       	.word	0xffff	; ????
   8:	01 00       	.word	0x0001	; ????
   a:	02 7f       	andi	r16, 0xF2	; 242
   c:	24 0c       	add	r2, r4
   e:	20 02       	muls	r18, r16
  10:	a4 01       	movw	r20, r8
  12:	00 00       	nop
  14:	0c 00       	.word	0x000c	; ????
  16:	00 00       	nop
  18:	00 00       	nop
  1a:	00 00       	nop
  1c:	70 00       	.word	0x0070	; ????
  1e:	00 00       	nop
  20:	4c 00       	.word	0x004c	; ????
  22:	00 00       	nop
  24:	68 00       	.word	0x0068	; ????
  26:	00 00       	nop
  28:	00 00       	nop
  2a:	00 00       	nop
  2c:	bc 00       	.word	0x00bc	; ????
  2e:	00 00       	nop
  30:	48 02       	muls	r20, r24
  32:	00 00       	nop
  34:	41 0e       	add	r4, r17
  36:	03 83       	std	Z+3, r16	; 0x03
  38:	02 41       	sbci	r16, 0x12	; 18
  3a:	0e 04       	cpc	r0, r14
  3c:	84 03       	fmuls	r16, r20
  3e:	41 0e       	add	r4, r17
  40:	05 85       	ldd	r16, Z+13	; 0x0d
  42:	04 41       	sbci	r16, 0x14	; 20
  44:	0e 06       	cpc	r0, r30
  46:	86 05       	cpc	r24, r6
  48:	41 0e       	add	r4, r17
  4a:	07 87       	std	Z+15, r16	; 0x0f
  4c:	06 41       	sbci	r16, 0x16	; 22
  4e:	0e 08       	sbc	r0, r14
  50:	88 07       	cpc	r24, r24
  52:	41 0e       	add	r4, r17
  54:	09 89       	ldd	r16, Y+17	; 0x11
  56:	08 41       	sbci	r16, 0x18	; 24
  58:	0e 0a       	sbc	r0, r30
  5a:	8a 09       	sbc	r24, r10
  5c:	41 0e       	add	r4, r17
  5e:	0b 8b       	std	Y+19, r16	; 0x13
  60:	0a 41       	sbci	r16, 0x1A	; 26
  62:	0e 0c       	add	r0, r14
  64:	8c 0b       	sbc	r24, r28
  66:	41 0e       	add	r4, r17
  68:	0d 8d       	ldd	r16, Y+29	; 0x1d
  6a:	0c 41       	sbci	r16, 0x1C	; 28
  6c:	0e 0e       	add	r0, r30
  6e:	8e 0d       	add	r24, r14
  70:	41 0e       	add	r4, r17
  72:	0f 8f       	std	Y+31, r16	; 0x1f
  74:	0e 41       	sbci	r16, 0x1E	; 30
  76:	0e 10       	cpse	r0, r14
  78:	90 0f       	add	r25, r16
  7a:	41 0e       	add	r4, r17
  7c:	11 91       	ld	r17, Z+
  7e:	10 41       	sbci	r17, 0x10	; 16
  80:	0e 12       	cpse	r0, r30
  82:	9c 11       	cpse	r25, r12
  84:	41 0e       	add	r4, r17
  86:	13 9d       	mul	r17, r3
  88:	12 42       	sbci	r17, 0x22	; 34
  8a:	0e 16       	cp	r0, r30
  8c:	42 0d       	add	r20, r2
  8e:	1c 00       	.word	0x001c	; ????
  90:	0c 00       	.word	0x000c	; ????
  92:	00 00       	nop
  94:	00 00       	nop
  96:	00 00       	nop
  98:	04 03       	mulsu	r16, r20
  9a:	00 00       	nop
  9c:	16 00       	.word	0x0016	; ????
  9e:	00 00       	nop
  a0:	0c 00       	.word	0x000c	; ????
  a2:	00 00       	nop
  a4:	00 00       	nop
  a6:	00 00       	nop
  a8:	1a 03       	fmul	r17, r18
  aa:	00 00       	nop
  ac:	16 00       	.word	0x0016	; ????
  ae:	00 00       	nop
  b0:	0c 00       	.word	0x000c	; ????
  b2:	00 00       	nop
  b4:	00 00       	nop
  b6:	00 00       	nop
  b8:	30 03       	mulsu	r19, r16
  ba:	00 00       	nop
  bc:	06 00       	.word	0x0006	; ????
  be:	00 00       	nop
  c0:	0c 00       	.word	0x000c	; ????
  c2:	00 00       	nop
  c4:	00 00       	nop
  c6:	00 00       	nop
  c8:	36 03       	mulsu	r19, r22
  ca:	00 00       	nop
  cc:	2c 00       	.word	0x002c	; ????
  ce:	00 00       	nop
  d0:	2c 00       	.word	0x002c	; ????
  d2:	00 00       	nop
  d4:	00 00       	nop
  d6:	00 00       	nop
  d8:	62 03       	mulsu	r22, r18
  da:	00 00       	nop
  dc:	86 00       	.word	0x0086	; ????
  de:	00 00       	nop
  e0:	41 0e       	add	r4, r17
  e2:	03 8e       	std	Z+27, r0	; 0x1b
  e4:	02 41       	sbci	r16, 0x12	; 18
  e6:	0e 04       	cpc	r0, r14
  e8:	8f 03       	fmulsu	r16, r23
  ea:	41 0e       	add	r4, r17
  ec:	05 90       	lpm	r0, Z+
  ee:	04 41       	sbci	r16, 0x14	; 20
  f0:	0e 06       	cpc	r0, r30
  f2:	91 05       	cpc	r25, r1
  f4:	41 0e       	add	r4, r17
  f6:	07 9c       	mul	r0, r7
  f8:	06 41       	sbci	r16, 0x16	; 22
  fa:	0e 08       	sbc	r0, r14
  fc:	9d 07       	cpc	r25, r29
  fe:	00 00       	nop
 100:	58 00       	.word	0x0058	; ????
 102:	00 00       	nop
 104:	00 00       	nop
 106:	00 00       	nop
 108:	e8 03       	fmulsu	r22, r16
 10a:	00 00       	nop
 10c:	aa 03       	fmulsu	r18, r18
 10e:	00 00       	nop
 110:	41 0e       	add	r4, r17
 112:	03 84       	ldd	r0, Z+11	; 0x0b
 114:	02 41       	sbci	r16, 0x12	; 18
 116:	0e 04       	cpc	r0, r14
 118:	85 03       	fmuls	r16, r21
 11a:	41 0e       	add	r4, r17
 11c:	05 87       	std	Z+13, r16	; 0x0d
 11e:	04 41       	sbci	r16, 0x14	; 20
 120:	0e 06       	cpc	r0, r30
 122:	88 05       	cpc	r24, r8
 124:	41 0e       	add	r4, r17
 126:	07 89       	ldd	r16, Z+23	; 0x17
 128:	06 41       	sbci	r16, 0x16	; 22
 12a:	0e 08       	sbc	r0, r14
 12c:	8a 07       	cpc	r24, r26
 12e:	41 0e       	add	r4, r17
 130:	09 8b       	std	Y+17, r16	; 0x11
 132:	08 41       	sbci	r16, 0x18	; 24
 134:	0e 0a       	sbc	r0, r30
 136:	8c 09       	sbc	r24, r12
 138:	41 0e       	add	r4, r17
 13a:	0b 8d       	ldd	r16, Y+27	; 0x1b
 13c:	0a 41       	sbci	r16, 0x1A	; 26
 13e:	0e 0c       	add	r0, r14
 140:	8e 0b       	sbc	r24, r30
 142:	41 0e       	add	r4, r17
 144:	0d 8f       	std	Y+29, r16	; 0x1d
 146:	0c 41       	sbci	r16, 0x1C	; 28
 148:	0e 0e       	add	r0, r30
 14a:	90 0d       	add	r25, r0
 14c:	41 0e       	add	r4, r17
 14e:	0f 91       	pop	r16
 150:	0e 41       	sbci	r16, 0x1E	; 30
 152:	0e 10       	cpse	r0, r14
 154:	9c 0f       	add	r25, r28
 156:	41 0e       	add	r4, r17
 158:	11 9d       	mul	r17, r1
 15a:	10 00       	.word	0x0010	; ????
 15c:	0c 00       	.word	0x000c	; ????
 15e:	00 00       	nop
 160:	00 00       	nop
 162:	00 00       	nop
 164:	92 07       	cpc	r25, r18
 166:	00 00       	nop
 168:	06 00       	.word	0x0006	; ????
 16a:	00 00       	nop
 16c:	0c 00       	.word	0x000c	; ????
 16e:	00 00       	nop
 170:	00 00       	nop
 172:	00 00       	nop
 174:	98 07       	cpc	r25, r24
 176:	00 00       	nop
 178:	04 00       	.word	0x0004	; ????
 17a:	00 00       	nop
 17c:	4c 00       	.word	0x004c	; ????
 17e:	00 00       	nop
 180:	00 00       	nop
 182:	00 00       	nop
 184:	9c 07       	cpc	r25, r28
 186:	00 00       	nop
 188:	b6 00       	.word	0x00b6	; ????
 18a:	00 00       	nop
 18c:	41 0e       	add	r4, r17
 18e:	03 86       	std	Z+11, r0	; 0x0b
 190:	02 41       	sbci	r16, 0x12	; 18
 192:	0e 04       	cpc	r0, r14
 194:	87 03       	fmuls	r16, r23
 196:	41 0e       	add	r4, r17
 198:	05 88       	ldd	r0, Z+21	; 0x15
 19a:	04 41       	sbci	r16, 0x14	; 20
 19c:	0e 06       	cpc	r0, r30
 19e:	8c 05       	cpc	r24, r12
 1a0:	41 0e       	add	r4, r17
 1a2:	07 8d       	ldd	r16, Z+31	; 0x1f
 1a4:	06 41       	sbci	r16, 0x16	; 22
 1a6:	0e 08       	sbc	r0, r14
 1a8:	8e 07       	cpc	r24, r30
 1aa:	41 0e       	add	r4, r17
 1ac:	09 8f       	std	Y+25, r16	; 0x19
 1ae:	08 41       	sbci	r16, 0x18	; 24
 1b0:	0e 0a       	sbc	r0, r30
 1b2:	90 09       	sbc	r25, r0
 1b4:	41 0e       	add	r4, r17
 1b6:	0b 91       	.word	0x910b	; ????
 1b8:	0a 41       	sbci	r16, 0x1A	; 26
 1ba:	0e 0c       	add	r0, r14
 1bc:	9c 0b       	sbc	r25, r28
 1be:	41 0e       	add	r4, r17
 1c0:	0d 9d       	mul	r16, r13
 1c2:	0c 42       	sbci	r16, 0x2C	; 44
 1c4:	0d 1c       	adc	r0, r13
 1c6:	41 0e       	add	r4, r17
 1c8:	1f 00       	.word	0x001f	; ????
 1ca:	00 00       	nop
 1cc:	30 00       	.word	0x0030	; ????
 1ce:	00 00       	nop
 1d0:	00 00       	nop
 1d2:	00 00       	nop
 1d4:	52 08       	sbc	r5, r2
 1d6:	00 00       	nop
 1d8:	84 00       	.word	0x0084	; ????
 1da:	00 00       	nop
 1dc:	41 0e       	add	r4, r17
 1de:	03 8e       	std	Z+27, r0	; 0x1b
 1e0:	02 41       	sbci	r16, 0x12	; 18
 1e2:	0e 04       	cpc	r0, r14
 1e4:	8f 03       	fmulsu	r16, r23
 1e6:	41 0e       	add	r4, r17
 1e8:	05 90       	lpm	r0, Z+
 1ea:	04 41       	sbci	r16, 0x14	; 20
 1ec:	0e 06       	cpc	r0, r30
 1ee:	91 05       	cpc	r25, r1
 1f0:	41 0e       	add	r4, r17
 1f2:	07 9c       	mul	r0, r7
 1f4:	06 41       	sbci	r16, 0x16	; 22
 1f6:	0e 08       	sbc	r0, r14
 1f8:	9d 07       	cpc	r25, r29
 1fa:	42 0d       	add	r20, r2
 1fc:	1c 41       	sbci	r17, 0x1C	; 28
 1fe:	0e 1a       	sub	r0, r30
 200:	0c 00       	.word	0x000c	; ????
 202:	00 00       	nop
 204:	00 00       	nop
 206:	00 00       	nop
 208:	d6 08       	sbc	r13, r6
 20a:	00 00       	nop
 20c:	06 00       	.word	0x0006	; ????
 20e:	00 00       	nop
 210:	0c 00       	.word	0x000c	; ????
 212:	00 00       	nop
 214:	00 00       	nop
 216:	00 00       	nop
 218:	dc 08       	sbc	r13, r12
 21a:	00 00       	nop
 21c:	08 00       	.word	0x0008	; ????
 21e:	00 00       	nop
 220:	28 00       	.word	0x0028	; ????
 222:	00 00       	nop
 224:	00 00       	nop
 226:	00 00       	nop
 228:	e4 08       	sbc	r14, r4
 22a:	00 00       	nop
 22c:	42 00       	.word	0x0042	; ????
 22e:	00 00       	nop
 230:	41 0e       	add	r4, r17
 232:	03 90       	.word	0x9003	; ????
 234:	02 41       	sbci	r16, 0x12	; 18
 236:	0e 04       	cpc	r0, r14
 238:	91 03       	fmuls	r17, r17
 23a:	41 0e       	add	r4, r17
 23c:	05 9c       	mul	r0, r5
 23e:	04 41       	sbci	r16, 0x14	; 20
 240:	0e 06       	cpc	r0, r30
 242:	9d 05       	cpc	r25, r13
 244:	42 0e       	add	r4, r18
 246:	09 42       	sbci	r16, 0x29	; 41
 248:	0d 1c       	adc	r0, r13
 24a:	00 00       	nop
 24c:	0c 00       	.word	0x000c	; ????
 24e:	00 00       	nop
 250:	00 00       	nop
 252:	00 00       	nop
 254:	26 09       	sbc	r18, r6
 256:	00 00       	nop
 258:	02 00       	.word	0x0002	; ????
 25a:	00 00       	nop
 25c:	34 00       	.word	0x0034	; ????
 25e:	00 00       	nop
 260:	00 00       	nop
 262:	00 00       	nop
 264:	28 09       	sbc	r18, r8
 266:	00 00       	nop
 268:	94 00       	.word	0x0094	; ????
 26a:	00 00       	nop
 26c:	41 0e       	add	r4, r17
 26e:	03 81       	ldd	r16, Z+3	; 0x03
 270:	02 41       	sbci	r16, 0x12	; 18
 272:	0e 04       	cpc	r0, r14
 274:	80 03       	fmuls	r16, r16
 276:	44 0e       	add	r4, r20
 278:	05 92       	las	Z, r0
 27a:	04 41       	sbci	r16, 0x14	; 20
 27c:	0e 06       	cpc	r0, r30
 27e:	93 05       	cpc	r25, r3
 280:	41 0e       	add	r4, r17
 282:	07 98       	cbi	0x00, 7	; 0
 284:	06 41       	sbci	r16, 0x16	; 22
 286:	0e 08       	sbc	r0, r14
 288:	99 07       	cpc	r25, r25
 28a:	41 0e       	add	r4, r17
 28c:	09 9a       	sbi	0x01, 1	; 1
 28e:	08 41       	sbci	r16, 0x18	; 24
 290:	0e 0a       	sbc	r0, r30
 292:	9b 09       	sbc	r25, r11
 294:	1c 00       	.word	0x001c	; ????
 296:	00 00       	nop
 298:	00 00       	nop
 29a:	00 00       	nop
 29c:	62 0b       	sbc	r22, r18
 29e:	00 00       	nop
 2a0:	b2 02       	muls	r27, r18
 2a2:	00 00       	nop
 2a4:	41 0e       	add	r4, r17
 2a6:	03 9c       	mul	r0, r3
 2a8:	02 41       	sbci	r16, 0x12	; 18
 2aa:	0e 04       	cpc	r0, r14
 2ac:	9d 03       	fmulsu	r17, r21
 2ae:	42 0d       	add	r20, r2
 2b0:	1c 41       	sbci	r17, 0x1C	; 28
 2b2:	0e 1c       	adc	r0, r14
 2b4:	0c 00       	.word	0x000c	; ????
 2b6:	00 00       	nop
 2b8:	00 00       	nop
 2ba:	00 00       	nop
 2bc:	14 0e       	add	r1, r20
 2be:	00 00       	nop
 2c0:	20 00       	.word	0x0020	; ????
 2c2:	00 00       	nop
 2c4:	54 00       	.word	0x0054	; ????
 2c6:	00 00       	nop
 2c8:	00 00       	nop
 2ca:	00 00       	nop
 2cc:	bc 09       	sbc	r27, r12
 2ce:	00 00       	nop
 2d0:	6c 01       	movw	r12, r24
 2d2:	00 00       	nop
 2d4:	41 0e       	add	r4, r17
 2d6:	03 81       	ldd	r16, Z+3	; 0x03
 2d8:	02 41       	sbci	r16, 0x12	; 18
 2da:	0e 04       	cpc	r0, r14
 2dc:	80 03       	fmuls	r16, r16
 2de:	44 0e       	add	r4, r20
 2e0:	05 92       	las	Z, r0
 2e2:	04 41       	sbci	r16, 0x14	; 20
 2e4:	0e 06       	cpc	r0, r30
 2e6:	93 05       	cpc	r25, r3
 2e8:	41 0e       	add	r4, r17
 2ea:	07 94       	ror	r0
 2ec:	06 41       	sbci	r16, 0x16	; 22
 2ee:	0e 08       	sbc	r0, r14
 2f0:	95 07       	cpc	r25, r21
 2f2:	41 0e       	add	r4, r17
 2f4:	09 96       	adiw	r24, 0x09	; 9
 2f6:	08 41       	sbci	r16, 0x18	; 24
 2f8:	0e 0a       	sbc	r0, r30
 2fa:	97 09       	sbc	r25, r7
 2fc:	41 0e       	add	r4, r17
 2fe:	0b 98       	cbi	0x01, 3	; 1
 300:	0a 41       	sbci	r16, 0x1A	; 26
 302:	0e 0c       	add	r0, r14
 304:	99 0b       	sbc	r25, r25
 306:	41 0e       	add	r4, r17
 308:	0d 9a       	sbi	0x01, 5	; 1
 30a:	0c 41       	sbci	r16, 0x1C	; 28
 30c:	0e 0e       	add	r0, r30
 30e:	9b 0d       	add	r25, r11
 310:	41 0e       	add	r4, r17
 312:	0f 9e       	mul	r0, r31
 314:	0e 41       	sbci	r16, 0x1E	; 30
 316:	0e 10       	cpse	r0, r14
 318:	9f 0f       	add	r25, r31
 31a:	00 00       	nop
 31c:	1c 00       	.word	0x001c	; ????
 31e:	00 00       	nop
 320:	00 00       	nop
 322:	00 00       	nop
 324:	28 0b       	sbc	r18, r24
 326:	00 00       	nop
 328:	3a 00       	.word	0x003a	; ????
 32a:	00 00       	nop
 32c:	41 0e       	add	r4, r17
 32e:	03 81       	ldd	r16, Z+3	; 0x03
 330:	02 41       	sbci	r16, 0x12	; 18
 332:	0e 04       	cpc	r0, r14
 334:	80 03       	fmuls	r16, r16
 336:	44 0e       	add	r4, r20
 338:	05 98       	cbi	0x00, 5	; 0
 33a:	04 00       	.word	0x0004	; ????

Disassembly of section .debug_str:

00000000 <.debug_str>:
       0:	61 76       	andi	r22, 0x61	; 97
       2:	72 2d       	mov	r23, r2
       4:	6c 69       	ori	r22, 0x9C	; 156
       6:	62 63       	ori	r22, 0x32	; 50
       8:	20 32       	cpi	r18, 0x20	; 32
       a:	2e 30       	cpi	r18, 0x0E	; 14
       c:	2e 30       	cpi	r18, 0x0E	; 14
       e:	00 75       	andi	r16, 0x50	; 80
      10:	69 6e       	ori	r22, 0xE9	; 233
      12:	74 38       	cpi	r23, 0x84	; 132
      14:	5f 74       	andi	r21, 0x4F	; 79
      16:	00 75       	andi	r16, 0x50	; 80
      18:	69 6e       	ori	r22, 0xE9	; 233
      1a:	74 31       	cpi	r23, 0x14	; 20
      1c:	36 5f       	subi	r19, 0xF6	; 246
      1e:	74 00       	.word	0x0074	; ????
      20:	5f 5f       	subi	r21, 0xFF	; 255
      22:	65 65       	ori	r22, 0x55	; 85
      24:	70 72       	andi	r23, 0x20	; 32
      26:	6f 6d       	ori	r22, 0xDF	; 223
      28:	00 50       	subi	r16, 0x00	; 0
      2a:	4f 52       	subi	r20, 0x2F	; 47
      2c:	54 41       	sbci	r21, 0x14	; 20
      2e:	00 44       	sbci	r16, 0x40	; 64
      30:	44 52       	subi	r20, 0x24	; 36
      32:	41 00       	.word	0x0041	; ????
      34:	50 49       	sbci	r21, 0x90	; 144
      36:	4e 41       	sbci	r20, 0x1E	; 30
      38:	00 50       	subi	r16, 0x00	; 0
      3a:	4f 52       	subi	r20, 0x2F	; 47
      3c:	54 42       	sbci	r21, 0x24	; 36
      3e:	00 44       	sbci	r16, 0x40	; 64
      40:	44 52       	subi	r20, 0x24	; 36
      42:	42 00       	.word	0x0042	; ????
      44:	50 49       	sbci	r21, 0x90	; 144
      46:	4e 42       	sbci	r20, 0x2E	; 46
      48:	00 41       	sbci	r16, 0x10	; 16
      4a:	44 43       	sbci	r20, 0x34	; 52
      4c:	53 52       	subi	r21, 0x23	; 35
      4e:	42 00       	.word	0x0042	; ????
      50:	41 43       	sbci	r20, 0x31	; 49
      52:	53 52       	subi	r21, 0x23	; 35
      54:	00 44       	sbci	r16, 0x40	; 64
      56:	49 44       	sbci	r20, 0x49	; 73
      58:	52 30       	cpi	r21, 0x02	; 2
      5a:	00 41       	sbci	r16, 0x10	; 16
      5c:	44 4d       	sbci	r20, 0xD4	; 212
      5e:	55 58       	subi	r21, 0x85	; 133
      60:	00 41       	sbci	r16, 0x10	; 16
      62:	44 43       	sbci	r20, 0x34	; 52
      64:	53 52       	subi	r21, 0x23	; 35
      66:	41 00       	.word	0x0041	; ????
      68:	41 44       	sbci	r20, 0x41	; 65
      6a:	43 00       	.word	0x0043	; ????
      6c:	41 44       	sbci	r20, 0x41	; 65
      6e:	43 53       	subi	r20, 0x33	; 51
      70:	52 42       	sbci	r21, 0x22	; 34
      72:	00 44       	sbci	r16, 0x40	; 64
      74:	49 44       	sbci	r20, 0x49	; 73
      76:	52 30       	cpi	r21, 0x02	; 2
      78:	00 55       	subi	r16, 0x50	; 80
      7a:	53 49       	sbci	r21, 0x93	; 147
      7c:	42 52       	subi	r20, 0x22	; 34
      7e:	00 55       	subi	r16, 0x50	; 80
      80:	53 49       	sbci	r21, 0x93	; 147
      82:	44 52       	subi	r20, 0x24	; 36
      84:	00 55       	subi	r16, 0x50	; 80
      86:	53 49       	sbci	r21, 0x93	; 147
      88:	53 52       	subi	r21, 0x23	; 35
      8a:	00 55       	subi	r16, 0x50	; 80
      8c:	53 49       	sbci	r21, 0x93	; 147
      8e:	43 52       	subi	r20, 0x23	; 35
      90:	00 4d       	sbci	r16, 0xD0	; 208
      92:	43 55       	subi	r20, 0x53	; 83
      94:	43 52       	subi	r20, 0x23	; 35
      96:	00 47       	sbci	r16, 0x70	; 112
      98:	49 4d       	sbci	r20, 0xD9	; 217
      9a:	53 4b       	sbci	r21, 0xB3	; 179
      9c:	00 47       	sbci	r16, 0x70	; 112
      9e:	49 46       	sbci	r20, 0x69	; 105
      a0:	52 00       	.word	0x0052	; ????
      a2:	50 43       	sbci	r21, 0x30	; 48
      a4:	4d 53       	subi	r20, 0x3D	; 61
      a6:	4b 31       	cpi	r20, 0x1B	; 27
      a8:	00 50       	subi	r16, 0x00	; 0
      aa:	43 4d       	sbci	r20, 0xD3	; 211
      ac:	53 4b       	sbci	r21, 0xB3	; 179
      ae:	30 00       	.word	0x0030	; ????
      b0:	45 45       	sbci	r20, 0x55	; 85
      b2:	41 52       	subi	r20, 0x21	; 33
      b4:	00 45       	sbci	r16, 0x50	; 80
      b6:	45 44       	sbci	r20, 0x45	; 69
      b8:	52 00       	.word	0x0052	; ????
      ba:	45 45       	sbci	r20, 0x55	; 85
      bc:	43 52       	subi	r20, 0x23	; 35
      be:	00 57       	subi	r16, 0x70	; 112
      c0:	44 54       	subi	r20, 0x44	; 68
      c2:	43 53       	subi	r20, 0x33	; 51
      c4:	52 00       	.word	0x0052	; ????
      c6:	54 49       	sbci	r21, 0x94	; 148
      c8:	4d 53       	subi	r20, 0x3D	; 61
      ca:	4b 30       	cpi	r20, 0x0B	; 11
      cc:	00 54       	subi	r16, 0x40	; 64
      ce:	49 46       	sbci	r20, 0x69	; 105
      d0:	52 30       	cpi	r21, 0x02	; 2
      d2:	00 54       	subi	r16, 0x40	; 64
      d4:	43 43       	sbci	r20, 0x33	; 51
      d6:	52 30       	cpi	r21, 0x02	; 2
      d8:	41 00       	.word	0x0041	; ????
      da:	54 43       	sbci	r21, 0x34	; 52
      dc:	43 52       	subi	r20, 0x23	; 35
      de:	30 42       	sbci	r19, 0x20	; 32
      e0:	00 54       	subi	r16, 0x40	; 64
      e2:	43 4e       	sbci	r20, 0xE3	; 227
      e4:	54 30       	cpi	r21, 0x04	; 4
      e6:	00 4f       	sbci	r16, 0xF0	; 240
      e8:	43 52       	subi	r20, 0x23	; 35
      ea:	30 41       	sbci	r19, 0x10	; 16
      ec:	00 4f       	sbci	r16, 0xF0	; 240
      ee:	43 52       	subi	r20, 0x23	; 35
      f0:	30 42       	sbci	r19, 0x20	; 32
      f2:	00 47       	sbci	r16, 0x70	; 112
      f4:	54 43       	sbci	r21, 0x34	; 52
      f6:	43 52       	subi	r20, 0x23	; 35
      f8:	00 54       	subi	r16, 0x40	; 64
      fa:	49 4d       	sbci	r20, 0xD9	; 217
      fc:	53 4b       	sbci	r21, 0xB3	; 179
      fe:	31 00       	.word	0x0031	; ????
     100:	54 49       	sbci	r21, 0x94	; 148
     102:	46 52       	subi	r20, 0x26	; 38
     104:	31 00       	.word	0x0031	; ????
     106:	54 43       	sbci	r21, 0x34	; 52
     108:	43 52       	subi	r20, 0x23	; 35
     10a:	31 41       	sbci	r19, 0x11	; 17
     10c:	00 54       	subi	r16, 0x40	; 64
     10e:	43 43       	sbci	r20, 0x33	; 51
     110:	52 31       	cpi	r21, 0x12	; 18
     112:	42 00       	.word	0x0042	; ????
     114:	54 43       	sbci	r21, 0x34	; 52
     116:	43 52       	subi	r20, 0x23	; 35
     118:	31 43       	sbci	r19, 0x31	; 49
     11a:	00 54       	subi	r16, 0x40	; 64
     11c:	43 4e       	sbci	r20, 0xE3	; 227
     11e:	54 31       	cpi	r21, 0x14	; 20
     120:	00 4f       	sbci	r16, 0xF0	; 240
     122:	43 52       	subi	r20, 0x23	; 35
     124:	31 41       	sbci	r19, 0x11	; 17
     126:	00 4f       	sbci	r16, 0xF0	; 240
     128:	43 52       	subi	r20, 0x23	; 35
     12a:	31 42       	sbci	r19, 0x21	; 33
     12c:	00 49       	sbci	r16, 0x90	; 144
     12e:	43 52       	subi	r20, 0x23	; 35
     130:	31 00       	.word	0x0031	; ????
     132:	53 50       	subi	r21, 0x03	; 3
     134:	4d 43       	sbci	r20, 0x3D	; 61
     136:	53 52       	subi	r21, 0x23	; 35
     138:	00 50       	subi	r16, 0x00	; 0
     13a:	52 52       	subi	r21, 0x22	; 34
     13c:	00 4f       	sbci	r16, 0xF0	; 240
     13e:	53 43       	sbci	r21, 0x33	; 51
     140:	43 41       	sbci	r20, 0x13	; 19
     142:	4c 00       	.word	0x004c	; ????
     144:	43 4c       	sbci	r20, 0xC3	; 195
     146:	4b 50       	subi	r20, 0x0B	; 11
     148:	52 00       	.word	0x0052	; ????
     14a:	53 52       	subi	r21, 0x23	; 35
     14c:	45 47       	sbci	r20, 0x75	; 117
     14e:	00 53       	subi	r16, 0x30	; 48
     150:	50 00       	.word	0x0050	; ????
     152:	4d 43       	sbci	r20, 0x3D	; 61
     154:	55 43       	sbci	r21, 0x35	; 53
     156:	52 00       	.word	0x0052	; ????
     158:	4d 43       	sbci	r20, 0x3D	; 61
     15a:	55 53       	subi	r21, 0x35	; 53
     15c:	52 00       	.word	0x0052	; ????
     15e:	47 50       	subi	r20, 0x07	; 7
     160:	49 4f       	sbci	r20, 0xF9	; 249
     162:	52 32       	cpi	r21, 0x22	; 34
     164:	00 47       	sbci	r16, 0x70	; 112
     166:	50 49       	sbci	r21, 0x90	; 144
     168:	4f 52       	subi	r20, 0x2F	; 47
     16a:	31 00       	.word	0x0031	; ????
     16c:	47 50       	subi	r20, 0x07	; 7
     16e:	49 4f       	sbci	r20, 0xF9	; 249
     170:	52 30       	cpi	r21, 0x02	; 2
     172:	00 70       	andi	r16, 0x00	; 0
     174:	65 6e       	ori	r22, 0xE5	; 229
     176:	64 49       	sbci	r22, 0x94	; 148
     178:	73 72       	andi	r23, 0x23	; 35
     17a:	00 61       	ori	r16, 0x10	; 16
     17c:	64 76       	andi	r22, 0x64	; 100
     17e:	61 6e       	ori	r22, 0xE1	; 225
     180:	63 65       	ori	r22, 0x53	; 83
     182:	42 79       	andi	r20, 0x92	; 146
     184:	00 64       	ori	r16, 0x40	; 64
     186:	61 74       	andi	r22, 0x41	; 65
     188:	61 5f       	subi	r22, 0xF1	; 241
     18a:	74 00       	.word	0x0074	; ????
     18c:	64 69       	ori	r22, 0x94	; 148
     18e:	74 68       	ori	r23, 0x84	; 132
     190:	65 72       	andi	r22, 0x25	; 37
     192:	42 69       	ori	r20, 0x92	; 146
     194:	74 73       	andi	r23, 0x34	; 52
     196:	00 44       	sbci	r16, 0x40	; 64
     198:	61 72       	andi	r22, 0x21	; 33
     19a:	6b 53       	subi	r22, 0x3B	; 59
     19c:	65 61       	ori	r22, 0x15	; 21
     19e:	47 72       	andi	r20, 0x27	; 39
     1a0:	65 65       	ori	r22, 0x55	; 85
     1a2:	6e 00       	.word	0x006e	; ????
     1a4:	48 69       	ori	r20, 0x98	; 152
     1a6:	67 68       	ori	r22, 0x87	; 135
     1a8:	50 72       	andi	r21, 0x20	; 32
     1aa:	65 73       	andi	r22, 0x35	; 53
     1ac:	73 75       	andi	r23, 0x53	; 83
     1ae:	72 65       	ori	r23, 0x52	; 82
     1b0:	53 6f       	ori	r21, 0xF3	; 243
     1b2:	64 69       	ori	r22, 0x94	; 148
     1b4:	75 6d       	ori	r23, 0xD5	; 213
     1b6:	00 3c       	cpi	r16, 0xC0	; 192
     1b8:	61 72       	andi	r22, 0x21	; 33
     1ba:	74 69       	ori	r23, 0x94	; 148
     1bc:	66 69       	ori	r22, 0x96	; 150
     1be:	63 69       	ori	r22, 0x93	; 147
     1c0:	61 6c       	ori	r22, 0xC1	; 193
     1c2:	3e 00       	.word	0x003e	; ????
     1c4:	43 4d       	sbci	r20, 0xD3	; 211
     1c6:	44 5f       	subi	r20, 0xF4	; 244
     1c8:	43 6f       	ori	r20, 0xF3	; 243
     1ca:	6e 66       	ori	r22, 0x6E	; 110
     1cc:	69 67       	ori	r22, 0x79	; 121
     1ce:	55 70       	andi	r21, 0x05	; 5
     1d0:	64 61       	ori	r22, 0x14	; 20
     1d2:	74 65       	ori	r23, 0x54	; 84
     1d4:	2e 70       	andi	r18, 0x0E	; 14
     1d6:	61 72       	andi	r22, 0x21	; 33
     1d8:	74 2e       	mov	r7, r20
     1da:	34 00       	.word	0x0034	; ????
     1dc:	54 79       	andi	r21, 0x94	; 148
     1de:	70 69       	ori	r23, 0x90	; 144
     1e0:	63 61       	ori	r22, 0x13	; 19
     1e2:	6c 38       	cpi	r22, 0x8C	; 140
     1e4:	6d 6d       	ori	r22, 0xDD	; 221
     1e6:	50 69       	ori	r21, 0x90	; 144
     1e8:	78 65       	ori	r23, 0x58	; 88
     1ea:	6c 00       	.word	0x006c	; ????
     1ec:	5f 5f       	subi	r21, 0xFF	; 255
     1ee:	76 65       	ori	r23, 0x56	; 86
     1f0:	63 74       	andi	r22, 0x43	; 67
     1f2:	6f 72       	andi	r22, 0x2F	; 47
     1f4:	5f 31       	cpi	r21, 0x1F	; 31
     1f6:	36 00       	.word	0x0036	; ????
     1f8:	55 53       	subi	r21, 0x35	; 53
     1fa:	49 5f       	subi	r20, 0xF9	; 249
     1fc:	53 4c       	sbci	r21, 0xC3	; 195
     1fe:	41 56       	subi	r20, 0x61	; 97
     200:	45 5f       	subi	r20, 0xF5	; 245
     202:	47 45       	sbci	r20, 0x57	; 87
     204:	54 5f       	subi	r21, 0xF4	; 244
     206:	44 41       	sbci	r20, 0x14	; 20
     208:	54 41       	sbci	r21, 0x14	; 20
     20a:	5f 41       	sbci	r21, 0x1F	; 31
     20c:	4e 44       	sbci	r20, 0x4E	; 78
     20e:	5f 53       	subi	r21, 0x3F	; 63
     210:	45 4e       	sbci	r20, 0xE5	; 229
     212:	44 5f       	subi	r20, 0xF4	; 244
     214:	41 43       	sbci	r20, 0x31	; 49
     216:	4b 00       	.word	0x004b	; ????
     218:	4c 69       	ori	r20, 0x9C	; 156
     21a:	67 68       	ori	r22, 0x87	; 135
     21c:	74 53       	subi	r23, 0x34	; 52
     21e:	6b 79       	andi	r22, 0x9B	; 155
     220:	42 6c       	ori	r20, 0xC2	; 194
     222:	75 65       	ori	r23, 0x55	; 85
     224:	00 62       	ori	r16, 0x20	; 32
     226:	72 69       	ori	r23, 0x92	; 146
     228:	67 68       	ori	r22, 0x87	; 135
     22a:	74 6e       	ori	r23, 0xE4	; 228
     22c:	65 73       	andi	r22, 0x35	; 53
     22e:	73 00       	.word	0x0073	; ????
     230:	70 4c       	sbci	r23, 0xC0	; 192
     232:	65 64       	ori	r22, 0x45	; 69
     234:	00 44       	sbci	r16, 0x40	; 64
     236:	61 72       	andi	r22, 0x21	; 33
     238:	6b 47       	sbci	r22, 0x7B	; 123
     23a:	72 61       	ori	r23, 0x12	; 18
     23c:	79 00       	.word	0x0079	; ????
     23e:	54 6f       	ori	r21, 0xF4	; 244
     240:	6d 61       	ori	r22, 0x1D	; 29
     242:	74 6f       	ori	r23, 0xF4	; 244
     244:	00 6d       	ori	r16, 0xD0	; 208
     246:	4c 61       	ori	r20, 0x1C	; 28
     248:	73 74       	andi	r23, 0x43	; 67
     24a:	4d 69       	ori	r20, 0x9D	; 157
     24c:	63 72       	andi	r22, 0x23	; 35
     24e:	6f 73       	andi	r22, 0x3F	; 63
     250:	00 4c       	sbci	r16, 0xC0	; 192
     252:	69 67       	ori	r22, 0x79	; 121
     254:	68 74       	andi	r22, 0x48	; 72
     256:	43 79       	andi	r20, 0x93	; 147
     258:	61 6e       	ori	r22, 0xE1	; 225
     25a:	00 4c       	sbci	r16, 0xC0	; 192
     25c:	69 67       	ori	r22, 0x79	; 121
     25e:	68 74       	andi	r22, 0x48	; 72
     260:	50 69       	ori	r21, 0x90	; 144
     262:	6e 6b       	ori	r22, 0xBE	; 190
     264:	00 6c       	ori	r16, 0xC0	; 192
     266:	6f 6f       	ori	r22, 0xFF	; 255
     268:	70 76       	andi	r23, 0x60	; 96
     26a:	61 72       	andi	r22, 0x21	; 33
     26c:	00 43       	sbci	r16, 0x30	; 48
     26e:	6f 6f       	ori	r22, 0xFF	; 255
     270:	6c 57       	subi	r22, 0x7C	; 124
     272:	68 69       	ori	r22, 0x98	; 152
     274:	74 65       	ori	r23, 0x54	; 84
     276:	46 6c       	ori	r20, 0xC6	; 198
     278:	75 6f       	ori	r23, 0xF5	; 245
     27a:	72 65       	ori	r23, 0x52	; 82
     27c:	73 63       	ori	r23, 0x33	; 51
     27e:	65 6e       	ori	r22, 0xE5	; 229
     280:	74 00       	.word	0x0074	; ????
     282:	52 6f       	ori	r21, 0xF2	; 242
     284:	79 61       	ori	r23, 0x19	; 25
     286:	6c 42       	sbci	r22, 0x2C	; 44
     288:	6c 75       	andi	r22, 0x5C	; 92
     28a:	65 00       	.word	0x0065	; ????
     28c:	4d 69       	ori	r20, 0x9D	; 157
     28e:	64 6e       	ori	r22, 0xE4	; 228
     290:	69 67       	ori	r22, 0x79	; 121
     292:	68 74       	andi	r22, 0x48	; 72
     294:	42 6c       	ori	r20, 0xC2	; 194
     296:	75 65       	ori	r23, 0x55	; 85
     298:	00 75       	andi	r16, 0x50	; 80
     29a:	69 6e       	ori	r22, 0xE9	; 233
     29c:	74 33       	cpi	r23, 0x34	; 52
     29e:	32 5f       	subi	r19, 0xF2	; 242
     2a0:	74 00       	.word	0x0074	; ????
     2a2:	52 6f       	ori	r21, 0xF2	; 242
     2a4:	73 79       	andi	r23, 0x93	; 147
     2a6:	42 72       	andi	r20, 0x22	; 34
     2a8:	6f 77       	andi	r22, 0x7F	; 127
     2aa:	6e 00       	.word	0x006e	; ????
     2ac:	73 63       	ori	r23, 0x33	; 51
     2ae:	61 6c       	ori	r22, 0xC1	; 193
     2b0:	65 5f       	subi	r22, 0xF5	; 245
     2b2:	62 61       	ori	r22, 0x12	; 18
     2b4:	73 65       	ori	r23, 0x53	; 83
     2b6:	00 46       	sbci	r16, 0x60	; 96
     2b8:	6c 6f       	ori	r22, 0xFC	; 252
     2ba:	72 61       	ori	r23, 0x12	; 18
     2bc:	6c 57       	subi	r22, 0x7C	; 124
     2be:	68 69       	ori	r22, 0x98	; 152
     2c0:	74 65       	ori	r23, 0x54	; 84
     2c2:	00 6f       	ori	r16, 0xF0	; 240
     2c4:	77 6e       	ori	r23, 0xE7	; 231
     2c6:	41 64       	ori	r20, 0x41	; 65
     2c8:	64 72       	andi	r22, 0x24	; 36
     2ca:	65 73       	andi	r22, 0x35	; 53
     2cc:	73 00       	.word	0x0073	; ????
     2ce:	4f 72       	andi	r20, 0x2F	; 47
     2d0:	61 6e       	ori	r22, 0xE1	; 225
     2d2:	67 65       	ori	r22, 0x57	; 87
     2d4:	52 65       	ori	r21, 0x52	; 82
     2d6:	64 00       	.word	0x0064	; ????
     2d8:	63 6f       	ori	r22, 0xF3	; 243
     2da:	6c 6f       	ori	r22, 0xFC	; 252
     2dc:	72 43       	sbci	r23, 0x32	; 50
     2de:	6f 72       	andi	r22, 0x2F	; 47
     2e0:	72 65       	ori	r23, 0x52	; 82
     2e2:	63 74       	andi	r22, 0x43	; 67
     2e4:	69 6f       	ori	r22, 0xF9	; 249
     2e6:	6e 00       	.word	0x006e	; ????
     2e8:	5f 5a       	subi	r21, 0xAF	; 175
     2ea:	4e 38       	cpi	r20, 0x8E	; 142
     2ec:	43 4d       	sbci	r20, 0xD3	; 211
     2ee:	69 6e       	ori	r22, 0xE9	; 233
     2f0:	57 61       	ori	r21, 0x17	; 23
     2f2:	69 74       	andi	r22, 0x49	; 73
     2f4:	49 4c       	sbci	r20, 0xC9	; 201
     2f6:	69 31       	cpi	r22, 0x19	; 25
     2f8:	30 45       	sbci	r19, 0x50	; 80
     2fa:	45 43       	sbci	r20, 0x35	; 53
     2fc:	32 45       	sbci	r19, 0x52	; 82
     2fe:	76 00       	.word	0x0076	; ????
     300:	72 78       	andi	r23, 0x82	; 130
     302:	43 6f       	ori	r20, 0xF3	; 243
     304:	75 6e       	ori	r23, 0xE5	; 229
     306:	74 00       	.word	0x0074	; ????
     308:	73 63       	ori	r23, 0x33	; 51
     30a:	61 6c       	ori	r22, 0xC1	; 193
     30c:	65 38       	cpi	r22, 0x85	; 133
     30e:	00 73       	andi	r16, 0x30	; 48
     310:	68 6f       	ori	r22, 0xF8	; 248
     312:	77 4c       	sbci	r23, 0xC7	; 199
     314:	65 64       	ori	r22, 0x45	; 69
     316:	73 00       	.word	0x0073	; ????
     318:	70 65       	ori	r23, 0x50	; 80
     31a:	6e 64       	ori	r22, 0x4E	; 78
     31c:	5f 69       	ori	r21, 0x9F	; 159
     31e:	32 63       	ori	r19, 0x32	; 50
     320:	5f 73       	andi	r21, 0x3F	; 63
     322:	65 6e       	ori	r22, 0xE5	; 229
     324:	64 00       	.word	0x0064	; ????
     326:	73 65       	ori	r23, 0x53	; 83
     328:	74 4d       	sbci	r23, 0xD4	; 212
     32a:	61 78       	andi	r22, 0x81	; 129
     32c:	52 65       	ori	r21, 0x52	; 82
     32e:	66 72       	andi	r22, 0x26	; 38
     330:	65 73       	andi	r22, 0x35	; 53
     332:	68 52       	subi	r22, 0x28	; 40
     334:	61 74       	andi	r22, 0x41	; 65
     336:	65 00       	.word	0x0065	; ????
     338:	49 6e       	ori	r20, 0xE9	; 233
     33a:	64 69       	ori	r22, 0x94	; 148
     33c:	61 6e       	ori	r22, 0xE1	; 225
     33e:	52 65       	ori	r21, 0x52	; 82
     340:	64 00       	.word	0x0064	; ????
     342:	55 53       	subi	r21, 0x35	; 53
     344:	49 5f       	subi	r20, 0xF9	; 249
     346:	53 4c       	sbci	r21, 0xC3	; 195
     348:	41 56       	subi	r20, 0x61	; 97
     34a:	45 5f       	subi	r20, 0xF5	; 245
     34c:	53 45       	sbci	r21, 0x53	; 83
     34e:	4e 44       	sbci	r20, 0x4E	; 78
     350:	5f 44       	sbci	r21, 0x4F	; 79
     352:	41 54       	subi	r20, 0x41	; 65
     354:	41 00       	.word	0x0041	; ????
     356:	62 65       	ori	r22, 0x52	; 82
     358:	67 69       	ori	r22, 0x97	; 151
     35a:	6e 00       	.word	0x006e	; ????
     35c:	77 68       	ori	r23, 0x87	; 135
     35e:	69 63       	ori	r22, 0x39	; 57
     360:	68 43       	sbci	r22, 0x38	; 56
     362:	65 6c       	ori	r22, 0xC5	; 197
     364:	6c 00       	.word	0x006c	; ????
     366:	44 6f       	ori	r20, 0xF4	; 244
     368:	64 67       	ori	r22, 0x74	; 116
     36a:	65 72       	andi	r22, 0x25	; 37
     36c:	42 6c       	ori	r20, 0xC2	; 194
     36e:	75 65       	ori	r23, 0x55	; 85
     370:	00 44       	sbci	r16, 0x40	; 64
     372:	61 72       	andi	r22, 0x21	; 33
     374:	6b 4f       	sbci	r22, 0xFB	; 251
     376:	6c 69       	ori	r22, 0x9C	; 156
     378:	76 65       	ori	r23, 0x56	; 86
     37a:	47 72       	andi	r20, 0x27	; 39
     37c:	65 65       	ori	r22, 0x55	; 85
     37e:	6e 00       	.word	0x006e	; ????
     380:	43 72       	andi	r20, 0x23	; 35
     382:	69 6d       	ori	r22, 0xD9	; 217
     384:	73 6f       	ori	r23, 0xF3	; 243
     386:	6e 00       	.word	0x006e	; ????
     388:	44 61       	ori	r20, 0x14	; 20
     38a:	72 6b       	ori	r23, 0xB2	; 178
     38c:	43 79       	andi	r20, 0x93	; 147
     38e:	61 6e       	ori	r22, 0xE1	; 225
     390:	00 5f       	subi	r16, 0xF0	; 240
     392:	5f 76       	andi	r21, 0x6F	; 111
     394:	74 62       	ori	r23, 0x24	; 36
     396:	6c 5f       	subi	r22, 0xFC	; 252
     398:	70 74       	andi	r23, 0x40	; 64
     39a:	72 5f       	subi	r23, 0xF2	; 242
     39c:	74 79       	andi	r23, 0x94	; 148
     39e:	70 65       	ori	r23, 0x50	; 80
     3a0:	00 4c       	sbci	r16, 0xC0	; 192
     3a2:	61 76       	andi	r22, 0x61	; 97
     3a4:	65 6e       	ori	r22, 0xE5	; 229
     3a6:	64 65       	ori	r22, 0x54	; 84
     3a8:	72 42       	sbci	r23, 0x22	; 34
     3aa:	6c 75       	andi	r22, 0x5C	; 92
     3ac:	73 68       	ori	r23, 0x83	; 131
     3ae:	00 54       	subi	r16, 0x40	; 64
     3b0:	79 70       	andi	r23, 0x09	; 9
     3b2:	69 63       	ori	r22, 0x39	; 57
     3b4:	61 6c       	ori	r22, 0xC1	; 193
     3b6:	50 69       	ori	r21, 0x90	; 144
     3b8:	78 65       	ori	r23, 0x58	; 88
     3ba:	6c 53       	subi	r22, 0x3C	; 60
     3bc:	74 72       	andi	r23, 0x24	; 36
     3be:	69 6e       	ori	r22, 0xE9	; 233
     3c0:	67 00       	.word	0x0067	; ????
     3c2:	5f 5a       	subi	r21, 0xAF	; 175
     3c4:	4e 31       	cpi	r20, 0x1E	; 30
     3c6:	35 50       	subi	r19, 0x05	; 5
     3c8:	69 78       	andi	r22, 0x89	; 137
     3ca:	65 6c       	ori	r22, 0xC5	; 197
     3cc:	43 6f       	ori	r20, 0xF3	; 243
     3ce:	6e 74       	andi	r22, 0x4E	; 78
     3d0:	72 6f       	ori	r23, 0xF2	; 242
     3d2:	6c 6c       	ori	r22, 0xCC	; 204
     3d4:	65 72       	andi	r22, 0x25	; 37
     3d6:	49 4c       	sbci	r20, 0xC9	; 201
     3d8:	36 45       	sbci	r19, 0x56	; 86
     3da:	4f 72       	andi	r20, 0x2F	; 47
     3dc:	64 65       	ori	r22, 0x54	; 84
     3de:	72 31       	cpi	r23, 0x12	; 18
     3e0:	30 45       	sbci	r19, 0x50	; 80
     3e2:	4c 69       	ori	r20, 0x9C	; 156
     3e4:	31 45       	sbci	r19, 0x51	; 81
     3e6:	4c 6d       	ori	r20, 0xDC	; 220
     3e8:	34 32       	cpi	r19, 0x24	; 36
     3ea:	39 34       	cpi	r19, 0x49	; 73
     3ec:	39 36       	cpi	r19, 0x69	; 105
     3ee:	37 32       	cpi	r19, 0x27	; 39
     3f0:	39 35       	cpi	r19, 0x59	; 89
     3f2:	45 45       	sbci	r20, 0x55	; 85
     3f4:	34 73       	andi	r19, 0x34	; 52
     3f6:	69 7a       	andi	r22, 0xA9	; 169
     3f8:	65 45       	sbci	r22, 0x55	; 85
     3fa:	76 00       	.word	0x0076	; ????
     3fc:	57 68       	ori	r21, 0x87	; 135
     3fe:	65 61       	ori	r22, 0x15	; 21
     400:	74 00       	.word	0x0074	; ????
     402:	43 46       	sbci	r20, 0x63	; 99
     404:	61 73       	andi	r22, 0x31	; 49
     406:	74 4c       	sbci	r23, 0xC4	; 196
     408:	45 44       	sbci	r20, 0x45	; 69
     40a:	00 46       	sbci	r16, 0x60	; 96
     40c:	61 69       	ori	r22, 0x91	; 145
     40e:	72 79       	andi	r23, 0x92	; 146
     410:	4c 69       	ori	r20, 0x9C	; 156
     412:	67 68       	ori	r22, 0x87	; 135
     414:	74 4e       	sbci	r23, 0xE4	; 228
     416:	43 43       	sbci	r20, 0x33	; 51
     418:	00 57       	subi	r16, 0x70	; 112
     41a:	61 72       	andi	r22, 0x21	; 33
     41c:	6d 46       	sbci	r22, 0x6D	; 109
     41e:	6c 75       	andi	r22, 0x5C	; 92
     420:	6f 72       	andi	r22, 0x2F	; 47
     422:	65 73       	andi	r22, 0x35	; 53
     424:	63 65       	ori	r22, 0x53	; 83
     426:	6e 74       	andi	r22, 0x4E	; 78
     428:	00 42       	sbci	r16, 0x20	; 32
     42a:	6c 61       	ori	r22, 0x1C	; 28
     42c:	6e 63       	ori	r22, 0x3E	; 62
     42e:	68 65       	ori	r22, 0x58	; 88
     430:	64 41       	sbci	r22, 0x14	; 20
     432:	6c 6d       	ori	r22, 0xDC	; 220
     434:	6f 6e       	ori	r22, 0xEF	; 239
     436:	64 00       	.word	0x0064	; ????
     438:	2f 68       	ori	r18, 0x8F	; 143
     43a:	6f 6d       	ori	r22, 0xDF	; 223
     43c:	65 2f       	mov	r22, r21
     43e:	61 79       	andi	r22, 0x91	; 145
     440:	69 6c       	ori	r22, 0xC9	; 201
     442:	61 79       	andi	r22, 0x91	; 145
     444:	2f 77       	andi	r18, 0x7F	; 127
     446:	69 6e       	ori	r22, 0xE9	; 233
     448:	41 79       	andi	r20, 0x91	; 145
     44a:	69 6c       	ori	r22, 0xC9	; 201
     44c:	61 79       	andi	r22, 0x91	; 145
     44e:	2f 44       	sbci	r18, 0x4F	; 79
     450:	6f 63       	ori	r22, 0x3F	; 63
     452:	75 6d       	ori	r23, 0xD5	; 213
     454:	65 6e       	ori	r22, 0xE5	; 229
     456:	74 73       	andi	r23, 0x34	; 52
     458:	2f 50       	subi	r18, 0x0F	; 15
     45a:	72 6f       	ori	r23, 0xF2	; 242
     45c:	6a 65       	ori	r22, 0x5A	; 90
     45e:	63 74       	andi	r22, 0x43	; 67
     460:	73 2f       	mov	r23, r19
     462:	30 30       	cpi	r19, 0x00	; 0
     464:	30 31       	cpi	r19, 0x10	; 16
     466:	2d 48       	sbci	r18, 0x8D	; 141
     468:	65 78       	andi	r22, 0x85	; 133
     46a:	61 67       	ori	r22, 0x71	; 113
     46c:	6f 6e       	ori	r22, 0xEF	; 239
     46e:	43 6f       	ori	r20, 0xF3	; 243
     470:	66 66       	ori	r22, 0x66	; 102
     472:	65 65       	ori	r22, 0x55	; 85
     474:	54 61       	ori	r21, 0x14	; 20
     476:	62 6c       	ori	r22, 0xC2	; 194
     478:	65 2f       	mov	r22, r21
     47a:	53 6f       	ori	r21, 0xF3	; 243
     47c:	66 74       	andi	r22, 0x46	; 70
     47e:	77 61       	ori	r23, 0x17	; 23
     480:	72 65       	ori	r23, 0x52	; 82
     482:	2f 52       	subi	r18, 0x2F	; 47
     484:	6f 77       	andi	r22, 0x7F	; 127
     486:	43 6f       	ori	r20, 0xF3	; 243
     488:	6e 74       	andi	r22, 0x4E	; 78
     48a:	72 6f       	ori	r23, 0xF2	; 242
     48c:	6c 6c       	ori	r22, 0xCC	; 204
     48e:	65 72       	andi	r22, 0x25	; 37
     490:	00 70       	andi	r16, 0x00	; 0
     492:	65 6e       	ori	r22, 0xE5	; 229
     494:	64 5f       	subi	r22, 0xF4	; 244
     496:	69 32       	cpi	r22, 0x29	; 41
     498:	63 5f       	subi	r22, 0xF3	; 243
     49a:	72 65       	ori	r23, 0x52	; 82
     49c:	63 76       	andi	r22, 0x63	; 99
     49e:	00 5f       	subi	r16, 0xF0	; 240
     4a0:	5a 4e       	sbci	r21, 0xEA	; 234
     4a2:	31 35       	cpi	r19, 0x51	; 81
     4a4:	50 69       	ori	r21, 0x90	; 144
     4a6:	78 65       	ori	r23, 0x58	; 88
     4a8:	6c 43       	sbci	r22, 0x3C	; 60
     4aa:	6f 6e       	ori	r22, 0xEF	; 239
     4ac:	74 72       	andi	r23, 0x24	; 36
     4ae:	6f 6c       	ori	r22, 0xCF	; 207
     4b0:	6c 65       	ori	r22, 0x5C	; 92
     4b2:	72 49       	sbci	r23, 0x92	; 146
     4b4:	4c 36       	cpi	r20, 0x6C	; 108
     4b6:	45 4f       	sbci	r20, 0xF5	; 245
     4b8:	72 64       	ori	r23, 0x42	; 66
     4ba:	65 72       	andi	r22, 0x25	; 37
     4bc:	31 30       	cpi	r19, 0x01	; 1
     4be:	45 4c       	sbci	r20, 0xC5	; 197
     4c0:	69 31       	cpi	r22, 0x19	; 25
     4c2:	45 4c       	sbci	r20, 0xC5	; 197
     4c4:	6d 34       	cpi	r22, 0x4D	; 77
     4c6:	32 39       	cpi	r19, 0x92	; 146
     4c8:	34 39       	cpi	r19, 0x94	; 148
     4ca:	36 37       	cpi	r19, 0x76	; 118
     4cc:	32 39       	cpi	r19, 0x92	; 146
     4ce:	35 45       	sbci	r19, 0x55	; 85
     4d0:	45 32       	cpi	r20, 0x25	; 37
     4d2:	35 70       	andi	r19, 0x05	; 5
     4d4:	72 65       	ori	r23, 0x52	; 82
     4d6:	53 74       	andi	r21, 0x43	; 67
     4d8:	65 70       	andi	r22, 0x05	; 5
     4da:	46 69       	ori	r20, 0x96	; 150
     4dc:	72 73       	andi	r23, 0x32	; 50
     4de:	74 42       	sbci	r23, 0x24	; 36
     4e0:	79 74       	andi	r23, 0x49	; 73
     4e2:	65 44       	sbci	r22, 0x45	; 69
     4e4:	69 74       	andi	r22, 0x49	; 73
     4e6:	68 65       	ori	r22, 0x58	; 88
     4e8:	72 69       	ori	r23, 0x92	; 146
     4ea:	6e 67       	ori	r22, 0x7E	; 126
     4ec:	45 76       	andi	r20, 0x65	; 101
     4ee:	00 69       	ori	r16, 0x90	; 144
     4f0:	6e 69       	ori	r22, 0x9E	; 158
     4f2:	74 54       	subi	r23, 0x44	; 68
     4f4:	6f 6e       	ori	r22, 0xEF	; 239
     4f6:	65 54       	subi	r22, 0x45	; 69
     4f8:	69 6d       	ori	r22, 0xD9	; 217
     4fa:	65 72       	andi	r22, 0x25	; 37
     4fc:	49 6e       	ori	r20, 0xE9	; 233
     4fe:	74 65       	ori	r23, 0x54	; 84
     500:	72 6e       	ori	r23, 0xE2	; 226
     502:	61 6c       	ori	r22, 0xC1	; 193
     504:	00 50       	subi	r16, 0x00	; 0
     506:	6f 77       	andi	r22, 0x7F	; 127
     508:	64 65       	ori	r22, 0x54	; 84
     50a:	72 42       	sbci	r23, 0x22	; 34
     50c:	6c 75       	andi	r22, 0x5C	; 92
     50e:	65 00       	.word	0x0065	; ????
     510:	44 69       	ori	r20, 0x94	; 148
     512:	73 70       	andi	r23, 0x03	; 3
     514:	61 74       	andi	r22, 0x41	; 65
     516:	63 68       	ori	r22, 0x83	; 131
     518:	43 6f       	ori	r20, 0xF3	; 243
     51a:	6d 6d       	ori	r22, 0xDD	; 221
     51c:	61 6e       	ori	r22, 0xE1	; 225
     51e:	64 00       	.word	0x0064	; ????
     520:	41 6d       	ori	r20, 0xD1	; 209
     522:	65 74       	andi	r22, 0x45	; 69
     524:	68 79       	andi	r22, 0x98	; 152
     526:	73 74       	andi	r23, 0x43	; 67
     528:	00 44       	sbci	r16, 0x40	; 64
     52a:	65 65       	ori	r22, 0x55	; 85
     52c:	70 53       	subi	r23, 0x30	; 48
     52e:	6b 79       	andi	r22, 0x9B	; 155
     530:	42 6c       	ori	r20, 0xC2	; 194
     532:	75 65       	ori	r23, 0x55	; 85
     534:	00 70       	andi	r16, 0x00	; 0
     536:	69 78       	andi	r22, 0x89	; 137
     538:	65 6c       	ori	r22, 0xC5	; 197
     53a:	73 00       	.word	0x0073	; ????
     53c:	54 68       	ori	r21, 0x84	; 132
     53e:	69 73       	andi	r22, 0x39	; 57
     540:	74 6c       	ori	r23, 0xC4	; 196
     542:	65 00       	.word	0x0065	; ????
     544:	49 76       	andi	r20, 0x69	; 105
     546:	6f 72       	andi	r22, 0x2F	; 47
     548:	79 00       	.word	0x0079	; ????
     54a:	4f 6c       	ori	r20, 0xCF	; 207
     54c:	69 76       	andi	r22, 0x69	; 105
     54e:	65 00       	.word	0x0065	; ????
     550:	4c 61       	ori	r20, 0x1C	; 28
     552:	76 65       	ori	r23, 0x56	; 86
     554:	6e 64       	ori	r22, 0x4E	; 78
     556:	65 72       	andi	r22, 0x25	; 37
     558:	00 5f       	subi	r16, 0xF0	; 240
     55a:	5a 4e       	sbci	r21, 0xEA	; 234
     55c:	34 43       	sbci	r19, 0x34	; 52
     55e:	52 47       	sbci	r21, 0x72	; 114
     560:	42 43       	sbci	r20, 0x32	; 50
     562:	32 45       	sbci	r19, 0x52	; 82
     564:	31 38       	cpi	r19, 0x81	; 129
     566:	4c 45       	sbci	r20, 0x5C	; 92
     568:	44 43       	sbci	r20, 0x34	; 52
     56a:	6f 6c       	ori	r22, 0xCF	; 207
     56c:	6f 72       	andi	r22, 0x2F	; 47
     56e:	43 6f       	ori	r20, 0xF3	; 243
     570:	72 72       	andi	r23, 0x22	; 34
     572:	65 63       	ori	r22, 0x35	; 53
     574:	74 69       	ori	r23, 0x94	; 148
     576:	6f 6e       	ori	r22, 0xEF	; 239
     578:	00 65       	ori	r16, 0x50	; 80
     57a:	6e 61       	ori	r22, 0x1E	; 30
     57c:	62 6c       	ori	r22, 0xC2	; 194
     57e:	65 5f       	subi	r22, 0xF5	; 245
     580:	64 69       	ori	r22, 0x94	; 148
     582:	74 68       	ori	r23, 0x84	; 132
     584:	65 72       	andi	r22, 0x25	; 37
     586:	69 6e       	ori	r22, 0xE9	; 233
     588:	67 00       	.word	0x0067	; ????
     58a:	4d 65       	ori	r20, 0x5D	; 93
     58c:	64 69       	ori	r22, 0x94	; 148
     58e:	75 6d       	ori	r23, 0xD5	; 213
     590:	4f 72       	andi	r20, 0x2F	; 47
     592:	63 68       	ori	r22, 0x83	; 131
     594:	69 64       	ori	r22, 0x49	; 73
     596:	00 4d       	sbci	r16, 0xD0	; 208
     598:	65 64       	ori	r22, 0x45	; 69
     59a:	69 75       	andi	r22, 0x59	; 89
     59c:	6d 53       	subi	r22, 0x3D	; 61
     59e:	65 61       	ori	r22, 0x15	; 21
     5a0:	47 72       	andi	r20, 0x27	; 39
     5a2:	65 65       	ori	r22, 0x55	; 85
     5a4:	6e 00       	.word	0x006e	; ????
     5a6:	72 65       	ori	r23, 0x52	; 82
     5a8:	73 75       	andi	r23, 0x53	; 83
     5aa:	6c 74       	andi	r22, 0x4C	; 76
     5ac:	00 72       	andi	r16, 0x20	; 32
     5ae:	74 6e       	ori	r23, 0xE4	; 228
     5b0:	5f 62       	ori	r21, 0x2F	; 47
     5b2:	79 74       	andi	r23, 0x49	; 73
     5b4:	65 00       	.word	0x0065	; ????
     5b6:	4d 65       	ori	r20, 0x5D	; 93
     5b8:	64 69       	ori	r22, 0x94	; 148
     5ba:	75 6d       	ori	r23, 0xD5	; 213
     5bc:	53 6c       	ori	r21, 0xC3	; 195
     5be:	61 74       	andi	r22, 0x41	; 65
     5c0:	65 42       	sbci	r22, 0x25	; 37
     5c2:	6c 75       	andi	r22, 0x5C	; 92
     5c4:	65 00       	.word	0x0065	; ????
     5c6:	57 53       	subi	r21, 0x37	; 55
     5c8:	32 38       	cpi	r19, 0x82	; 130
     5ca:	31 32       	cpi	r19, 0x21	; 33
     5cc:	00 50       	subi	r16, 0x00	; 0
     5ce:	61 6c       	ori	r22, 0xC1	; 193
     5d0:	65 56       	subi	r22, 0x65	; 101
     5d2:	69 6f       	ori	r22, 0xF9	; 249
     5d4:	6c 65       	ori	r22, 0x5C	; 92
     5d6:	74 52       	subi	r23, 0x24	; 36
     5d8:	65 64       	ori	r22, 0x45	; 69
     5da:	00 53       	subi	r16, 0x30	; 48
     5dc:	74 61       	ori	r23, 0x14	; 20
     5de:	6e 64       	ori	r22, 0x4E	; 78
     5e0:	61 72       	andi	r22, 0x21	; 33
     5e2:	64 46       	sbci	r22, 0x64	; 100
     5e4:	6c 75       	andi	r22, 0x5C	; 92
     5e6:	6f 72       	andi	r22, 0x2F	; 47
     5e8:	65 73       	andi	r22, 0x35	; 53
     5ea:	63 65       	ori	r22, 0x53	; 83
     5ec:	6e 74       	andi	r22, 0x4E	; 78
     5ee:	00 4d       	sbci	r16, 0xD0	; 208
     5f0:	65 72       	andi	r22, 0x25	; 37
     5f2:	63 75       	andi	r22, 0x53	; 83
     5f4:	72 79       	andi	r23, 0x92	; 146
     5f6:	56 61       	ori	r21, 0x16	; 22
     5f8:	70 6f       	ori	r23, 0xF0	; 240
     5fa:	72 00       	.word	0x0072	; ????
     5fc:	75 73       	andi	r23, 0x35	; 53
     5fe:	69 54       	subi	r22, 0x49	; 73
     600:	77 69       	ori	r23, 0x97	; 151
     602:	41 6d       	ori	r20, 0xD1	; 209
     604:	6f 75       	andi	r22, 0x5F	; 95
     606:	6e 74       	andi	r22, 0x4E	; 78
     608:	44 61       	ori	r20, 0x14	; 20
     60a:	74 61       	ori	r23, 0x14	; 20
     60c:	49 6e       	ori	r20, 0xE9	; 233
     60e:	52 65       	ori	r21, 0x52	; 82
     610:	63 65       	ori	r22, 0x53	; 83
     612:	69 76       	andi	r22, 0x69	; 105
     614:	65 42       	sbci	r22, 0x25	; 37
     616:	75 66       	ori	r23, 0x65	; 101
     618:	66 65       	ori	r22, 0x56	; 86
     61a:	72 00       	.word	0x0072	; ????
     61c:	66 6f       	ori	r22, 0xF6	; 246
     61e:	72 63       	ori	r23, 0x32	; 50
     620:	65 00       	.word	0x0065	; ????
     622:	6e 4f       	sbci	r22, 0xFE	; 254
     624:	66 66       	ori	r22, 0x66	; 102
     626:	73 65       	ori	r23, 0x53	; 83
     628:	74 00       	.word	0x0074	; ????
     62a:	63 6f       	ori	r22, 0xF3	; 243
     62c:	6c 6f       	ori	r22, 0xFC	; 252
     62e:	72 63       	ori	r23, 0x32	; 50
     630:	6f 64       	ori	r22, 0x4F	; 79
     632:	65 00       	.word	0x0065	; ????
     634:	49 53       	subi	r20, 0x39	; 57
     636:	52 5f       	subi	r21, 0xF2	; 242
     638:	49 32       	cpi	r20, 0x29	; 41
     63a:	43 5f       	subi	r20, 0xF3	; 243
     63c:	53 65       	ori	r21, 0x53	; 83
     63e:	6e 64       	ori	r22, 0x4E	; 78
     640:	00 72       	andi	r16, 0x20	; 32
     642:	65 67       	ori	r22, 0x75	; 117
     644:	38 5f       	subi	r19, 0xF8	; 248
     646:	74 00       	.word	0x0074	; ????
     648:	6d 41       	sbci	r22, 0x1D	; 29
     64a:	64 76       	andi	r22, 0x64	; 100
     64c:	61 6e       	ori	r22, 0xE1	; 225
     64e:	63 65       	ori	r22, 0x53	; 83
     650:	00 55       	subi	r16, 0x50	; 80
     652:	70 64       	ori	r23, 0x40	; 64
     654:	61 74       	andi	r22, 0x41	; 65
     656:	65 57       	subi	r22, 0x75	; 117
     658:	6f 72       	andi	r22, 0x2F	; 47
     65a:	6b 00       	.word	0x006b	; ????
     65c:	6d 5f       	subi	r22, 0xFD	; 253
     65e:	43 6f       	ori	r20, 0xF3	; 243
     660:	6c 6f       	ori	r22, 0xFC	; 252
     662:	72 54       	subi	r23, 0x42	; 66
     664:	65 6d       	ori	r22, 0xD5	; 213
     666:	70 65       	ori	r23, 0x50	; 80
     668:	72 61       	ori	r23, 0x12	; 18
     66a:	74 75       	andi	r23, 0x54	; 84
     66c:	72 65       	ori	r23, 0x52	; 82
     66e:	00 70       	andi	r16, 0x00	; 0
     670:	72 65       	ori	r23, 0x52	; 82
     672:	53 74       	andi	r21, 0x43	; 67
     674:	65 70       	andi	r22, 0x05	; 5
     676:	46 69       	ori	r20, 0x96	; 150
     678:	72 73       	andi	r23, 0x32	; 50
     67a:	74 42       	sbci	r23, 0x24	; 36
     67c:	79 74       	andi	r23, 0x49	; 73
     67e:	65 44       	sbci	r22, 0x45	; 69
     680:	69 74       	andi	r22, 0x49	; 73
     682:	68 65       	ori	r22, 0x58	; 88
     684:	72 69       	ori	r23, 0x92	; 146
     686:	6e 67       	ori	r22, 0x7E	; 126
     688:	00 53       	subi	r16, 0x30	; 48
     68a:	69 6c       	ori	r22, 0xC9	; 201
     68c:	76 65       	ori	r23, 0x56	; 86
     68e:	72 00       	.word	0x0072	; ????
     690:	43 4d       	sbci	r20, 0xD3	; 211
     692:	44 5f       	subi	r20, 0xF4	; 244
     694:	53 65       	ori	r21, 0x53	; 83
     696:	74 43       	sbci	r23, 0x34	; 52
     698:	65 6c       	ori	r22, 0xC5	; 197
     69a:	6c 33       	cpi	r22, 0x3C	; 60
     69c:	42 2e       	mov	r4, r18
     69e:	70 61       	ori	r23, 0x10	; 16
     6a0:	72 74       	andi	r23, 0x42	; 66
     6a2:	2e 33       	cpi	r18, 0x3E	; 62
     6a4:	00 4f       	sbci	r16, 0xF0	; 240
     6a6:	76 65       	ori	r23, 0x56	; 86
     6a8:	72 63       	ori	r23, 0x32	; 50
     6aa:	61 73       	andi	r22, 0x31	; 49
     6ac:	74 53       	subi	r23, 0x34	; 52
     6ae:	6b 79       	andi	r22, 0x9B	; 155
     6b0:	00 4d       	sbci	r16, 0xD0	; 208
     6b2:	6f 63       	ori	r22, 0x3F	; 63
     6b4:	63 61       	ori	r22, 0x13	; 19
     6b6:	73 69       	ori	r23, 0x93	; 147
     6b8:	6e 00       	.word	0x006e	; ????
     6ba:	72 78       	andi	r23, 0x82	; 130
     6bc:	42 75       	andi	r20, 0x52	; 82
     6be:	66 00       	.word	0x0066	; ????
     6c0:	4c 69       	ori	r20, 0x9C	; 156
     6c2:	67 68       	ori	r22, 0x87	; 135
     6c4:	74 53       	subi	r23, 0x34	; 52
     6c6:	6c 61       	ori	r22, 0x1C	; 28
     6c8:	74 65       	ori	r23, 0x54	; 84
     6ca:	47 72       	andi	r20, 0x27	; 39
     6cc:	61 79       	andi	r22, 0x91	; 145
     6ce:	00 78       	andi	r16, 0x80	; 128
     6d0:	32 35       	cpi	r19, 0x52	; 82
     6d2:	36 74       	andi	r19, 0x46	; 70
     6d4:	68 73       	andi	r22, 0x38	; 56
     6d6:	00 6d       	ori	r16, 0xD0	; 208
     6d8:	5f 6e       	ori	r21, 0xEF	; 239
     6da:	4d 69       	ori	r20, 0x9D	; 157
     6dc:	6e 4d       	sbci	r22, 0xDE	; 222
     6de:	69 63       	ori	r22, 0x39	; 57
     6e0:	72 6f       	ori	r23, 0xF2	; 242
     6e2:	73 00       	.word	0x0073	; ????
     6e4:	6e 4c       	sbci	r22, 0xCE	; 206
     6e6:	65 64       	ori	r22, 0x45	; 69
     6e8:	73 4f       	sbci	r23, 0xF3	; 243
     6ea:	72 4f       	sbci	r23, 0xF2	; 242
     6ec:	66 66       	ori	r22, 0x66	; 102
     6ee:	73 65       	ori	r23, 0x53	; 83
     6f0:	74 00       	.word	0x0074	; ????
     6f2:	4c 69       	ori	r20, 0x9C	; 156
     6f4:	67 68       	ori	r22, 0x87	; 135
     6f6:	74 47       	sbci	r23, 0x74	; 116
     6f8:	6f 6c       	ori	r22, 0xCF	; 207
     6fa:	64 65       	ori	r22, 0x54	; 84
     6fc:	6e 72       	andi	r22, 0x2E	; 46
     6fe:	6f 64       	ori	r22, 0x4F	; 79
     700:	59 65       	ori	r21, 0x59	; 89
     702:	6c 6c       	ori	r22, 0xCC	; 204
     704:	6f 77       	andi	r22, 0x7F	; 127
     706:	00 4c       	sbci	r16, 0xC0	; 192
     708:	69 6d       	ori	r22, 0xD9	; 217
     70a:	65 00       	.word	0x0065	; ????
     70c:	55 6e       	ori	r21, 0xE5	; 229
     70e:	63 6f       	ori	r22, 0xF3	; 243
     710:	72 72       	andi	r23, 0x22	; 34
     712:	65 63       	ori	r22, 0x35	; 53
     714:	74 65       	ori	r23, 0x54	; 84
     716:	64 43       	sbci	r22, 0x34	; 52
     718:	6f 6c       	ori	r22, 0xCF	; 207
     71a:	6f 72       	andi	r22, 0x2F	; 47
     71c:	00 6c       	ori	r16, 0xC0	; 192
     71e:	65 64       	ori	r22, 0x45	; 69
     720:	49 6e       	ori	r20, 0xE9	; 233
     722:	43 65       	ori	r20, 0x53	; 83
     724:	6c 6c       	ori	r22, 0xCC	; 204
     726:	00 50       	subi	r16, 0x00	; 0
     728:	61 6c       	ori	r22, 0xC1	; 193
     72a:	65 54       	subi	r22, 0x45	; 69
     72c:	75 72       	andi	r23, 0x25	; 37
     72e:	71 75       	andi	r23, 0x51	; 81
     730:	6f 69       	ori	r22, 0x9F	; 159
     732:	73 65       	ori	r23, 0x53	; 83
     734:	00 75       	andi	r16, 0x50	; 80
     736:	73 69       	ori	r23, 0x93	; 147
     738:	54 77       	andi	r21, 0x74	; 116
     73a:	69 54       	subi	r22, 0x49	; 73
     73c:	72 61       	ori	r23, 0x12	; 18
     73e:	6e 73       	andi	r22, 0x3E	; 62
     740:	6d 69       	ori	r22, 0x9D	; 157
     742:	74 42       	sbci	r23, 0x24	; 36
     744:	79 74       	andi	r23, 0x49	; 73
     746:	65 00       	.word	0x0065	; ????
     748:	6f 76       	andi	r22, 0x6F	; 111
     74a:	65 72       	andi	r22, 0x25	; 37
     74c:	66 6c       	ori	r22, 0xC6	; 198
     74e:	6f 77       	andi	r22, 0x7F	; 127
     750:	53 74       	andi	r21, 0x43	; 67
     752:	61 74       	andi	r22, 0x41	; 65
     754:	65 5f       	subi	r22, 0xF5	; 245
     756:	74 00       	.word	0x0074	; ????
     758:	70 61       	ori	r23, 0x10	; 16
     75a:	79 6c       	ori	r23, 0xC9	; 201
     75c:	6f 61       	ori	r22, 0x1F	; 31
     75e:	64 00       	.word	0x0064	; ????
     760:	6f 66       	ori	r22, 0x6F	; 111
     762:	66 73       	andi	r22, 0x36	; 54
     764:	65 74       	andi	r22, 0x45	; 69
     766:	00 44       	sbci	r16, 0x40	; 64
     768:	61 72       	andi	r22, 0x21	; 33
     76a:	6b 56       	subi	r22, 0x6B	; 107
     76c:	69 6f       	ori	r22, 0xF9	; 249
     76e:	6c 65       	ori	r22, 0x5C	; 92
     770:	74 00       	.word	0x0074	; ????
     772:	72 78       	andi	r23, 0x82	; 130
     774:	54 61       	ori	r21, 0x14	; 20
     776:	69 6c       	ori	r22, 0xC9	; 201
     778:	00 6d       	ori	r16, 0xD0	; 208
     77a:	4c 65       	ori	r20, 0x5C	; 92
     77c:	6e 00       	.word	0x006e	; ????
     77e:	63 6f       	ori	r22, 0xF3	; 243
     780:	6c 6f       	ori	r22, 0xFC	; 252
     782:	72 54       	subi	r23, 0x42	; 66
     784:	65 6d       	ori	r22, 0xD5	; 213
     786:	70 65       	ori	r23, 0x50	; 80
     788:	72 61       	ori	r23, 0x12	; 18
     78a:	74 75       	andi	r23, 0x54	; 84
     78c:	72 65       	ori	r23, 0x52	; 82
     78e:	00 44       	sbci	r16, 0x40	; 64
     790:	61 72       	andi	r22, 0x21	; 33
     792:	6b 52       	subi	r22, 0x2B	; 43
     794:	65 64       	ori	r22, 0x45	; 69
     796:	00 73       	andi	r16, 0x30	; 48
     798:	68 6f       	ori	r22, 0xF8	; 248
     79a:	77 50       	subi	r23, 0x07	; 7
     79c:	69 78       	andi	r22, 0x89	; 137
     79e:	65 6c       	ori	r22, 0xC5	; 197
     7a0:	73 00       	.word	0x0073	; ????
     7a2:	5f 5f       	subi	r21, 0xFF	; 255
     7a4:	70 72       	andi	r23, 0x20	; 32
     7a6:	69 6f       	ori	r22, 0xF9	; 249
     7a8:	72 69       	ori	r23, 0x92	; 146
     7aa:	74 79       	andi	r23, 0x94	; 148
     7ac:	00 48       	sbci	r16, 0x80	; 128
     7ae:	6f 6e       	ori	r22, 0xEF	; 239
     7b0:	65 79       	andi	r22, 0x95	; 149
     7b2:	64 65       	ori	r22, 0x54	; 84
     7b4:	77 00       	.word	0x0077	; ????
     7b6:	69 6e       	ori	r22, 0xE9	; 233
     7b8:	69 74       	andi	r22, 0x49	; 73
     7ba:	4f 66       	ori	r20, 0x6F	; 111
     7bc:	66 73       	andi	r22, 0x36	; 54
     7be:	65 74       	andi	r22, 0x45	; 69
     7c0:	73 00       	.word	0x0073	; ????
     7c2:	54 79       	andi	r21, 0x94	; 148
     7c4:	70 69       	ori	r23, 0x90	; 144
     7c6:	63 61       	ori	r22, 0x13	; 19
     7c8:	6c 4c       	sbci	r22, 0xCC	; 204
     7ca:	45 44       	sbci	r20, 0x45	; 69
     7cc:	53 74       	andi	r21, 0x43	; 67
     7ce:	72 69       	ori	r23, 0x92	; 146
     7d0:	70 00       	.word	0x0070	; ????
     7d2:	6d 53       	subi	r22, 0x3D	; 61
     7d4:	63 61       	ori	r22, 0x13	; 19
     7d6:	6c 65       	ori	r22, 0x5C	; 92
     7d8:	00 5f       	subi	r16, 0xF0	; 240
     7da:	5f 69       	ori	r21, 0x9F	; 159
     7dc:	6e 69       	ori	r22, 0x9E	; 158
     7de:	74 69       	ori	r23, 0x94	; 148
     7e0:	61 6c       	ori	r22, 0xC1	; 193
     7e2:	69 7a       	andi	r22, 0xA9	; 169
     7e4:	65 5f       	subi	r22, 0xF5	; 245
     7e6:	70 00       	.word	0x0070	; ????
     7e8:	59 65       	ori	r21, 0x59	; 89
     7ea:	6c 6c       	ori	r22, 0xCC	; 204
     7ec:	6f 77       	andi	r22, 0x7F	; 127
     7ee:	47 72       	andi	r20, 0x27	; 39
     7f0:	65 65       	ori	r22, 0x55	; 85
     7f2:	6e 00       	.word	0x006e	; ????
     7f4:	73 68       	ori	r23, 0x83	; 131
     7f6:	6f 77       	andi	r22, 0x7F	; 127
     7f8:	52 47       	sbci	r21, 0x72	; 114
     7fa:	42 49       	sbci	r20, 0x92	; 146
     7fc:	6e 74       	andi	r22, 0x4E	; 78
     7fe:	65 72       	andi	r22, 0x25	; 37
     800:	6e 61       	ori	r22, 0x1E	; 30
     802:	6c 00       	.word	0x006c	; ????
     804:	53 69       	ori	r21, 0x93	; 147
     806:	65 6e       	ori	r22, 0xE5	; 229
     808:	6e 61       	ori	r22, 0x1E	; 30
     80a:	00 4d       	sbci	r16, 0xD0	; 208
     80c:	69 73       	andi	r22, 0x39	; 57
     80e:	74 79       	andi	r23, 0x94	; 148
     810:	52 6f       	ori	r21, 0xF2	; 242
     812:	73 65       	ori	r23, 0x53	; 83
     814:	00 4c       	sbci	r16, 0xC0	; 192
     816:	65 6d       	ori	r22, 0xD5	; 213
     818:	6f 6e       	ori	r22, 0xEF	; 239
     81a:	43 68       	ori	r20, 0x83	; 131
     81c:	69 66       	ori	r22, 0x69	; 105
     81e:	66 6f       	ori	r22, 0xF6	; 246
     820:	6e 00       	.word	0x006e	; ????
     822:	6d 44       	sbci	r22, 0x4D	; 77
     824:	61 74       	andi	r22, 0x41	; 65
     826:	61 00       	.word	0x0061	; ????
     828:	6e 46       	sbci	r22, 0x6E	; 110
     82a:	72 61       	ori	r23, 0x12	; 18
     82c:	6d 65       	ori	r22, 0x5D	; 93
     82e:	73 00       	.word	0x0073	; ????
     830:	70 43       	sbci	r23, 0x30	; 48
     832:	74 78       	andi	r23, 0x84	; 132
     834:	00 43       	sbci	r16, 0x30	; 48
     836:	4d 44       	sbci	r20, 0x4D	; 77
     838:	5f 43       	sbci	r21, 0x3F	; 63
     83a:	6f 6e       	ori	r22, 0xEF	; 239
     83c:	66 69       	ori	r22, 0x96	; 150
     83e:	67 55       	subi	r22, 0x57	; 87
     840:	70 64       	ori	r23, 0x40	; 64
     842:	61 74       	andi	r22, 0x41	; 65
     844:	65 00       	.word	0x0065	; ????
     846:	64 69       	ori	r22, 0x94	; 148
     848:	74 68       	ori	r23, 0x84	; 132
     84a:	65 72       	andi	r22, 0x25	; 37
     84c:	00 70       	andi	r16, 0x00	; 0
     84e:	6f 72       	andi	r22, 0x2F	; 47
     850:	74 00       	.word	0x0074	; ????
     852:	6d 5f       	subi	r22, 0xFD	; 253
     854:	70 48       	sbci	r23, 0x80	; 128
     856:	65 61       	ori	r22, 0x15	; 21
     858:	64 00       	.word	0x0064	; ????
     85a:	4c 69       	ori	r20, 0x9C	; 156
     85c:	67 68       	ori	r22, 0x87	; 135
     85e:	74 43       	sbci	r23, 0x34	; 52
     860:	6f 72       	andi	r22, 0x2F	; 47
     862:	61 6c       	ori	r22, 0xC1	; 193
     864:	00 5f       	subi	r16, 0xF0	; 240
     866:	47 4c       	sbci	r20, 0xC7	; 199
     868:	4f 42       	sbci	r20, 0x2F	; 47
     86a:	41 4c       	sbci	r20, 0xC1	; 193
     86c:	5f 5f       	subi	r21, 0xFF	; 255
     86e:	73 75       	andi	r23, 0x53	; 83
     870:	62 5f       	subi	r22, 0xF2	; 242
     872:	49 5f       	subi	r20, 0xF9	; 249
     874:	70 53       	subi	r23, 0x30	; 48
     876:	6d 61       	ori	r22, 0x1D	; 29
     878:	72 74       	andi	r23, 0x42	; 66
     87a:	4d 61       	ori	r20, 0x1D	; 29
     87c:	74 72       	andi	r23, 0x24	; 36
     87e:	69 78       	andi	r22, 0x89	; 137
     880:	00 66       	ori	r16, 0x60	; 96
     882:	72 61       	ori	r23, 0x12	; 18
     884:	63 74       	andi	r22, 0x43	; 67
     886:	38 00       	.word	0x0038	; ????
     888:	5f 5a       	subi	r21, 0xAF	; 175
     88a:	33 5f       	subi	r19, 0xF3	; 243
     88c:	64 63       	ori	r22, 0x34	; 52
     88e:	49 4c       	sbci	r20, 0xC9	; 201
     890:	69 31       	cpi	r22, 0x19	; 25
     892:	45 45       	sbci	r20, 0x55	; 85
     894:	76 52       	subi	r23, 0x26	; 38
     896:	68 00       	.word	0x0068	; ????
     898:	4c 69       	ori	r20, 0x9C	; 156
     89a:	6e 65       	ori	r22, 0x5E	; 94
     89c:	6e 00       	.word	0x006e	; ????
     89e:	73 74       	andi	r23, 0x43	; 67
     8a0:	61 74       	andi	r22, 0x41	; 65
     8a2:	65 5f       	subi	r22, 0xF5	; 245
     8a4:	74 00       	.word	0x0074	; ????
     8a6:	42 6c       	ori	r20, 0xC2	; 194
     8a8:	61 63       	ori	r22, 0x31	; 49
     8aa:	6b 00       	.word	0x006b	; ????
     8ac:	4c 69       	ori	r20, 0x9C	; 156
     8ae:	67 68       	ori	r22, 0x87	; 135
     8b0:	74 42       	sbci	r23, 0x24	; 36
     8b2:	6c 75       	andi	r22, 0x5C	; 92
     8b4:	65 00       	.word	0x0065	; ????
     8b6:	74 78       	andi	r23, 0x84	; 132
     8b8:	43 6f       	ori	r20, 0xF3	; 243
     8ba:	75 6e       	ori	r23, 0xE5	; 229
     8bc:	74 00       	.word	0x0074	; ????
     8be:	6d 5f       	subi	r22, 0xFD	; 253
     8c0:	43 6f       	ori	r20, 0xF3	; 243
     8c2:	6c 6f       	ori	r22, 0xFC	; 252
     8c4:	72 43       	sbci	r23, 0x32	; 50
     8c6:	6f 72       	andi	r22, 0x2F	; 47
     8c8:	72 65       	ori	r23, 0x52	; 82
     8ca:	63 74       	andi	r22, 0x43	; 67
     8cc:	69 6f       	ori	r22, 0xF9	; 249
     8ce:	6e 00       	.word	0x006e	; ????
     8d0:	64 61       	ori	r22, 0x14	; 20
     8d2:	74 61       	ori	r23, 0x14	; 20
     8d4:	00 41       	sbci	r16, 0x10	; 16
     8d6:	6e 74       	andi	r22, 0x4E	; 78
     8d8:	69 71       	andi	r22, 0x19	; 25
     8da:	75 65       	ori	r23, 0x55	; 85
     8dc:	57 68       	ori	r21, 0x87	; 135
     8de:	69 74       	andi	r22, 0x49	; 73
     8e0:	65 00       	.word	0x0065	; ????
     8e2:	46 75       	andi	r20, 0x56	; 86
     8e4:	63 68       	ori	r22, 0x83	; 131
     8e6:	73 69       	ori	r23, 0x93	; 147
     8e8:	61 00       	.word	0x0061	; ????
     8ea:	75 69       	ori	r23, 0x95	; 149
     8ec:	6e 74       	andi	r22, 0x4E	; 78
     8ee:	38 5f       	subi	r19, 0xF8	; 248
     8f0:	74 00       	.word	0x0074	; ????
     8f2:	54 75       	andi	r21, 0x54	; 84
     8f4:	6e 67       	ori	r22, 0x7E	; 126
     8f6:	73 74       	andi	r23, 0x43	; 67
     8f8:	65 6e       	ori	r22, 0xE5	; 229
     8fa:	34 30       	cpi	r19, 0x04	; 4
     8fc:	57 00       	.word	0x0057	; ????
     8fe:	73 6c       	ori	r23, 0xC3	; 195
     900:	61 76       	andi	r22, 0x61	; 97
     902:	65 41       	sbci	r22, 0x15	; 21
     904:	64 64       	ori	r22, 0x44	; 68
     906:	72 00       	.word	0x0072	; ????
     908:	4d 65       	ori	r20, 0x5D	; 93
     90a:	64 69       	ori	r22, 0x94	; 148
     90c:	75 6d       	ori	r23, 0xD5	; 213
     90e:	56 69       	ori	r21, 0x96	; 150
     910:	6f 6c       	ori	r22, 0xCF	; 207
     912:	65 74       	andi	r22, 0x45	; 69
     914:	52 65       	ori	r21, 0x52	; 82
     916:	64 00       	.word	0x0064	; ????
     918:	43 4d       	sbci	r20, 0xD3	; 211
     91a:	44 5f       	subi	r20, 0xF4	; 244
     91c:	53 65       	ori	r21, 0x53	; 83
     91e:	74 52       	subi	r23, 0x24	; 36
     920:	6f 77       	andi	r22, 0x7F	; 127
     922:	33 42       	sbci	r19, 0x23	; 35
     924:	2e 70       	andi	r18, 0x0E	; 14
     926:	61 72       	andi	r22, 0x21	; 33
     928:	74 2e       	mov	r7, r20
     92a:	32 00       	.word	0x0032	; ????
     92c:	6d 4f       	sbci	r22, 0xFD	; 253
     92e:	66 66       	ori	r22, 0x66	; 102
     930:	73 65       	ori	r23, 0x53	; 83
     932:	74 73       	andi	r23, 0x34	; 52
     934:	00 43       	sbci	r16, 0x30	; 48
     936:	4d 44       	sbci	r20, 0x4D	; 77
     938:	5f 53       	subi	r21, 0x3F	; 63
     93a:	65 74       	andi	r22, 0x45	; 69
     93c:	43 65       	ori	r20, 0x53	; 83
     93e:	6c 6c       	ori	r22, 0xCC	; 204
     940:	33 42       	sbci	r19, 0x23	; 35
     942:	00 6d       	ori	r16, 0xD0	; 208
     944:	69 63       	ori	r22, 0x39	; 57
     946:	72 6f       	ori	r23, 0xF2	; 242
     948:	73 00       	.word	0x0073	; ????
     94a:	43 52       	subi	r20, 0x23	; 35
     94c:	47 42       	sbci	r20, 0x27	; 39
     94e:	00 63       	ori	r16, 0x30	; 48
     950:	6f 6e       	ori	r22, 0xEF	; 239
     952:	73 74       	andi	r23, 0x43	; 67
     954:	72 61       	ori	r23, 0x12	; 18
     956:	69 6e       	ori	r22, 0xE9	; 233
     958:	00 44       	sbci	r16, 0x40	; 64
     95a:	61 72       	andi	r22, 0x21	; 33
     95c:	6b 53       	subi	r22, 0x3B	; 59
     95e:	6c 61       	ori	r22, 0x1C	; 28
     960:	74 65       	ori	r23, 0x54	; 84
     962:	47 72       	andi	r20, 0x27	; 39
     964:	61 79       	andi	r22, 0x91	; 145
     966:	00 5f       	subi	r16, 0xF0	; 240
     968:	5a 4e       	sbci	r21, 0xEA	; 234
     96a:	38 43       	sbci	r19, 0x38	; 56
     96c:	46 61       	ori	r20, 0x16	; 22
     96e:	73 74       	andi	r23, 0x43	; 67
     970:	4c 45       	sbci	r20, 0x5C	; 92
     972:	44 31       	cpi	r20, 0x14	; 20
     974:	37 73       	andi	r19, 0x37	; 55
     976:	65 74       	andi	r22, 0x45	; 69
     978:	4d 61       	ori	r20, 0x1D	; 29
     97a:	78 52       	subi	r23, 0x28	; 40
     97c:	65 66       	ori	r22, 0x65	; 101
     97e:	72 65       	ori	r23, 0x52	; 82
     980:	73 68       	ori	r23, 0x83	; 131
     982:	52 61       	ori	r21, 0x12	; 18
     984:	74 65       	ori	r23, 0x54	; 84
     986:	45 6a       	ori	r20, 0xA5	; 165
     988:	62 2e       	mov	r6, r18
     98a:	70 61       	ori	r23, 0x10	; 16
     98c:	72 74       	andi	r23, 0x42	; 66
     98e:	2e 33       	cpi	r18, 0x3E	; 62
     990:	00 53       	subi	r16, 0x30	; 48
     992:	6e 6f       	ori	r22, 0xFE	; 254
     994:	77 00       	.word	0x0077	; ????
     996:	57 53       	subi	r21, 0x37	; 55
     998:	32 38       	cpi	r19, 0x82	; 130
     99a:	31 32       	cpi	r19, 0x21	; 33
     99c:	43 6f       	ori	r20, 0xF3	; 243
     99e:	6e 74       	andi	r22, 0x4E	; 78
     9a0:	72 6f       	ori	r23, 0xF2	; 242
     9a2:	6c 6c       	ori	r22, 0xCC	; 204
     9a4:	65 72       	andi	r22, 0x25	; 37
     9a6:	38 30       	cpi	r19, 0x08	; 8
     9a8:	30 4b       	sbci	r19, 0xB0	; 176
     9aa:	68 7a       	andi	r22, 0xA8	; 168
     9ac:	00 53       	subi	r16, 0x30	; 48
     9ae:	61 6e       	ori	r22, 0xE1	; 225
     9b0:	64 79       	andi	r22, 0x94	; 148
     9b2:	42 72       	andi	r20, 0x22	; 34
     9b4:	6f 77       	andi	r22, 0x7F	; 127
     9b6:	6e 00       	.word	0x006e	; ????
     9b8:	50 61       	ori	r21, 0x10	; 16
     9ba:	6c 65       	ori	r22, 0x5C	; 92
     9bc:	47 6f       	ori	r20, 0xF7	; 247
     9be:	6c 64       	ori	r22, 0x4C	; 76
     9c0:	65 6e       	ori	r22, 0xE5	; 229
     9c2:	72 6f       	ori	r23, 0xF2	; 242
     9c4:	64 00       	.word	0x0064	; ????
     9c6:	73 63       	ori	r23, 0x33	; 51
     9c8:	61 6c       	ori	r22, 0xC1	; 193
     9ca:	65 31       	cpi	r22, 0x15	; 21
     9cc:	36 62       	ori	r19, 0x26	; 38
     9ce:	79 38       	cpi	r23, 0x89	; 137
     9d0:	00 6d       	ori	r16, 0xD0	; 208
     9d2:	69 6c       	ori	r22, 0xC9	; 201
     9d4:	6c 69       	ori	r22, 0x9C	; 156
     9d6:	73 5f       	subi	r23, 0xF3	; 243
     9d8:	74 69       	ori	r23, 0x94	; 148
     9da:	6d 65       	ori	r22, 0x5D	; 93
     9dc:	72 5f       	subi	r23, 0xF2	; 242
     9de:	6f 76       	andi	r22, 0x6F	; 111
     9e0:	65 72       	andi	r22, 0x25	; 37
     9e2:	66 6c       	ori	r22, 0xC6	; 198
     9e4:	6f 77       	andi	r22, 0x7F	; 127
     9e6:	5f 63       	ori	r21, 0x3F	; 63
     9e8:	6f 75       	andi	r22, 0x5F	; 95
     9ea:	6e 74       	andi	r22, 0x4E	; 78
     9ec:	00 77       	andi	r16, 0x70	; 112
     9ee:	72 69       	ori	r23, 0x92	; 146
     9f0:	74 65       	ori	r23, 0x54	; 84
     9f2:	00 6e       	ori	r16, 0xE0	; 224
     9f4:	4c 65       	ori	r20, 0x5C	; 92
     9f6:	64 73       	andi	r22, 0x34	; 52
     9f8:	49 66       	ori	r20, 0x69	; 105
     9fa:	4f 66       	ori	r20, 0x6F	; 111
     9fc:	66 73       	andi	r22, 0x36	; 54
     9fe:	65 74       	andi	r22, 0x45	; 69
     a00:	00 43       	sbci	r16, 0x30	; 48
     a02:	61 72       	andi	r22, 0x21	; 33
     a04:	62 6f       	ori	r22, 0xF2	; 242
     a06:	6e 41       	sbci	r22, 0x1E	; 30
     a08:	72 63       	ori	r23, 0x32	; 50
     a0a:	00 44       	sbci	r16, 0x40	; 64
     a0c:	61 72       	andi	r22, 0x21	; 33
     a0e:	6b 53       	subi	r22, 0x3B	; 59
     a10:	6c 61       	ori	r22, 0x1C	; 28
     a12:	74 65       	ori	r23, 0x54	; 84
     a14:	42 6c       	ori	r20, 0xC2	; 194
     a16:	75 65       	ori	r23, 0x55	; 85
     a18:	00 6c       	ori	r16, 0xC0	; 192
     a1a:	61 73       	andi	r22, 0x31	; 49
     a1c:	74 66       	ori	r23, 0x64	; 100
     a1e:	72 61       	ori	r23, 0x12	; 18
     a20:	6d 65       	ori	r22, 0x5D	; 93
     a22:	00 4d       	sbci	r16, 0xD0	; 208
     a24:	61 72       	andi	r22, 0x21	; 33
     a26:	6f 6f       	ori	r22, 0xFF	; 255
     a28:	6e 00       	.word	0x006e	; ????
     a2a:	6d 61       	ori	r22, 0x1D	; 29
     a2c:	72 6b       	ori	r23, 0xB2	; 178
     a2e:	00 46       	sbci	r16, 0x60	; 96
     a30:	61 69       	ori	r22, 0x91	; 145
     a32:	72 79       	andi	r23, 0x92	; 146
     a34:	4c 69       	ori	r20, 0x9C	; 156
     a36:	67 68       	ori	r22, 0x87	; 135
     a38:	74 00       	.word	0x0074	; ????
     a3a:	55 50       	subi	r21, 0x05	; 5
     a3c:	44 41       	sbci	r20, 0x14	; 20
     a3e:	54 45       	sbci	r21, 0x54	; 84
     a40:	5f 49       	sbci	r21, 0x9F	; 159
     a42:	4d 4d       	sbci	r20, 0xDD	; 221
     a44:	45 44       	sbci	r20, 0x45	; 69
     a46:	49 41       	sbci	r20, 0x19	; 25
     a48:	54 45       	sbci	r21, 0x54	; 84
     a4a:	4c 59       	subi	r20, 0x9C	; 156
     a4c:	00 6d       	ori	r16, 0xD0	; 208
     a4e:	5f 6e       	ori	r21, 0xEF	; 239
     a50:	50 6f       	ori	r21, 0xF0	; 240
     a52:	77 65       	ori	r23, 0x57	; 87
     a54:	72 44       	sbci	r23, 0x42	; 66
     a56:	61 74       	andi	r22, 0x41	; 65
     a58:	61 00       	.word	0x0061	; ????
     a5a:	62 6f       	ori	r22, 0xF2	; 242
     a5c:	6f 6c       	ori	r22, 0xCF	; 207
     a5e:	00 73       	andi	r16, 0x30	; 48
     a60:	65 74       	andi	r22, 0x45	; 69
     a62:	4f 75       	andi	r20, 0x5F	; 95
     a64:	74 70       	andi	r23, 0x04	; 4
     a66:	75 74       	andi	r23, 0x45	; 69
     a68:	00 67       	ori	r16, 0x70	; 112
     a6a:	54 69       	ori	r21, 0x94	; 148
     a6c:	6d 65       	ori	r22, 0x5D	; 93
     a6e:	45 72       	andi	r20, 0x25	; 37
     a70:	72 6f       	ori	r23, 0xF2	; 242
     a72:	72 41       	sbci	r23, 0x12	; 18
     a74:	63 63       	ori	r22, 0x33	; 51
     a76:	75 6d       	ori	r23, 0xD5	; 213
     a78:	32 35       	cpi	r19, 0x52	; 82
     a7a:	36 74       	andi	r19, 0x46	; 70
     a7c:	68 73       	andi	r22, 0x38	; 56
     a7e:	00 44       	sbci	r16, 0x40	; 64
     a80:	61 72       	andi	r22, 0x21	; 33
     a82:	6b 4b       	sbci	r22, 0xBB	; 187
     a84:	68 61       	ori	r22, 0x18	; 24
     a86:	6b 69       	ori	r22, 0x9B	; 155
     a88:	00 4d       	sbci	r16, 0xD0	; 208
     a8a:	65 64       	ori	r22, 0x45	; 69
     a8c:	69 75       	andi	r22, 0x59	; 89
     a8e:	6d 54       	subi	r22, 0x4D	; 77
     a90:	75 72       	andi	r23, 0x25	; 37
     a92:	71 75       	andi	r23, 0x51	; 81
     a94:	6f 69       	ori	r22, 0x9F	; 159
     a96:	73 65       	ori	r23, 0x53	; 83
     a98:	00 73       	andi	r16, 0x30	; 48
     a9a:	65 74       	andi	r22, 0x45	; 69
     a9c:	44 69       	ori	r20, 0x94	; 148
     a9e:	74 68       	ori	r23, 0x84	; 132
     aa0:	65 72       	andi	r22, 0x25	; 37
     aa2:	00 73       	andi	r16, 0x30	; 48
     aa4:	63 61       	ori	r22, 0x13	; 19
     aa6:	6c 65       	ori	r22, 0x5C	; 92
     aa8:	00 5f       	subi	r16, 0xF0	; 240
     aaa:	5a 4e       	sbci	r21, 0xEA	; 234
     aac:	31 34       	cpi	r19, 0x41	; 65
     aae:	43 4c       	sbci	r20, 0xC3	; 195
     ab0:	45 44       	sbci	r20, 0x45	; 69
     ab2:	43 6f       	ori	r20, 0xF3	; 243
     ab4:	6e 74       	andi	r22, 0x4E	; 78
     ab6:	72 6f       	ori	r23, 0xF2	; 242
     ab8:	6c 6c       	ori	r22, 0xCC	; 204
     aba:	65 72       	andi	r22, 0x25	; 37
     abc:	39 73       	andi	r19, 0x39	; 57
     abe:	65 74       	andi	r22, 0x45	; 69
     ac0:	44 69       	ori	r20, 0x94	; 148
     ac2:	74 68       	ori	r23, 0x84	; 132
     ac4:	65 72       	andi	r22, 0x25	; 37
     ac6:	45 68       	ori	r20, 0x85	; 133
     ac8:	00 55       	subi	r16, 0x50	; 80
     aca:	53 49       	sbci	r21, 0x93	; 147
     acc:	5f 53       	subi	r21, 0x3F	; 63
     ace:	4c 41       	sbci	r20, 0x1C	; 28
     ad0:	56 45       	sbci	r21, 0x56	; 86
     ad2:	5f 43       	sbci	r21, 0x3F	; 63
     ad4:	48 45       	sbci	r20, 0x58	; 88
     ad6:	43 4b       	sbci	r20, 0xB3	; 179
     ad8:	5f 52       	subi	r21, 0x2F	; 47
     ada:	45 50       	subi	r20, 0x05	; 5
     adc:	4c 59       	subi	r20, 0x9C	; 156
     ade:	5f 46       	sbci	r21, 0x6F	; 111
     ae0:	52 4f       	sbci	r21, 0xF2	; 242
     ae2:	4d 5f       	subi	r20, 0xFD	; 253
     ae4:	53 45       	sbci	r21, 0x53	; 83
     ae6:	4e 44       	sbci	r20, 0x4E	; 78
     ae8:	5f 44       	sbci	r21, 0x4F	; 79
     aea:	41 54       	subi	r20, 0x41	; 65
     aec:	41 00       	.word	0x0041	; ????
     aee:	70 43       	sbci	r23, 0x30	; 48
     af0:	75 72       	andi	r23, 0x25	; 37
     af2:	00 49       	sbci	r16, 0x90	; 144
     af4:	6e 64       	ori	r22, 0x4E	; 78
     af6:	69 67       	ori	r22, 0x79	; 121
     af8:	6f 00       	.word	0x006f	; ????
     afa:	53 61       	ori	r21, 0x13	; 19
     afc:	64 64       	ori	r22, 0x44	; 68
     afe:	6c 65       	ori	r22, 0x5C	; 92
     b00:	42 72       	andi	r20, 0x22	; 34
     b02:	6f 77       	andi	r22, 0x7F	; 127
     b04:	6e 00       	.word	0x006e	; ????
     b06:	64 61       	ori	r22, 0x14	; 20
     b08:	74 61       	ori	r23, 0x14	; 20
     b0a:	5f 70       	andi	r21, 0x0F	; 15
     b0c:	74 72       	andi	r23, 0x24	; 36
     b0e:	5f 74       	andi	r21, 0x4F	; 79
     b10:	00 63       	ori	r16, 0x30	; 48
     b12:	6c 65       	ori	r22, 0x5C	; 92
     b14:	61 72       	andi	r22, 0x21	; 33
     b16:	4c 65       	ori	r20, 0x5C	; 92
     b18:	64 73       	andi	r22, 0x34	; 52
     b1a:	00 48       	sbci	r16, 0x80	; 128
     b1c:	6f 74       	andi	r22, 0x4F	; 79
     b1e:	50 69       	ori	r21, 0x90	; 144
     b20:	6e 6b       	ori	r22, 0xBE	; 190
     b22:	00 73       	andi	r16, 0x30	; 48
     b24:	69 7a       	andi	r22, 0xA9	; 169
     b26:	65 00       	.word	0x0065	; ????
     b28:	43 68       	ori	r20, 0x83	; 131
     b2a:	61 72       	andi	r22, 0x21	; 33
     b2c:	74 72       	andi	r23, 0x24	; 36
     b2e:	65 75       	andi	r22, 0x55	; 85
     b30:	73 65       	ori	r23, 0x53	; 83
     b32:	00 54       	subi	r16, 0x40	; 64
     b34:	65 61       	ori	r22, 0x15	; 21
     b36:	6c 00       	.word	0x006c	; ????
     b38:	43 50       	subi	r20, 0x03	; 3
     b3a:	69 78       	andi	r22, 0x89	; 137
     b3c:	65 6c       	ori	r22, 0xC5	; 197
     b3e:	4c 45       	sbci	r20, 0x5C	; 92
     b40:	44 43       	sbci	r20, 0x34	; 52
     b42:	6f 6e       	ori	r22, 0xEF	; 239
     b44:	74 72       	andi	r23, 0x24	; 36
     b46:	6f 6c       	ori	r22, 0xCF	; 207
     b48:	6c 65       	ori	r22, 0x5C	; 92
     b4a:	72 00       	.word	0x0072	; ????
     b4c:	69 6e       	ori	r22, 0xE9	; 233
     b4e:	69 74       	andi	r22, 0x49	; 73
     b50:	5f 62       	ori	r21, 0x2F	; 47
     b52:	69 6e       	ori	r22, 0xE9	; 233
     b54:	61 72       	andi	r22, 0x21	; 33
     b56:	79 5f       	subi	r23, 0xF9	; 249
     b58:	64 69       	ori	r22, 0x94	; 148
     b5a:	74 68       	ori	r23, 0x84	; 132
     b5c:	65 72       	andi	r22, 0x25	; 37
     b5e:	69 6e       	ori	r22, 0xE9	; 233
     b60:	67 00       	.word	0x0067	; ????
     b62:	47 72       	andi	r20, 0x27	; 39
     b64:	6f 77       	andi	r22, 0x7F	; 127
     b66:	4c 69       	ori	r20, 0x9C	; 156
     b68:	67 68       	ori	r22, 0x87	; 135
     b6a:	74 46       	sbci	r23, 0x64	; 100
     b6c:	6c 75       	andi	r22, 0x5C	; 92
     b6e:	6f 72       	andi	r22, 0x2F	; 47
     b70:	65 73       	andi	r22, 0x35	; 53
     b72:	63 65       	ori	r22, 0x53	; 83
     b74:	6e 74       	andi	r22, 0x4E	; 78
     b76:	00 6d       	ori	r16, 0xD0	; 208
     b78:	69 6c       	ori	r22, 0xC9	; 201
     b7a:	6c 69       	ori	r22, 0x9C	; 156
     b7c:	73 5f       	subi	r23, 0xF3	; 243
     b7e:	74 69       	ori	r23, 0x94	; 148
     b80:	6d 65       	ori	r22, 0x5D	; 93
     b82:	72 5f       	subi	r23, 0xF2	; 242
     b84:	66 72       	andi	r22, 0x26	; 38
     b86:	61 63       	ori	r22, 0x31	; 49
     b88:	74 00       	.word	0x0074	; ????
     b8a:	6f 6e       	ori	r22, 0xEF	; 239
     b8c:	52 65       	ori	r21, 0x52	; 82
     b8e:	71 75       	andi	r23, 0x51	; 81
     b90:	65 73       	andi	r22, 0x35	; 53
     b92:	74 00       	.word	0x0074	; ????
     b94:	43 4d       	sbci	r20, 0xD3	; 211
     b96:	44 5f       	subi	r20, 0xF4	; 244
     b98:	53 65       	ori	r21, 0x53	; 83
     b9a:	74 52       	subi	r23, 0x24	; 36
     b9c:	6f 77       	andi	r22, 0x7F	; 127
     b9e:	33 42       	sbci	r19, 0x23	; 35
     ba0:	00 6d       	ori	r16, 0xD0	; 208
     ba2:	61 73       	andi	r22, 0x31	; 49
     ba4:	6b 00       	.word	0x006b	; ????
     ba6:	55 53       	subi	r21, 0x35	; 53
     ba8:	49 5f       	subi	r20, 0xF9	; 249
     baa:	53 4c       	sbci	r21, 0xC3	; 195
     bac:	41 56       	subi	r20, 0x61	; 97
     bae:	45 5f       	subi	r20, 0xF5	; 245
     bb0:	43 48       	sbci	r20, 0x83	; 131
     bb2:	45 43       	sbci	r20, 0x35	; 53
     bb4:	4b 5f       	subi	r20, 0xFB	; 251
     bb6:	41 44       	sbci	r20, 0x41	; 65
     bb8:	44 52       	subi	r20, 0x24	; 36
     bba:	45 53       	subi	r20, 0x35	; 53
     bbc:	53 00       	.word	0x0053	; ????
     bbe:	43 6f       	ori	r20, 0xF3	; 243
     bc0:	72 6e       	ori	r23, 0xE2	; 226
     bc2:	73 69       	ori	r23, 0x93	; 147
     bc4:	6c 6b       	ori	r22, 0xBC	; 188
     bc6:	00 54       	subi	r16, 0x40	; 64
     bc8:	79 70       	andi	r23, 0x09	; 9
     bca:	69 63       	ori	r22, 0x39	; 57
     bcc:	61 6c       	ori	r22, 0xC1	; 193
     bce:	53 4d       	sbci	r21, 0xD3	; 211
     bd0:	44 35       	cpi	r20, 0x54	; 84
     bd2:	30 35       	cpi	r19, 0x50	; 80
     bd4:	30 00       	.word	0x0030	; ????
     bd6:	46 6f       	ori	r20, 0xF6	; 246
     bd8:	72 65       	ori	r23, 0x52	; 82
     bda:	73 74       	andi	r23, 0x43	; 67
     bdc:	47 72       	andi	r20, 0x27	; 39
     bde:	65 65       	ori	r22, 0x55	; 85
     be0:	6e 00       	.word	0x006e	; ????
     be2:	77 61       	ori	r23, 0x17	; 23
     be4:	69 74       	andi	r22, 0x49	; 73
     be6:	00 5f       	subi	r16, 0xF0	; 240
     be8:	5a 4e       	sbci	r21, 0xEA	; 234
     bea:	34 43       	sbci	r19, 0x34	; 52
     bec:	52 47       	sbci	r21, 0x72	; 114
     bee:	42 43       	sbci	r20, 0x32	; 50
     bf0:	32 45       	sbci	r19, 0x52	; 82
     bf2:	6d 00       	.word	0x006d	; ????
     bf4:	73 75       	andi	r23, 0x53	; 83
     bf6:	62 5f       	subi	r22, 0xF2	; 242
     bf8:	63 6d       	ori	r22, 0xD3	; 211
     bfa:	64 00       	.word	0x0064	; ????
     bfc:	48 61       	ori	r20, 0x18	; 24
     bfe:	6c 6f       	ori	r22, 0xFC	; 252
     c00:	67 65       	ori	r22, 0x57	; 87
     c02:	6e 00       	.word	0x006e	; ????
     c04:	74 78       	andi	r23, 0x84	; 132
     c06:	42 75       	andi	r20, 0x52	; 82
     c08:	66 00       	.word	0x0066	; ????
     c0a:	4f 6c       	ori	r20, 0xCF	; 207
     c0c:	69 76       	andi	r22, 0x69	; 105
     c0e:	65 44       	sbci	r22, 0x45	; 69
     c10:	72 61       	ori	r23, 0x12	; 18
     c12:	62 00       	.word	0x0062	; ????
     c14:	75 70       	andi	r23, 0x05	; 5
     c16:	64 61       	ori	r22, 0x14	; 20
     c18:	74 65       	ori	r23, 0x54	; 84
     c1a:	4d 6f       	ori	r20, 0xFD	; 253
     c1c:	64 65       	ori	r22, 0x54	; 84
     c1e:	00 46       	sbci	r16, 0x60	; 96
     c20:	75 6c       	ori	r23, 0xC5	; 197
     c22:	6c 53       	subi	r22, 0x3C	; 60
     c24:	70 65       	ori	r23, 0x50	; 80
     c26:	63 74       	andi	r22, 0x43	; 67
     c28:	72 75       	andi	r23, 0x52	; 82
     c2a:	6d 46       	sbci	r22, 0x6D	; 109
     c2c:	6c 75       	andi	r22, 0x5C	; 92
     c2e:	6f 72       	andi	r22, 0x2F	; 47
     c30:	65 73       	andi	r22, 0x35	; 53
     c32:	63 65       	ori	r22, 0x53	; 83
     c34:	6e 74       	andi	r22, 0x4E	; 78
     c36:	00 6c       	ori	r16, 0xC0	; 192
     c38:	65 64       	ori	r22, 0x45	; 69
     c3a:	73 00       	.word	0x0073	; ????
     c3c:	4d 65       	ori	r20, 0x5D	; 93
     c3e:	74 61       	ori	r23, 0x14	; 20
     c40:	6c 48       	sbci	r22, 0x8C	; 140
     c42:	61 6c       	ori	r22, 0xC1	; 193
     c44:	69 64       	ori	r22, 0x49	; 73
     c46:	65 00       	.word	0x0065	; ????
     c48:	50 61       	ori	r21, 0x10	; 16
     c4a:	6c 65       	ori	r22, 0x5C	; 92
     c4c:	47 72       	andi	r20, 0x27	; 39
     c4e:	65 65       	ori	r22, 0x55	; 85
     c50:	6e 00       	.word	0x006e	; ????
     c52:	55 50       	subi	r21, 0x05	; 5
     c54:	44 41       	sbci	r20, 0x14	; 20
     c56:	54 45       	sbci	r21, 0x54	; 84
     c58:	5f 57       	subi	r21, 0x7F	; 127
     c5a:	41 49       	sbci	r20, 0x91	; 145
     c5c:	54 00       	.word	0x0054	; ????
     c5e:	67 72       	andi	r22, 0x27	; 39
     c60:	65 65       	ori	r22, 0x55	; 85
     c62:	6e 00       	.word	0x006e	; ????
     c64:	5f 76       	andi	r21, 0x6F	; 111
     c66:	70 74       	andi	r23, 0x40	; 64
     c68:	72 2e       	mov	r7, r18
     c6a:	43 4c       	sbci	r20, 0xC3	; 195
     c6c:	45 44       	sbci	r20, 0x45	; 69
     c6e:	43 6f       	ori	r20, 0xF3	; 243
     c70:	6e 74       	andi	r22, 0x4E	; 78
     c72:	72 6f       	ori	r23, 0xF2	; 242
     c74:	6c 6c       	ori	r22, 0xCC	; 204
     c76:	65 72       	andi	r22, 0x25	; 37
     c78:	00 44       	sbci	r16, 0x40	; 64
     c7a:	61 72       	andi	r22, 0x21	; 33
     c7c:	6b 53       	subi	r22, 0x3B	; 59
     c7e:	61 6c       	ori	r22, 0xC1	; 193
     c80:	6d 6f       	ori	r22, 0xFD	; 253
     c82:	6e 00       	.word	0x006e	; ????
     c84:	70 6f       	ori	r23, 0xF0	; 240
     c86:	77 65       	ori	r23, 0x57	; 87
     c88:	72 5f       	subi	r23, 0xF2	; 242
     c8a:	66 75       	andi	r22, 0x56	; 86
     c8c:	6e 63       	ori	r22, 0x3E	; 62
     c8e:	00 6d       	ori	r16, 0xD0	; 208
     c90:	5f 70       	andi	r21, 0x0F	; 15
     c92:	54 61       	ori	r21, 0x14	; 20
     c94:	69 6c       	ori	r22, 0xC9	; 201
     c96:	00 75       	andi	r16, 0x50	; 80
     c98:	69 6e       	ori	r22, 0xE9	; 233
     c9a:	74 31       	cpi	r23, 0x14	; 20
     c9c:	36 5f       	subi	r19, 0xF6	; 246
     c9e:	74 00       	.word	0x0074	; ????
     ca0:	47 68       	ori	r20, 0x87	; 135
     ca2:	6f 73       	andi	r22, 0x3F	; 63
     ca4:	74 57       	subi	r23, 0x74	; 116
     ca6:	68 69       	ori	r22, 0x98	; 152
     ca8:	74 65       	ori	r23, 0x54	; 84
     caa:	00 6d       	ori	r16, 0xD0	; 208
     cac:	57 61       	ori	r21, 0x17	; 23
     cae:	69 74       	andi	r22, 0x49	; 73
     cb0:	00 5f       	subi	r16, 0xF0	; 240
     cb2:	5a 4e       	sbci	r21, 0xEA	; 234
     cb4:	31 35       	cpi	r19, 0x51	; 81
     cb6:	50 69       	ori	r21, 0x90	; 144
     cb8:	78 65       	ori	r23, 0x58	; 88
     cba:	6c 43       	sbci	r22, 0x3C	; 60
     cbc:	6f 6e       	ori	r22, 0xEF	; 239
     cbe:	74 72       	andi	r23, 0x24	; 36
     cc0:	6f 6c       	ori	r22, 0xCF	; 207
     cc2:	6c 65       	ori	r22, 0x5C	; 92
     cc4:	72 49       	sbci	r23, 0x92	; 146
     cc6:	4c 36       	cpi	r20, 0x6C	; 108
     cc8:	45 4f       	sbci	r20, 0xF5	; 245
     cca:	72 64       	ori	r23, 0x42	; 66
     ccc:	65 72       	andi	r22, 0x25	; 37
     cce:	31 30       	cpi	r19, 0x01	; 1
     cd0:	45 4c       	sbci	r20, 0xC5	; 197
     cd2:	69 31       	cpi	r22, 0x19	; 25
     cd4:	45 4c       	sbci	r20, 0xC5	; 197
     cd6:	6d 34       	cpi	r22, 0x4D	; 77
     cd8:	32 39       	cpi	r19, 0x92	; 146
     cda:	34 39       	cpi	r19, 0x94	; 148
     cdc:	36 37       	cpi	r19, 0x76	; 118
     cde:	32 39       	cpi	r19, 0x92	; 146
     ce0:	35 45       	sbci	r19, 0x55	; 85
     ce2:	45 39       	cpi	r20, 0x95	; 149
     ce4:	61 64       	ori	r22, 0x41	; 65
     ce6:	76 61       	ori	r23, 0x16	; 22
     ce8:	6e 63       	ori	r22, 0x3E	; 62
     cea:	65 42       	sbci	r22, 0x25	; 37
     cec:	79 45       	sbci	r23, 0x59	; 89
     cee:	76 00       	.word	0x0076	; ????
     cf0:	74 68       	ori	r23, 0x84	; 132
     cf2:	69 73       	andi	r22, 0x39	; 57
     cf4:	00 74       	andi	r16, 0x40	; 64
     cf6:	78 48       	sbci	r23, 0x88	; 136
     cf8:	65 61       	ori	r22, 0x15	; 21
     cfa:	64 00       	.word	0x0064	; ????
     cfc:	43 68       	ori	r20, 0x83	; 131
     cfe:	6f 63       	ori	r22, 0x3F	; 63
     d00:	6f 6c       	ori	r22, 0xCF	; 207
     d02:	61 74       	andi	r22, 0x41	; 65
     d04:	65 00       	.word	0x0065	; ????
     d06:	6c 61       	ori	r22, 0x1C	; 28
     d08:	6e 65       	ori	r22, 0x5E	; 94
     d0a:	73 00       	.word	0x0073	; ????
     d0c:	5f 5f       	subi	r21, 0xFF	; 255
     d0e:	62 61       	ori	r22, 0x12	; 18
     d10:	73 65       	ori	r23, 0x53	; 83
     d12:	5f 63       	ori	r21, 0x3F	; 63
     d14:	74 6f       	ori	r23, 0xF4	; 244
     d16:	72 20       	and	r7, r2
     d18:	00 43       	sbci	r16, 0x30	; 48
     d1a:	61 64       	ori	r22, 0x41	; 65
     d1c:	65 74       	andi	r22, 0x45	; 69
     d1e:	42 6c       	ori	r20, 0xC2	; 194
     d20:	75 65       	ori	r23, 0x55	; 85
     d22:	00 44       	sbci	r16, 0x40	; 64
     d24:	69 6d       	ori	r22, 0xD9	; 217
     d26:	47 72       	andi	r20, 0x27	; 39
     d28:	61 79       	andi	r22, 0x91	; 145
     d2a:	00 6d       	ori	r16, 0xD0	; 208
     d2c:	69 6c       	ori	r22, 0xC9	; 201
     d2e:	6c 69       	ori	r22, 0x9C	; 156
     d30:	73 5f       	subi	r23, 0xF3	; 243
     d32:	74 69       	ori	r23, 0x94	; 148
     d34:	6d 65       	ori	r22, 0x5D	; 93
     d36:	72 5f       	subi	r23, 0xF2	; 242
     d38:	6d 69       	ori	r22, 0x9D	; 157
     d3a:	6c 6c       	ori	r22, 0xCC	; 204
     d3c:	69 73       	andi	r22, 0x39	; 57
     d3e:	00 41       	sbci	r16, 0x10	; 16
     d40:	71 75       	andi	r23, 0x51	; 81
     d42:	61 00       	.word	0x0061	; ????
     d44:	63 6d       	ori	r22, 0xD3	; 211
     d46:	64 5f       	subi	r22, 0xF4	; 244
     d48:	63 74       	andi	r22, 0x43	; 67
     d4a:	78 00       	.word	0x0078	; ????
     d4c:	55 6e       	ori	r21, 0xE5	; 229
     d4e:	63 6f       	ori	r22, 0xF3	; 243
     d50:	72 72       	andi	r23, 0x22	; 34
     d52:	65 63       	ori	r22, 0x35	; 53
     d54:	74 65       	ori	r23, 0x54	; 84
     d56:	64 54       	subi	r22, 0x44	; 68
     d58:	65 6d       	ori	r22, 0xD5	; 213
     d5a:	70 65       	ori	r23, 0x50	; 80
     d5c:	72 61       	ori	r23, 0x12	; 18
     d5e:	74 75       	andi	r23, 0x54	; 84
     d60:	72 65       	ori	r23, 0x52	; 82
     d62:	00 6d       	ori	r16, 0xD0	; 208
     d64:	5f 70       	andi	r21, 0x0F	; 15
     d66:	50 6f       	ori	r21, 0xF0	; 240
     d68:	77 65       	ori	r23, 0x57	; 87
     d6a:	72 46       	sbci	r23, 0x62	; 98
     d6c:	75 6e       	ori	r23, 0xE5	; 229
     d6e:	63 00       	.word	0x0063	; ????
     d70:	73 68       	ori	r23, 0x83	; 131
     d72:	6f 77       	andi	r22, 0x7F	; 127
     d74:	43 6f       	ori	r20, 0xF3	; 243
     d76:	6c 6f       	ori	r22, 0xFC	; 252
     d78:	72 00       	.word	0x0072	; ????
     d7a:	53 6f       	ori	r21, 0xF3	; 243
     d7c:	64 69       	ori	r22, 0x94	; 148
     d7e:	75 6d       	ori	r23, 0xD5	; 213
     d80:	56 61       	ori	r21, 0x16	; 22
     d82:	70 6f       	ori	r23, 0xF0	; 240
     d84:	72 00       	.word	0x0072	; ????
     d86:	41 7a       	andi	r20, 0xA1	; 161
     d88:	75 72       	andi	r23, 0x25	; 37
     d8a:	65 00       	.word	0x0065	; ????
     d8c:	50 61       	ori	r21, 0x10	; 16
     d8e:	70 61       	ori	r23, 0x10	; 16
     d90:	79 61       	ori	r23, 0x19	; 25
     d92:	57 68       	ori	r21, 0x87	; 135
     d94:	69 70       	andi	r22, 0x09	; 9
     d96:	00 44       	sbci	r16, 0x40	; 64
     d98:	65 65       	ori	r22, 0x55	; 85
     d9a:	70 50       	subi	r23, 0x00	; 0
     d9c:	69 6e       	ori	r22, 0xE9	; 233
     d9e:	6b 00       	.word	0x006b	; ????
     da0:	6d 69       	ori	r22, 0x9D	; 157
     da2:	63 72       	andi	r22, 0x23	; 35
     da4:	6f 73       	andi	r22, 0x3F	; 63
     da6:	54 61       	ori	r21, 0x14	; 20
     da8:	6b 65       	ori	r22, 0x5B	; 91
     daa:	6e 00       	.word	0x006e	; ????
     dac:	74 6d       	ori	r23, 0xD4	; 212
     dae:	70 68       	ori	r23, 0x80	; 128
     db0:	65 61       	ori	r22, 0x15	; 21
     db2:	64 00       	.word	0x0064	; ????
     db4:	6d 5f       	subi	r22, 0xFD	; 253
     db6:	53 63       	ori	r21, 0x33	; 51
     db8:	61 6c       	ori	r22, 0xC1	; 193
     dba:	65 00       	.word	0x0065	; ????
     dbc:	61 76       	andi	r22, 0x61	; 97
     dbe:	61 69       	ori	r22, 0x91	; 145
     dc0:	6c 61       	ori	r22, 0x1C	; 28
     dc2:	62 6c       	ori	r22, 0xC2	; 194
     dc4:	65 00       	.word	0x0065	; ????
     dc6:	5f 5a       	subi	r21, 0xAF	; 175
     dc8:	4e 31       	cpi	r20, 0x1E	; 30
     dca:	34 43       	sbci	r19, 0x34	; 52
     dcc:	4c 45       	sbci	r20, 0x5C	; 92
     dce:	44 43       	sbci	r20, 0x34	; 52
     dd0:	6f 6e       	ori	r22, 0xEF	; 239
     dd2:	74 72       	andi	r23, 0x24	; 36
     dd4:	6f 6c       	ori	r22, 0xCF	; 207
     dd6:	6c 65       	ori	r22, 0x5C	; 92
     dd8:	72 34       	cpi	r23, 0x42	; 66
     dda:	68 65       	ori	r22, 0x58	; 88
     ddc:	61 64       	ori	r22, 0x41	; 65
     dde:	45 76       	andi	r20, 0x65	; 101
     de0:	00 64       	ori	r16, 0x40	; 64
     de2:	69 66       	ori	r22, 0x69	; 105
     de4:	66 00       	.word	0x0066	; ????
     de6:	70 6f       	ori	r23, 0xF0	; 240
     de8:	72 74       	andi	r23, 0x42	; 66
     dea:	5f 70       	andi	r21, 0x0F	; 15
     dec:	74 72       	andi	r23, 0x24	; 36
     dee:	5f 74       	andi	r21, 0x4F	; 79
     df0:	00 50       	subi	r16, 0x00	; 0
     df2:	6c 61       	ori	r22, 0x1C	; 28
     df4:	69 64       	ori	r22, 0x49	; 73
     df6:	00 48       	sbci	r16, 0x80	; 128
     df8:	54 4d       	sbci	r21, 0xD4	; 212
     dfa:	4c 43       	sbci	r20, 0x3C	; 60
     dfc:	6f 6c       	ori	r22, 0xCF	; 207
     dfe:	6f 72       	andi	r22, 0x2F	; 47
     e00:	43 6f       	ori	r20, 0xF3	; 243
     e02:	64 65       	ori	r22, 0x54	; 84
     e04:	00 48       	sbci	r16, 0x80	; 128
     e06:	69 67       	ori	r22, 0x79	; 121
     e08:	68 4e       	sbci	r22, 0xE8	; 232
     e0a:	6f 6f       	ori	r22, 0xFF	; 255
     e0c:	6e 53       	subi	r22, 0x3E	; 62
     e0e:	75 6e       	ori	r23, 0xE5	; 229
     e10:	00 44       	sbci	r16, 0x40	; 64
     e12:	61 72       	andi	r22, 0x21	; 33
     e14:	6b 42       	sbci	r22, 0x2B	; 43
     e16:	6c 75       	andi	r22, 0x5C	; 92
     e18:	65 00       	.word	0x0065	; ????
     e1a:	62 6c       	ori	r22, 0xC2	; 194
     e1c:	75 65       	ori	r23, 0x55	; 85
     e1e:	00 72       	andi	r16, 0x20	; 32
     e20:	78 48       	sbci	r23, 0x88	; 136
     e22:	65 61       	ori	r22, 0x15	; 21
     e24:	64 00       	.word	0x0064	; ????
     e26:	77 6f       	ori	r23, 0xF7	; 247
     e28:	72 6b       	ori	r23, 0xB2	; 178
     e2a:	00 42       	sbci	r16, 0x20	; 32
     e2c:	65 69       	ori	r22, 0x95	; 149
     e2e:	67 65       	ori	r22, 0x57	; 87
     e30:	00 6f       	ori	r16, 0xF0	; 240
     e32:	76 65       	ori	r23, 0x56	; 86
     e34:	72 66       	ori	r23, 0x62	; 98
     e36:	6c 6f       	ori	r22, 0xFC	; 252
     e38:	77 53       	subi	r23, 0x37	; 55
     e3a:	74 61       	ori	r23, 0x14	; 20
     e3c:	74 65       	ori	r23, 0x54	; 84
     e3e:	00 4c       	sbci	r16, 0xC0	; 192
     e40:	69 67       	ori	r22, 0x79	; 121
     e42:	68 74       	andi	r22, 0x48	; 72
     e44:	53 6c       	ori	r21, 0xC3	; 195
     e46:	61 74       	andi	r22, 0x41	; 65
     e48:	65 47       	sbci	r22, 0x75	; 117
     e4a:	72 65       	ori	r23, 0x52	; 82
     e4c:	79 00       	.word	0x0079	; ????
     e4e:	44 61       	ori	r20, 0x14	; 20
     e50:	72 6b       	ori	r23, 0xB2	; 178
     e52:	53 6c       	ori	r21, 0xC3	; 195
     e54:	61 74       	andi	r22, 0x41	; 65
     e56:	65 47       	sbci	r22, 0x75	; 117
     e58:	72 65       	ori	r23, 0x52	; 82
     e5a:	79 00       	.word	0x0079	; ????
     e5c:	47 6f       	ori	r20, 0xF7	; 247
     e5e:	6c 64       	ori	r22, 0x4C	; 76
     e60:	00 6d       	ori	r16, 0xD0	; 208
     e62:	5f 70       	andi	r21, 0x0F	; 15
     e64:	4e 65       	ori	r20, 0x5E	; 94
     e66:	78 74       	andi	r23, 0x48	; 72
     e68:	00 54       	subi	r16, 0x40	; 64
     e6a:	75 6e       	ori	r23, 0xE5	; 229
     e6c:	67 73       	andi	r22, 0x37	; 55
     e6e:	74 65       	ori	r23, 0x54	; 84
     e70:	6e 31       	cpi	r22, 0x1E	; 30
     e72:	30 30       	cpi	r19, 0x00	; 0
     e74:	57 00       	.word	0x0057	; ????
     e76:	5f 5f       	subi	r21, 0xFF	; 255
     e78:	76 65       	ori	r23, 0x56	; 86
     e7a:	63 74       	andi	r22, 0x43	; 67
     e7c:	6f 72       	andi	r22, 0x2F	; 47
     e7e:	5f 31       	cpi	r21, 0x1F	; 31
     e80:	35 00       	.word	0x0035	; ????
     e82:	70 6f       	ori	r23, 0xF0	; 240
     e84:	72 74       	andi	r23, 0x42	; 66
     e86:	5f 74       	andi	r21, 0x4F	; 79
     e88:	00 72       	andi	r16, 0x20	; 32
     e8a:	65 61       	ori	r22, 0x15	; 21
     e8c:	64 00       	.word	0x0064	; ????
     e8e:	50 65       	ori	r21, 0x50	; 80
     e90:	61 63       	ori	r22, 0x31	; 49
     e92:	68 50       	subi	r22, 0x08	; 8
     e94:	75 66       	ori	r23, 0x65	; 101
     e96:	66 00       	.word	0x0066	; ????
     e98:	42 75       	andi	r20, 0x52	; 82
     e9a:	72 6c       	ori	r23, 0xC2	; 194
     e9c:	79 57       	subi	r23, 0x79	; 121
     e9e:	6f 6f       	ori	r22, 0xFF	; 255
     ea0:	64 00       	.word	0x0064	; ????
     ea2:	6d 4c       	sbci	r22, 0xCD	; 205
     ea4:	65 6e       	ori	r22, 0xE5	; 229
     ea6:	52 65       	ori	r21, 0x52	; 82
     ea8:	6d 61       	ori	r22, 0x1D	; 29
     eaa:	69 6e       	ori	r22, 0xE9	; 233
     eac:	69 6e       	ori	r22, 0xE9	; 233
     eae:	67 00       	.word	0x0067	; ????
     eb0:	4c 69       	ori	r20, 0x9C	; 156
     eb2:	6d 65       	ori	r22, 0x5D	; 93
     eb4:	47 72       	andi	r20, 0x27	; 39
     eb6:	65 65       	ori	r22, 0x55	; 85
     eb8:	6e 00       	.word	0x006e	; ????
     eba:	4e 61       	ori	r20, 0x1E	; 30
     ebc:	76 61       	ori	r23, 0x16	; 22
     ebe:	6a 6f       	ori	r22, 0xFA	; 250
     ec0:	57 68       	ori	r21, 0x87	; 135
     ec2:	69 74       	andi	r22, 0x49	; 73
     ec4:	65 00       	.word	0x0065	; ????
     ec6:	42 6c       	ori	r20, 0xC2	; 194
     ec8:	75 65       	ori	r23, 0x55	; 85
     eca:	56 69       	ori	r21, 0x96	; 150
     ecc:	6f 6c       	ori	r22, 0xCF	; 207
     ece:	65 74       	andi	r22, 0x45	; 69
     ed0:	00 5f       	subi	r16, 0xF0	; 240
     ed2:	41 56       	subi	r20, 0x61	; 97
     ed4:	52 50       	subi	r21, 0x02	; 2
     ed6:	49 4e       	sbci	r20, 0xE9	; 233
     ed8:	00 44       	sbci	r16, 0x40	; 64
     eda:	61 72       	andi	r22, 0x21	; 33
     edc:	6b 4f       	sbci	r22, 0xFB	; 251
     ede:	72 63       	ori	r23, 0x32	; 50
     ee0:	68 69       	ori	r22, 0x98	; 152
     ee2:	64 00       	.word	0x0064	; ????
     ee4:	69 6e       	ori	r22, 0xE9	; 233
     ee6:	69 74       	andi	r22, 0x49	; 73
     ee8:	00 5f       	subi	r16, 0xF0	; 240
     eea:	5f 63       	ori	r21, 0x3F	; 63
     eec:	78 61       	ori	r23, 0x18	; 24
     eee:	5f 70       	andi	r21, 0x0F	; 15
     ef0:	75 72       	andi	r23, 0x25	; 37
     ef2:	65 5f       	subi	r22, 0xF5	; 245
     ef4:	76 69       	ori	r23, 0x96	; 150
     ef6:	72 74       	andi	r23, 0x42	; 66
     ef8:	75 61       	ori	r23, 0x15	; 21
     efa:	6c 00       	.word	0x006c	; ????
     efc:	6c 6f       	ori	r22, 0xFC	; 252
     efe:	6e 67       	ori	r22, 0x7E	; 126
     f00:	20 75       	andi	r18, 0x50	; 80
     f02:	6e 73       	andi	r22, 0x3E	; 62
     f04:	69 67       	ori	r22, 0x79	; 121
     f06:	6e 65       	ori	r22, 0x5E	; 94
     f08:	64 20       	and	r6, r4
     f0a:	69 6e       	ori	r22, 0xE9	; 233
     f0c:	74 00       	.word	0x0074	; ????
     f0e:	75 70       	andi	r23, 0x05	; 5
     f10:	64 61       	ori	r22, 0x14	; 20
     f12:	74 65       	ori	r23, 0x54	; 84
     f14:	4d 6f       	ori	r20, 0xFD	; 253
     f16:	64 65       	ori	r22, 0x54	; 84
     f18:	5f 65       	ori	r21, 0x5F	; 95
     f1a:	00 44       	sbci	r16, 0x40	; 64
     f1c:	61 72       	andi	r22, 0x21	; 33
     f1e:	6b 54       	subi	r22, 0x4B	; 75
     f20:	75 72       	andi	r23, 0x25	; 37
     f22:	71 75       	andi	r23, 0x51	; 81
     f24:	6f 69       	ori	r22, 0x9F	; 159
     f26:	73 65       	ori	r23, 0x53	; 83
     f28:	00 5f       	subi	r16, 0xF0	; 240
     f2a:	5a 4e       	sbci	r21, 0xEA	; 234
     f2c:	34 43       	sbci	r19, 0x34	; 52
     f2e:	52 47       	sbci	r21, 0x72	; 114
     f30:	42 43       	sbci	r20, 0x32	; 50
     f32:	32 45       	sbci	r19, 0x52	; 82
     f34:	68 68       	ori	r22, 0x88	; 136
     f36:	68 00       	.word	0x0068	; ????
     f38:	4d 69       	ori	r20, 0x9D	; 157
     f3a:	6e 74       	andi	r22, 0x4E	; 78
     f3c:	43 72       	andi	r20, 0x23	; 35
     f3e:	65 61       	ori	r22, 0x15	; 21
     f40:	6d 00       	.word	0x006d	; ????
     f42:	44 69       	ori	r20, 0x94	; 148
     f44:	73 70       	andi	r23, 0x03	; 3
     f46:	61 74       	andi	r22, 0x41	; 65
     f48:	63 68       	ori	r22, 0x83	; 131
     f4a:	50 65       	ori	r21, 0x50	; 80
     f4c:	6e 64       	ori	r22, 0x4E	; 78
     f4e:	69 6e       	ori	r22, 0xE9	; 233
     f50:	67 49       	sbci	r22, 0x97	; 151
     f52:	53 52       	subi	r21, 0x23	; 35
     f54:	00 63       	ori	r16, 0x30	; 48
     f56:	6f 75       	andi	r22, 0x5F	; 95
     f58:	6e 74       	andi	r22, 0x4E	; 78
     f5a:	46 50       	subi	r20, 0x06	; 6
     f5c:	53 00       	.word	0x0053	; ????
     f5e:	6d 5f       	subi	r22, 0xFD	; 253
     f60:	44 61       	ori	r20, 0x14	; 20
     f62:	74 61       	ori	r23, 0x14	; 20
     f64:	00 57       	subi	r16, 0x70	; 112
     f66:	68 69       	ori	r22, 0x98	; 152
     f68:	74 65       	ori	r23, 0x54	; 84
     f6a:	53 6d       	ori	r21, 0xD3	; 211
     f6c:	6f 6b       	ori	r22, 0xBF	; 191
     f6e:	65 00       	.word	0x0065	; ????
     f70:	75 73       	andi	r23, 0x35	; 53
     f72:	69 54       	subi	r22, 0x49	; 73
     f74:	77 69       	ori	r23, 0x97	; 151
     f76:	52 65       	ori	r21, 0x52	; 82
     f78:	63 65       	ori	r22, 0x53	; 83
     f7a:	69 76       	andi	r22, 0x69	; 105
     f7c:	65 42       	sbci	r22, 0x25	; 37
     f7e:	79 74       	andi	r23, 0x49	; 73
     f80:	65 00       	.word	0x0065	; ????
     f82:	47 72       	andi	r20, 0x27	; 39
     f84:	65 65       	ori	r22, 0x55	; 85
     f86:	6e 59       	subi	r22, 0x9E	; 158
     f88:	65 6c       	ori	r22, 0xC5	; 197
     f8a:	6c 6f       	ori	r22, 0xFC	; 252
     f8c:	77 00       	.word	0x0077	; ????
     f8e:	4d 65       	ori	r20, 0x5D	; 93
     f90:	64 69       	ori	r22, 0x94	; 148
     f92:	75 6d       	ori	r23, 0xD5	; 213
     f94:	53 70       	andi	r21, 0x03	; 3
     f96:	72 69       	ori	r23, 0x92	; 146
     f98:	6e 67       	ori	r22, 0x7E	; 126
     f9a:	47 72       	andi	r20, 0x27	; 39
     f9c:	65 65       	ori	r22, 0x55	; 85
     f9e:	6e 00       	.word	0x006e	; ????
     fa0:	73 6c       	ori	r23, 0xC3	; 195
     fa2:	61 76       	andi	r22, 0x61	; 97
     fa4:	65 41       	sbci	r22, 0x15	; 21
     fa6:	64 64       	ori	r22, 0x44	; 68
     fa8:	72 65       	ori	r23, 0x52	; 82
     faa:	73 73       	andi	r23, 0x33	; 51
     fac:	00 43       	sbci	r16, 0x30	; 48
     fae:	6f 72       	andi	r22, 0x2F	; 47
     fb0:	6e 66       	ori	r22, 0x6E	; 110
     fb2:	6c 6f       	ori	r22, 0xFC	; 252
     fb4:	77 65       	ori	r23, 0x57	; 87
     fb6:	72 42       	sbci	r23, 0x22	; 34
     fb8:	6c 75       	andi	r22, 0x5C	; 92
     fba:	65 00       	.word	0x0065	; ????
     fbc:	4c 69       	ori	r20, 0x9C	; 156
     fbe:	67 68       	ori	r22, 0x87	; 135
     fc0:	74 59       	subi	r23, 0x94	; 148
     fc2:	65 6c       	ori	r22, 0xC5	; 197
     fc4:	6c 6f       	ori	r22, 0xFC	; 252
     fc6:	77 00       	.word	0x0077	; ????
     fc8:	74 78       	andi	r23, 0x84	; 132
     fca:	54 61       	ori	r21, 0x14	; 20
     fcc:	69 6c       	ori	r22, 0xC9	; 201
     fce:	00 75       	andi	r16, 0x50	; 80
     fd0:	6e 73       	andi	r22, 0x3E	; 62
     fd2:	69 67       	ori	r22, 0x79	; 121
     fd4:	6e 65       	ori	r22, 0x5E	; 94
     fd6:	64 20       	and	r6, r4
     fd8:	63 68       	ori	r22, 0x83	; 131
     fda:	61 72       	andi	r22, 0x21	; 33
     fdc:	00 73       	andi	r16, 0x30	; 48
     fde:	65 74       	andi	r22, 0x45	; 69
     fe0:	75 70       	andi	r23, 0x05	; 5
     fe2:	00 53       	subi	r16, 0x30	; 48
     fe4:	65 61       	ori	r22, 0x15	; 21
     fe6:	73 68       	ori	r23, 0x83	; 131
     fe8:	65 6c       	ori	r22, 0xC5	; 197
     fea:	6c 00       	.word	0x006c	; ????
     fec:	66 75       	andi	r22, 0x56	; 86
     fee:	6e 63       	ori	r22, 0x3E	; 62
     ff0:	74 69       	ori	r23, 0x94	; 148
     ff2:	6f 6e       	ori	r22, 0xEF	; 239
     ff4:	00 4c       	sbci	r16, 0xC0	; 192
     ff6:	61 77       	andi	r22, 0x71	; 113
     ff8:	6e 47       	sbci	r22, 0x7E	; 126
     ffa:	72 65       	ori	r23, 0x52	; 82
     ffc:	65 6e       	ori	r22, 0xE5	; 229
     ffe:	00 6c       	ori	r16, 0xC0	; 192
    1000:	6f 6f       	ori	r22, 0xFF	; 255
    1002:	70 00       	.word	0x0070	; ????
    1004:	6d 5f       	subi	r22, 0xFD	; 253
    1006:	44 69       	ori	r20, 0x94	; 148
    1008:	74 68       	ori	r23, 0x84	; 132
    100a:	65 72       	andi	r22, 0x25	; 37
    100c:	4d 6f       	ori	r20, 0xFD	; 253
    100e:	64 65       	ori	r22, 0x54	; 84
    1010:	00 4c       	sbci	r16, 0xC0	; 192
    1012:	69 67       	ori	r22, 0x79	; 121
    1014:	68 74       	andi	r22, 0x48	; 72
    1016:	47 72       	andi	r20, 0x27	; 39
    1018:	65 65       	ori	r22, 0x55	; 85
    101a:	6e 00       	.word	0x006e	; ????
    101c:	42 4f       	sbci	r20, 0xF2	; 242
    101e:	44 59       	subi	r20, 0x94	; 148
    1020:	5f 49       	sbci	r21, 0x9F	; 159
    1022:	32 43       	sbci	r19, 0x32	; 50
    1024:	5f 52       	subi	r21, 0x2F	; 47
    1026:	65 63       	ori	r22, 0x35	; 53
    1028:	76 00       	.word	0x0076	; ????
    102a:	4d 65       	ori	r20, 0x5D	; 93
    102c:	64 69       	ori	r22, 0x94	; 148
    102e:	75 6d       	ori	r23, 0xD5	; 213
    1030:	50 75       	andi	r21, 0x50	; 80
    1032:	72 70       	andi	r23, 0x02	; 2
    1034:	6c 65       	ori	r22, 0x5C	; 92
    1036:	00 6d       	ori	r16, 0xD0	; 208
    1038:	5f 6e       	ori	r21, 0xEF	; 239
    103a:	4c 65       	ori	r20, 0x5C	; 92
    103c:	64 73       	andi	r22, 0x34	; 52
    103e:	00 4e       	sbci	r16, 0xE0	; 224
    1040:	34 43       	sbci	r19, 0x34	; 52
    1042:	52 47       	sbci	r21, 0x72	; 114
    1044:	42 31       	cpi	r20, 0x12	; 18
    1046:	33 48       	sbci	r19, 0x83	; 131
    1048:	54 4d       	sbci	r21, 0xD4	; 212
    104a:	4c 43       	sbci	r20, 0x3C	; 60
    104c:	6f 6c       	ori	r22, 0xCF	; 207
    104e:	6f 72       	andi	r22, 0x2F	; 47
    1050:	43 6f       	ori	r20, 0xF3	; 243
    1052:	64 65       	ori	r22, 0x54	; 84
    1054:	45 00       	.word	0x0045	; ????
    1056:	47 61       	ori	r20, 0x17	; 23
    1058:	69 6e       	ori	r22, 0xE9	; 233
    105a:	73 62       	ori	r23, 0x23	; 35
    105c:	6f 72       	andi	r22, 0x2F	; 47
    105e:	6f 00       	.word	0x006f	; ????
    1060:	4c 69       	ori	r20, 0x9C	; 156
    1062:	67 68       	ori	r22, 0x87	; 135
    1064:	74 47       	sbci	r23, 0x74	; 116
    1066:	72 65       	ori	r23, 0x52	; 82
    1068:	79 00       	.word	0x0079	; ????
    106a:	42 6c       	ori	r20, 0xC2	; 194
    106c:	61 63       	ori	r22, 0x31	; 49
    106e:	6b 4c       	sbci	r22, 0xCB	; 203
    1070:	69 67       	ori	r22, 0x79	; 121
    1072:	68 74       	andi	r22, 0x48	; 72
    1074:	46 6c       	ori	r20, 0xC6	; 198
    1076:	75 6f       	ori	r23, 0xF5	; 245
    1078:	72 65       	ori	r23, 0x52	; 82
    107a:	73 63       	ori	r23, 0x33	; 51
    107c:	65 6e       	ori	r22, 0xE5	; 229
    107e:	74 00       	.word	0x0074	; ????
    1080:	41 6c       	ori	r20, 0xC1	; 193
    1082:	69 63       	ori	r22, 0x39	; 57
    1084:	65 42       	sbci	r22, 0x25	; 37
    1086:	6c 75       	andi	r22, 0x5C	; 92
    1088:	65 00       	.word	0x0065	; ????
    108a:	5f 5a       	subi	r21, 0xAF	; 175
    108c:	4e 38       	cpi	r20, 0x8E	; 142
    108e:	43 46       	sbci	r20, 0x63	; 99
    1090:	61 73       	andi	r22, 0x31	; 49
    1092:	74 4c       	sbci	r23, 0xC4	; 196
    1094:	45 44       	sbci	r20, 0x45	; 69
    1096:	38 63       	ori	r19, 0x38	; 56
    1098:	6f 75       	andi	r22, 0x5F	; 95
    109a:	6e 74       	andi	r22, 0x4E	; 78
    109c:	46 50       	subi	r20, 0x06	; 6
    109e:	53 45       	sbci	r21, 0x53	; 83
    10a0:	69 2e       	mov	r6, r25
    10a2:	70 61       	ori	r23, 0x10	; 16
    10a4:	72 74       	andi	r23, 0x42	; 66
    10a6:	2e 32       	cpi	r18, 0x2E	; 46
    10a8:	00 44       	sbci	r16, 0x40	; 64
    10aa:	61 72       	andi	r22, 0x21	; 33
    10ac:	6b 4f       	sbci	r22, 0xFB	; 251
    10ae:	72 61       	ori	r23, 0x12	; 18
    10b0:	6e 67       	ori	r22, 0x7E	; 126
    10b2:	65 00       	.word	0x0065	; ????
    10b4:	75 73       	andi	r23, 0x35	; 53
    10b6:	69 54       	subi	r22, 0x49	; 73
    10b8:	77 69       	ori	r23, 0x97	; 151
    10ba:	53 6c       	ori	r21, 0xC3	; 195
    10bc:	61 76       	andi	r22, 0x61	; 97
    10be:	65 49       	sbci	r22, 0x95	; 149
    10c0:	6e 69       	ori	r22, 0x9E	; 158
    10c2:	74 00       	.word	0x0074	; ????
    10c4:	67 65       	ori	r22, 0x57	; 87
    10c6:	74 4d       	sbci	r23, 0xD4	; 212
    10c8:	61 78       	andi	r22, 0x81	; 129
    10ca:	52 65       	ori	r21, 0x52	; 82
    10cc:	66 72       	andi	r22, 0x26	; 38
    10ce:	65 73       	andi	r22, 0x35	; 53
    10d0:	68 52       	subi	r22, 0x28	; 40
    10d2:	61 74       	andi	r22, 0x41	; 65
    10d4:	65 00       	.word	0x0065	; ????
    10d6:	4d 65       	ori	r20, 0x5D	; 93
    10d8:	64 69       	ori	r22, 0x94	; 148
    10da:	75 6d       	ori	r23, 0xD5	; 213
    10dc:	42 6c       	ori	r20, 0xC2	; 194
    10de:	75 65       	ori	r23, 0x55	; 85
    10e0:	00 75       	andi	r16, 0x50	; 80
    10e2:	73 69       	ori	r23, 0x93	; 147
    10e4:	5f 6f       	ori	r21, 0xFF	; 255
    10e6:	6e 52       	subi	r22, 0x2E	; 46
    10e8:	65 63       	ori	r22, 0x35	; 53
    10ea:	65 69       	ori	r22, 0x95	; 149
    10ec:	76 65       	ori	r23, 0x56	; 86
    10ee:	72 50       	subi	r23, 0x02	; 2
    10f0:	74 72       	andi	r23, 0x24	; 36
    10f2:	00 61       	ori	r16, 0x10	; 16
    10f4:	64 64       	ori	r22, 0x44	; 68
    10f6:	4c 65       	ori	r20, 0x5C	; 92
    10f8:	64 73       	andi	r22, 0x34	; 52
    10fa:	00 4c       	sbci	r16, 0xC0	; 192
    10fc:	69 67       	ori	r22, 0x79	; 121
    10fe:	68 74       	andi	r22, 0x48	; 72
    1100:	53 74       	andi	r21, 0x43	; 67
    1102:	65 65       	ori	r22, 0x55	; 85
    1104:	6c 42       	sbci	r22, 0x2C	; 44
    1106:	6c 75       	andi	r22, 0x5C	; 92
    1108:	65 00       	.word	0x0065	; ????
    110a:	73 65       	ori	r23, 0x53	; 83
    110c:	74 4c       	sbci	r23, 0xC4	; 196
    110e:	65 64       	ori	r22, 0x45	; 69
    1110:	73 00       	.word	0x0073	; ????
    1112:	42 69       	ori	r20, 0x92	; 146
    1114:	73 71       	andi	r23, 0x13	; 19
    1116:	75 65       	ori	r23, 0x55	; 85
    1118:	00 43       	sbci	r16, 0x30	; 48
    111a:	6c 65       	ori	r22, 0x5C	; 92
    111c:	61 72       	andi	r22, 0x21	; 33
    111e:	42 6c       	ori	r20, 0xC2	; 194
    1120:	75 65       	ori	r23, 0x55	; 85
    1122:	53 6b       	ori	r21, 0xB3	; 179
    1124:	79 00       	.word	0x0079	; ????
    1126:	6f 6c       	ori	r22, 0xCF	; 207
    1128:	64 53       	subi	r22, 0x34	; 52
    112a:	52 45       	sbci	r21, 0x52	; 82
    112c:	47 00       	.word	0x0047	; ????
    112e:	6c 61       	ori	r22, 0x1C	; 28
    1130:	73 74       	andi	r23, 0x43	; 67
    1132:	73 68       	ori	r23, 0x83	; 131
    1134:	6f 77       	andi	r22, 0x7F	; 127
    1136:	00 63       	ori	r16, 0x30	; 48
    1138:	6f 6d       	ori	r22, 0xDF	; 223
    113a:	70 75       	andi	r23, 0x50	; 80
    113c:	74 65       	ori	r23, 0x54	; 84
    113e:	41 64       	ori	r20, 0x41	; 65
    1140:	6a 75       	andi	r22, 0x5A	; 90
    1142:	73 74       	andi	r23, 0x43	; 67
    1144:	6d 65       	ori	r22, 0x5D	; 93
    1146:	6e 74       	andi	r22, 0x4E	; 78
    1148:	00 43       	sbci	r16, 0x30	; 48
    114a:	6c 6f       	ori	r22, 0xFC	; 252
    114c:	63 6b       	ori	r22, 0xB3	; 179
    114e:	6c 65       	ori	r22, 0x5C	; 92
    1150:	73 73       	andi	r23, 0x33	; 51
    1152:	43 6f       	ori	r20, 0xF3	; 243
    1154:	6e 74       	andi	r22, 0x4E	; 78
    1156:	72 6f       	ori	r23, 0xF2	; 242
    1158:	6c 6c       	ori	r22, 0xCC	; 204
    115a:	65 72       	andi	r22, 0x25	; 37
    115c:	00 4e       	sbci	r16, 0xE0	; 224
    115e:	61 76       	andi	r22, 0x61	; 97
    1160:	79 00       	.word	0x0079	; ????
    1162:	5f 5f       	subi	r21, 0xFF	; 255
    1164:	76 65       	ori	r23, 0x56	; 86
    1166:	63 74       	andi	r22, 0x43	; 67
    1168:	6f 72       	andi	r22, 0x2F	; 47
    116a:	5f 31       	cpi	r21, 0x1F	; 31
    116c:	31 00       	.word	0x0031	; ????
    116e:	44 61       	ori	r20, 0x14	; 20
    1170:	72 6b       	ori	r23, 0xB2	; 178
    1172:	47 72       	andi	r20, 0x27	; 39
    1174:	65 65       	ori	r22, 0x55	; 85
    1176:	6e 00       	.word	0x006e	; ????
    1178:	6f 6e       	ori	r22, 0xEF	; 239
    117a:	52 65       	ori	r21, 0x52	; 82
    117c:	63 65       	ori	r22, 0x53	; 83
    117e:	69 76       	andi	r22, 0x69	; 105
    1180:	65 00       	.word	0x0065	; ????
    1182:	43 61       	ori	r20, 0x13	; 19
    1184:	6e 64       	ori	r22, 0x4E	; 78
    1186:	6c 65       	ori	r22, 0x5C	; 92
    1188:	00 4d       	sbci	r16, 0xD0	; 208
    118a:	65 64       	ori	r22, 0x45	; 69
    118c:	69 75       	andi	r22, 0x59	; 89
    118e:	6d 41       	sbci	r22, 0x1D	; 29
    1190:	71 75       	andi	r23, 0x51	; 81
    1192:	61 6d       	ori	r22, 0xD1	; 209
    1194:	61 72       	andi	r22, 0x21	; 33
    1196:	69 6e       	ori	r22, 0xE9	; 233
    1198:	65 00       	.word	0x0065	; ????
    119a:	44 69       	ori	r20, 0x94	; 148
    119c:	6d 47       	sbci	r22, 0x7D	; 125
    119e:	72 65       	ori	r23, 0x52	; 82
    11a0:	79 00       	.word	0x0079	; ????
    11a2:	6d 61       	ori	r22, 0x1D	; 29
    11a4:	69 6e       	ori	r22, 0xE9	; 233
    11a6:	00 75       	andi	r16, 0x50	; 80
    11a8:	73 69       	ori	r23, 0x93	; 147
    11aa:	5f 6f       	ori	r21, 0xFF	; 255
    11ac:	6e 52       	subi	r22, 0x2E	; 46
    11ae:	65 71       	andi	r22, 0x15	; 21
    11b0:	75 65       	ori	r23, 0x55	; 85
    11b2:	73 74       	andi	r23, 0x43	; 67
    11b4:	50 74       	andi	r21, 0x40	; 64
    11b6:	72 00       	.word	0x0072	; ????
    11b8:	55 53       	subi	r21, 0x35	; 53
    11ba:	49 5f       	subi	r20, 0xF9	; 249
    11bc:	53 4c       	sbci	r21, 0xC3	; 195
    11be:	41 56       	subi	r20, 0x61	; 97
    11c0:	45 5f       	subi	r20, 0xF5	; 245
    11c2:	52 45       	sbci	r21, 0x52	; 82
    11c4:	51 55       	subi	r21, 0x51	; 81
    11c6:	45 53       	subi	r20, 0x35	; 53
    11c8:	54 5f       	subi	r21, 0xF4	; 244
    11ca:	52 45       	sbci	r21, 0x52	; 82
    11cc:	50 4c       	sbci	r21, 0xC0	; 192
    11ce:	59 5f       	subi	r21, 0xF9	; 249
    11d0:	46 52       	subi	r20, 0x26	; 38
    11d2:	4f 4d       	sbci	r20, 0xDF	; 223
    11d4:	5f 53       	subi	r21, 0x3F	; 63
    11d6:	45 4e       	sbci	r20, 0xE5	; 229
    11d8:	44 5f       	subi	r20, 0xF4	; 244
    11da:	44 41       	sbci	r20, 0x14	; 20
    11dc:	54 41       	sbci	r21, 0x14	; 20
    11de:	00 50       	subi	r16, 0x00	; 0
    11e0:	69 78       	andi	r22, 0x89	; 137
    11e2:	65 6c       	ori	r22, 0xC5	; 197
    11e4:	43 6f       	ori	r20, 0xF3	; 243
    11e6:	6e 74       	andi	r22, 0x4E	; 78
    11e8:	72 6f       	ori	r23, 0xF2	; 242
    11ea:	6c 6c       	ori	r22, 0xCC	; 204
    11ec:	65 72       	andi	r22, 0x25	; 37
    11ee:	00 5f       	subi	r16, 0xF0	; 240
    11f0:	5a 33       	cpi	r21, 0x3A	; 58
    11f2:	5f 64       	ori	r21, 0x4F	; 79
    11f4:	63 49       	sbci	r22, 0x93	; 147
    11f6:	4c 69       	ori	r20, 0x9C	; 156
    11f8:	32 45       	sbci	r19, 0x52	; 82
    11fa:	45 76       	andi	r20, 0x65	; 101
    11fc:	52 68       	ori	r21, 0x82	; 130
    11fe:	00 5f       	subi	r16, 0xF0	; 240
    1200:	5a 4e       	sbci	r21, 0xEA	; 234
    1202:	31 34       	cpi	r19, 0x41	; 65
    1204:	43 4c       	sbci	r20, 0xC3	; 195
    1206:	45 44       	sbci	r20, 0x45	; 69
    1208:	43 6f       	ori	r20, 0xF3	; 243
    120a:	6e 74       	andi	r22, 0x4E	; 78
    120c:	72 6f       	ori	r23, 0xF2	; 242
    120e:	6c 6c       	ori	r22, 0xCC	; 204
    1210:	65 72       	andi	r22, 0x25	; 37
    1212:	37 73       	andi	r19, 0x37	; 55
    1214:	65 74       	andi	r22, 0x45	; 69
    1216:	4c 65       	ori	r20, 0x5C	; 92
    1218:	64 73       	andi	r22, 0x34	; 52
    121a:	45 50       	subi	r20, 0x05	; 5
    121c:	34 43       	sbci	r19, 0x34	; 52
    121e:	52 47       	sbci	r21, 0x72	; 114
    1220:	42 69       	ori	r20, 0x92	; 146
    1222:	00 72       	andi	r16, 0x20	; 32
    1224:	65 66       	ori	r22, 0x65	; 101
    1226:	72 65       	ori	r23, 0x52	; 82
    1228:	73 68       	ori	r23, 0x83	; 131
    122a:	00 50       	subi	r16, 0x00	; 0
    122c:	6c 75       	andi	r22, 0x5C	; 92
    122e:	6d 00       	.word	0x006d	; ????
    1230:	6d 5f       	subi	r22, 0xFD	; 253
    1232:	6e 46       	sbci	r22, 0x6E	; 110
    1234:	50 53       	subi	r21, 0x30	; 48
    1236:	00 44       	sbci	r16, 0x40	; 64
    1238:	61 72       	andi	r22, 0x21	; 33
    123a:	6b 47       	sbci	r22, 0x7B	; 123
    123c:	72 65       	ori	r23, 0x52	; 82
    123e:	79 00       	.word	0x0079	; ????
    1240:	55 53       	subi	r21, 0x35	; 53
    1242:	49 5f       	subi	r20, 0xF9	; 249
    1244:	53 4c       	sbci	r21, 0xC3	; 195
    1246:	41 56       	subi	r20, 0x61	; 97
    1248:	45 5f       	subi	r20, 0xF5	; 245
    124a:	52 45       	sbci	r21, 0x52	; 82
    124c:	51 55       	subi	r21, 0x51	; 81
    124e:	45 53       	subi	r20, 0x35	; 53
    1250:	54 5f       	subi	r21, 0xF4	; 244
    1252:	44 41       	sbci	r20, 0x14	; 20
    1254:	54 41       	sbci	r21, 0x14	; 20
    1256:	00 55       	subi	r16, 0x50	; 80
    1258:	53 49       	sbci	r21, 0x93	; 147
    125a:	5f 54       	subi	r21, 0x4F	; 79
    125c:	57 49       	sbci	r21, 0x97	; 151
    125e:	5f 53       	subi	r21, 0x3F	; 63
    1260:	00 46       	sbci	r16, 0x60	; 96
    1262:	69 72       	andi	r22, 0x29	; 41
    1264:	65 42       	sbci	r22, 0x25	; 37
    1266:	72 69       	ori	r23, 0x92	; 146
    1268:	63 6b       	ori	r22, 0xB3	; 179
    126a:	00 4c       	sbci	r16, 0xC0	; 192
    126c:	69 67       	ori	r22, 0x79	; 121
    126e:	68 74       	andi	r22, 0x48	; 72
    1270:	53 65       	ori	r21, 0x53	; 83
    1272:	61 47       	sbci	r22, 0x71	; 113
    1274:	72 65       	ori	r23, 0x52	; 82
    1276:	65 6e       	ori	r22, 0xE5	; 229
    1278:	00 50       	subi	r16, 0x00	; 0
    127a:	65 72       	andi	r22, 0x25	; 37
    127c:	75 00       	.word	0x0075	; ????
    127e:	4f 6c       	ori	r20, 0xCF	; 207
    1280:	64 4c       	sbci	r22, 0xC4	; 196
    1282:	61 63       	ori	r22, 0x31	; 49
    1284:	65 00       	.word	0x0065	; ????
    1286:	44 61       	ori	r20, 0x14	; 20
    1288:	72 6b       	ori	r23, 0xB2	; 178
    128a:	47 6f       	ori	r20, 0xF7	; 247
    128c:	6c 64       	ori	r22, 0x4C	; 76
    128e:	65 6e       	ori	r22, 0xE5	; 229
    1290:	72 6f       	ori	r23, 0xF2	; 242
    1292:	64 00       	.word	0x0064	; ????
    1294:	44 69       	ori	r20, 0x94	; 148
    1296:	72 65       	ori	r23, 0x52	; 82
    1298:	63 74       	andi	r22, 0x43	; 67
    129a:	53 75       	andi	r21, 0x53	; 83
    129c:	6e 6c       	ori	r22, 0xCE	; 206
    129e:	69 67       	ori	r22, 0x79	; 121
    12a0:	68 74       	andi	r22, 0x48	; 72
    12a2:	00 47       	sbci	r16, 0x70	; 112
    12a4:	4e 55       	subi	r20, 0x5E	; 94
    12a6:	20 47       	sbci	r18, 0x70	; 112
    12a8:	49 4d       	sbci	r20, 0xD9	; 217
    12aa:	50 4c       	sbci	r21, 0xC0	; 192
    12ac:	45 20       	and	r4, r5
    12ae:	37 2e       	mov	r3, r23
    12b0:	33 2e       	mov	r3, r19
    12b2:	30 20       	and	r3, r0
    12b4:	2d 6d       	ori	r18, 0xDD	; 221
    12b6:	6e 2d       	mov	r22, r14
    12b8:	66 6c       	ori	r22, 0xC6	; 198
    12ba:	61 73       	andi	r22, 0x31	; 49
    12bc:	68 3d       	cpi	r22, 0xD8	; 216
    12be:	31 20       	and	r3, r1
    12c0:	2d 6d       	ori	r18, 0xDD	; 221
    12c2:	6d 63       	ori	r22, 0x3D	; 61
    12c4:	75 3d       	cpi	r23, 0xD5	; 213
    12c6:	61 76       	andi	r22, 0x61	; 97
    12c8:	72 32       	cpi	r23, 0x22	; 34
    12ca:	35 20       	and	r3, r5
    12cc:	2d 6d       	ori	r18, 0xDD	; 221
    12ce:	6e 2d       	mov	r22, r14
    12d0:	66 6c       	ori	r22, 0xC6	; 198
    12d2:	61 73       	andi	r22, 0x31	; 49
    12d4:	68 3d       	cpi	r22, 0xD8	; 216
    12d6:	31 20       	and	r3, r1
    12d8:	2d 6d       	ori	r18, 0xDD	; 221
    12da:	6e 6f       	ori	r22, 0xFE	; 254
    12dc:	2d 73       	andi	r18, 0x3D	; 61
    12de:	6b 69       	ori	r22, 0x9B	; 155
    12e0:	70 2d       	mov	r23, r0
    12e2:	62 75       	andi	r22, 0x52	; 82
    12e4:	67 20       	and	r6, r7
    12e6:	2d 6d       	ori	r18, 0xDD	; 221
    12e8:	6d 63       	ori	r22, 0x3D	; 61
    12ea:	75 3d       	cpi	r23, 0xD5	; 213
    12ec:	61 76       	andi	r22, 0x61	; 97
    12ee:	72 32       	cpi	r23, 0x22	; 34
    12f0:	35 20       	and	r3, r5
    12f2:	2d 67       	ori	r18, 0x7D	; 125
    12f4:	20 2d       	mov	r18, r0
    12f6:	4f 73       	andi	r20, 0x3F	; 63
    12f8:	20 2d       	mov	r18, r0
    12fa:	4f 73       	andi	r20, 0x3F	; 63
    12fc:	20 2d       	mov	r18, r0
    12fe:	66 6d       	ori	r22, 0xD6	; 214
    1300:	61 74       	andi	r22, 0x41	; 65
    1302:	68 2d       	mov	r22, r8
    1304:	65 72       	andi	r22, 0x25	; 37
    1306:	72 6e       	ori	r23, 0xE2	; 226
    1308:	6f 20       	and	r6, r15
    130a:	2d 66       	ori	r18, 0x6D	; 109
    130c:	73 69       	ori	r23, 0x93	; 147
    130e:	67 6e       	ori	r22, 0xE7	; 231
    1310:	65 64       	ori	r22, 0x45	; 69
    1312:	2d 7a       	andi	r18, 0xAD	; 173
    1314:	65 72       	andi	r22, 0x25	; 37
    1316:	6f 73       	andi	r22, 0x3F	; 63
    1318:	20 2d       	mov	r18, r0
    131a:	66 74       	andi	r22, 0x46	; 70
    131c:	72 61       	ori	r23, 0x12	; 18
    131e:	70 70       	andi	r23, 0x00	; 0
    1320:	69 6e       	ori	r22, 0xE9	; 233
    1322:	67 2d       	mov	r22, r7
    1324:	6d 61       	ori	r22, 0x1D	; 29
    1326:	74 68       	ori	r23, 0x84	; 132
    1328:	20 2d       	mov	r18, r0
    132a:	66 6e       	ori	r22, 0xE6	; 230
    132c:	6f 2d       	mov	r22, r15
    132e:	74 72       	andi	r23, 0x24	; 36
    1330:	61 70       	andi	r22, 0x01	; 1
    1332:	76 20       	and	r7, r6
    1334:	2d 66       	ori	r18, 0x6D	; 109
    1336:	6e 6f       	ori	r22, 0xFE	; 254
    1338:	2d 6f       	ori	r18, 0xFD	; 253
    133a:	70 65       	ori	r23, 0x50	; 80
    133c:	6e 6d       	ori	r22, 0xDE	; 222
    133e:	70 20       	and	r7, r0
    1340:	2d 66       	ori	r18, 0x6D	; 109
    1342:	6e 6f       	ori	r22, 0xFE	; 254
    1344:	2d 6f       	ori	r18, 0xFD	; 253
    1346:	70 65       	ori	r23, 0x50	; 80
    1348:	6e 61       	ori	r22, 0x1E	; 30
    134a:	63 63       	ori	r22, 0x33	; 51
    134c:	20 2d       	mov	r18, r0
    134e:	66 6e       	ori	r22, 0xE6	; 230
    1350:	6f 2d       	mov	r22, r15
    1352:	65 78       	andi	r22, 0x85	; 133
    1354:	63 65       	ori	r22, 0x53	; 83
    1356:	70 74       	andi	r23, 0x40	; 64
    1358:	69 6f       	ori	r22, 0xF9	; 249
    135a:	6e 73       	andi	r22, 0x3E	; 62
    135c:	20 2d       	mov	r18, r0
    135e:	66 75       	andi	r22, 0x56	; 86
    1360:	73 65       	ori	r23, 0x53	; 83
    1362:	2d 6c       	ori	r18, 0xCD	; 205
    1364:	69 6e       	ori	r22, 0xE9	; 233
    1366:	6b 65       	ori	r22, 0x5B	; 91
    1368:	72 2d       	mov	r23, r2
    136a:	70 6c       	ori	r23, 0xC0	; 192
    136c:	75 67       	ori	r23, 0x75	; 117
    136e:	69 6e       	ori	r22, 0xE9	; 233
    1370:	20 2d       	mov	r18, r0
    1372:	66 6c       	ori	r22, 0xC6	; 198
    1374:	74 72       	andi	r23, 0x24	; 36
    1376:	61 6e       	ori	r22, 0xE1	; 225
    1378:	73 00       	.word	0x0073	; ????
    137a:	52 6f       	ori	r21, 0xF2	; 242
    137c:	77 43       	sbci	r23, 0x37	; 55
    137e:	6f 6e       	ori	r22, 0xEF	; 239
    1380:	74 72       	andi	r23, 0x24	; 36
    1382:	6f 6c       	ori	r22, 0xCF	; 207
    1384:	6c 65       	ori	r22, 0x5C	; 92
    1386:	72 44       	sbci	r23, 0x42	; 66
    1388:	61 74       	andi	r22, 0x41	; 65
    138a:	61 00       	.word	0x0061	; ????
    138c:	45 44       	sbci	r20, 0x45	; 69
    138e:	69 74       	andi	r22, 0x49	; 73
    1390:	68 65       	ori	r22, 0x58	; 88
    1392:	72 4d       	sbci	r23, 0xD2	; 210
    1394:	6f 64       	ori	r22, 0x4F	; 79
    1396:	65 00       	.word	0x0065	; ????
    1398:	67 65       	ori	r22, 0x57	; 87
    139a:	74 41       	sbci	r23, 0x14	; 20
    139c:	64 6a       	ori	r22, 0xA4	; 164
    139e:	75 73       	andi	r23, 0x35	; 53
    13a0:	74 6d       	ori	r23, 0xD4	; 212
    13a2:	65 6e       	ori	r22, 0xE5	; 229
    13a4:	74 00       	.word	0x0074	; ????
    13a6:	66 6c       	ori	r22, 0xC6	; 198
    13a8:	75 73       	andi	r23, 0x35	; 53
    13aa:	68 54       	subi	r22, 0x48	; 72
    13ac:	77 69       	ori	r23, 0x97	; 151
    13ae:	42 75       	andi	r20, 0x52	; 82
    13b0:	66 66       	ori	r22, 0x66	; 102
    13b2:	65 72       	andi	r22, 0x25	; 37
    13b4:	73 00       	.word	0x0073	; ????
    13b6:	69 73       	andi	r22, 0x39	; 57
    13b8:	72 46       	sbci	r23, 0x62	; 98
    13ba:	6c 61       	ori	r22, 0x1C	; 28
    13bc:	67 73       	andi	r22, 0x37	; 55
    13be:	00 49       	sbci	r16, 0x90	; 144
    13c0:	53 52       	subi	r21, 0x23	; 35
    13c2:	5f 49       	sbci	r21, 0x9F	; 159
    13c4:	32 43       	sbci	r19, 0x32	; 50
    13c6:	5f 52       	subi	r21, 0x2F	; 47
    13c8:	65 63       	ori	r22, 0x35	; 53
    13ca:	76 00       	.word	0x0076	; ????
    13cc:	42 4f       	sbci	r20, 0xF2	; 242
    13ce:	44 59       	subi	r20, 0x94	; 148
    13d0:	5f 49       	sbci	r21, 0x9F	; 159
    13d2:	32 43       	sbci	r19, 0x32	; 50
    13d4:	5f 53       	subi	r21, 0x3F	; 63
    13d6:	65 6e       	ori	r22, 0xE5	; 229
    13d8:	64 00       	.word	0x0064	; ????
    13da:	4c 69       	ori	r20, 0x9C	; 156
    13dc:	67 68       	ori	r22, 0x87	; 135
    13de:	74 53       	subi	r23, 0x34	; 52
    13e0:	61 6c       	ori	r22, 0xC1	; 193
    13e2:	6d 6f       	ori	r22, 0xFD	; 253
    13e4:	6e 00       	.word	0x006e	; ????
    13e6:	6e 6f       	ori	r22, 0xFE	; 254
    13e8:	6e 65       	ori	r22, 0x5E	; 94
    13ea:	5f 70       	andi	r21, 0x0F	; 15
    13ec:	65 6e       	ori	r22, 0xE5	; 229
    13ee:	64 69       	ori	r22, 0x94	; 148
    13f0:	6e 67       	ori	r22, 0x7E	; 126
    13f2:	00 43       	sbci	r16, 0x30	; 48
    13f4:	4d 69       	ori	r20, 0x9D	; 157
    13f6:	6e 57       	subi	r22, 0x7E	; 126
    13f8:	61 69       	ori	r22, 0x91	; 145
    13fa:	74 00       	.word	0x0074	; ????
    13fc:	5f 5a       	subi	r21, 0xAF	; 175
    13fe:	4e 34       	cpi	r20, 0x4E	; 78
    1400:	43 52       	subi	r20, 0x23	; 35
    1402:	47 42       	sbci	r20, 0x27	; 39
    1404:	43 32       	cpi	r20, 0x23	; 35
    1406:	45 31       	cpi	r20, 0x15	; 21
    1408:	36 43       	sbci	r19, 0x36	; 54
    140a:	6f 6c       	ori	r22, 0xCF	; 207
    140c:	6f 72       	andi	r22, 0x2F	; 47
    140e:	54 65       	ori	r21, 0x54	; 84
    1410:	6d 70       	andi	r22, 0x0D	; 13
    1412:	65 72       	andi	r22, 0x25	; 37
    1414:	61 74       	andi	r22, 0x41	; 65
    1416:	75 72       	andi	r23, 0x25	; 37
    1418:	65 00       	.word	0x0065	; ????
    141a:	44 61       	ori	r20, 0x14	; 20
    141c:	72 6b       	ori	r23, 0xB2	; 178
    141e:	4d 61       	ori	r20, 0x1D	; 29
    1420:	67 65       	ori	r22, 0x57	; 87
    1422:	6e 74       	andi	r22, 0x4E	; 78
    1424:	61 00       	.word	0x0061	; ????

Disassembly of section .debug_loc:

00000000 <.debug_loc>:
       0:	84 00       	.word	0x0084	; ????
       2:	00 00       	nop
       4:	a0 00       	.word	0x00a0	; ????
       6:	00 00       	nop
       8:	0c 00       	.word	0x000c	; ????
       a:	68 93       	.word	0x9368	; ????
       c:	01 69       	ori	r16, 0x91	; 145
       e:	93 01       	movw	r18, r6
      10:	6a 93       	st	-Y, r22
      12:	01 6b       	ori	r16, 0xB1	; 177
      14:	93 01       	movw	r18, r6
	...
      1e:	72 00       	.word	0x0072	; ????
      20:	00 00       	nop
      22:	a0 00       	.word	0x00a0	; ????
      24:	00 00       	nop
      26:	01 00       	.word	0x0001	; ????
      28:	63 a0       	ldd	r6, Z+35	; 0x23
      2a:	00 00       	nop
      2c:	00 bc       	out	0x20, r0	; 32
      2e:	00 00       	nop
      30:	00 02       	muls	r16, r16
      32:	00 08       	sbc	r0, r0
      34:	5f 00       	.word	0x005f	; ????
      36:	00 00       	nop
      38:	00 00       	nop
      3a:	00 00       	nop
      3c:	00 bc       	out	0x20, r0	; 32
      3e:	00 00       	nop
      40:	00 be       	out	0x30, r0	; 48
      42:	00 00       	nop
      44:	00 03       	mulsu	r16, r16
      46:	00 92 20 02 	sts	0x0220, r0	; 0x800220 <__bss_end+0x1>
      4a:	be 00       	.word	0x00be	; ????
      4c:	00 00       	nop
      4e:	c0 00       	.word	0x00c0	; ????
      50:	00 00       	nop
      52:	03 00       	.word	0x0003	; ????
      54:	92 20       	and	r9, r2
      56:	03 c0       	rjmp	.+6      	; 0x5e <__do_global_ctors+0x8>
      58:	00 00       	nop
      5a:	00 c2       	rjmp	.+1024   	; 0x45c <__LOCK_REGION_LENGTH__+0x5c>
      5c:	00 00       	nop
      5e:	00 03       	mulsu	r16, r16
      60:	00 92 20 04 	sts	0x0420, r0	; 0x800420 <__bss_end+0x201>
      64:	c2 00       	.word	0x00c2	; ????
      66:	00 00       	nop
      68:	c4 00       	.word	0x00c4	; ????
      6a:	00 00       	nop
      6c:	03 00       	.word	0x0003	; ????
      6e:	92 20       	and	r9, r2
      70:	05 c4       	rjmp	.+2058   	; 0x87c <CPixelLEDController<(EOrder)10, 1, 4294967295ul>::showColor(CRGB const&, int, CRGB)+0x2a>
      72:	00 00       	nop
      74:	00 c6       	rjmp	.+3072   	; 0xc76 <main+0x114>
      76:	00 00       	nop
      78:	00 03       	mulsu	r16, r16
      7a:	00 92 20 06 	sts	0x0620, r0	; 0x800620 <__bss_end+0x401>
      7e:	c6 00       	.word	0x00c6	; ????
      80:	00 00       	nop
      82:	c8 00       	.word	0x00c8	; ????
      84:	00 00       	nop
      86:	03 00       	.word	0x0003	; ????
      88:	92 20       	and	r9, r2
      8a:	07 c8       	rjmp	.-4082   	; 0xfffff09a <__eeprom_end+0xff7ef09a>
      8c:	00 00       	nop
      8e:	00 ca       	rjmp	.-3072   	; 0xfffff490 <__eeprom_end+0xff7ef490>
      90:	00 00       	nop
      92:	00 03       	mulsu	r16, r16
      94:	00 92 20 08 	sts	0x0820, r0	; 0x800820 <__bss_end+0x601>
      98:	ca 00       	.word	0x00ca	; ????
      9a:	00 00       	nop
      9c:	cc 00       	.word	0x00cc	; ????
      9e:	00 00       	nop
      a0:	03 00       	.word	0x0003	; ????
      a2:	92 20       	and	r9, r2
      a4:	09 cc       	rjmp	.-2030   	; 0xfffff8b8 <__eeprom_end+0xff7ef8b8>
      a6:	00 00       	nop
      a8:	00 ce       	rjmp	.-1024   	; 0xfffffcaa <__eeprom_end+0xff7efcaa>
      aa:	00 00       	nop
      ac:	00 03       	mulsu	r16, r16
      ae:	00 92 20 0a 	sts	0x0A20, r0	; 0x800a20 <__bss_end+0x801>
      b2:	ce 00       	.word	0x00ce	; ????
      b4:	00 00       	nop
      b6:	d0 00       	.word	0x00d0	; ????
      b8:	00 00       	nop
      ba:	03 00       	.word	0x0003	; ????
      bc:	92 20       	and	r9, r2
      be:	0b d0       	rcall	.+22     	; 0xd6 <CFastLED::show(unsigned char) [clone .constprop.18]+0x1a>
      c0:	00 00       	nop
      c2:	00 d2       	rcall	.+1024   	; 0x4c4 <L_925+0x44>
      c4:	00 00       	nop
      c6:	00 03       	mulsu	r16, r16
      c8:	00 92 20 0c 	sts	0x0C20, r0	; 0x800c20 <__bss_end+0xa01>
      cc:	d2 00       	.word	0x00d2	; ????
      ce:	00 00       	nop
      d0:	d4 00       	.word	0x00d4	; ????
      d2:	00 00       	nop
      d4:	03 00       	.word	0x0003	; ????
      d6:	92 20       	and	r9, r2
      d8:	0d d4       	rcall	.+2074   	; 0x8f4 <CLEDController::clearLeds(int)+0x10>
      da:	00 00       	nop
      dc:	00 d6       	rcall	.+3072   	; 0xcde <main+0x17c>
      de:	00 00       	nop
      e0:	00 03       	mulsu	r16, r16
      e2:	00 92 20 0e 	sts	0x0E20, r0	; 0x800e20 <__bss_end+0xc01>
      e6:	d6 00       	.word	0x00d6	; ????
      e8:	00 00       	nop
      ea:	d8 00       	.word	0x00d8	; ????
      ec:	00 00       	nop
      ee:	03 00       	.word	0x0003	; ????
      f0:	92 20       	and	r9, r2
      f2:	0f d8       	rcall	.-4066   	; 0xfffff112 <__eeprom_end+0xff7ef112>
      f4:	00 00       	nop
      f6:	00 da       	rcall	.-3072   	; 0xfffff4f8 <__eeprom_end+0xff7ef4f8>
      f8:	00 00       	nop
      fa:	00 03       	mulsu	r16, r16
      fc:	00 92 20 10 	sts	0x1020, r0	; 0x801020 <__bss_end+0xe01>
     100:	da 00       	.word	0x00da	; ????
     102:	00 00       	nop
     104:	dc 00       	.word	0x00dc	; ????
     106:	00 00       	nop
     108:	03 00       	.word	0x0003	; ????
     10a:	92 20       	and	r9, r2
     10c:	11 dc       	rcall	.-2014   	; 0xfffff930 <__eeprom_end+0xff7ef930>
     10e:	00 00       	nop
     110:	00 de       	rcall	.-1024   	; 0xfffffd12 <__eeprom_end+0xff7efd12>
     112:	00 00       	nop
     114:	00 03       	mulsu	r16, r16
     116:	00 92 20 12 	sts	0x1220, r0	; 0x801220 <__bss_end+0x1001>
     11a:	de 00       	.word	0x00de	; ????
     11c:	00 00       	nop
     11e:	e2 00       	.word	0x00e2	; ????
     120:	00 00       	nop
     122:	03 00       	.word	0x0003	; ????
     124:	92 20       	and	r9, r2
     126:	13 e2       	ldi	r17, 0x23	; 35
     128:	00 00       	nop
     12a:	00 e6       	ldi	r16, 0x60	; 96
     12c:	00 00       	nop
     12e:	00 03       	mulsu	r16, r16
     130:	00 92 20 16 	sts	0x1620, r0	; 0x801620 <__bss_end+0x1401>
     134:	e6 00       	.word	0x00e6	; ????
     136:	00 00       	nop
     138:	04 03       	mulsu	r16, r20
     13a:	00 00       	nop
     13c:	02 00       	.word	0x0002	; ????
     13e:	8c 16       	cp	r8, r28
	...
     148:	bc 00       	.word	0x00bc	; ????
     14a:	00 00       	nop
     14c:	e8 00       	.word	0x00e8	; ????
     14e:	00 00       	nop
     150:	01 00       	.word	0x0001	; ????
     152:	68 e8       	ldi	r22, 0x88	; 136
     154:	00 00       	nop
     156:	00 78       	andi	r16, 0x80	; 128
     158:	01 00       	.word	0x0001	; ????
     15a:	00 01       	movw	r0, r0
     15c:	00 5d       	subi	r16, 0xD0	; 208
     15e:	78 01       	movw	r14, r16
     160:	00 00       	nop
     162:	00 03       	mulsu	r16, r16
     164:	00 00       	nop
     166:	01 00       	.word	0x0001	; ????
     168:	54 00       	.word	0x0054	; ????
     16a:	00 00       	nop
     16c:	00 00       	nop
     16e:	00 00       	nop
     170:	00 78       	andi	r16, 0x80	; 128
     172:	01 00       	.word	0x0001	; ????
     174:	00 32       	cpi	r16, 0x20	; 32
     176:	02 00       	.word	0x0002	; ????
     178:	00 06       	cpc	r0, r16
     17a:	00 5e       	subi	r16, 0xE0	; 224
     17c:	93 01       	movw	r18, r6
     17e:	5f 93       	push	r21
     180:	01 34       	cpi	r16, 0x41	; 65
     182:	02 00       	.word	0x0002	; ????
     184:	00 ec       	ldi	r16, 0xC0	; 192
     186:	02 00       	.word	0x0002	; ????
     188:	00 06       	cpc	r0, r16
     18a:	00 5e       	subi	r16, 0xE0	; 224
     18c:	93 01       	movw	r18, r6
     18e:	5f 93       	push	r21
     190:	01 00       	.word	0x0001	; ????
     192:	00 00       	nop
     194:	00 00       	nop
     196:	00 00       	nop
     198:	00 9a       	sbi	0x00, 0	; 0
     19a:	01 00       	.word	0x0001	; ????
     19c:	00 24       	eor	r0, r0
     19e:	02 00       	.word	0x0002	; ????
     1a0:	00 01       	movw	r0, r0
     1a2:	00 54       	subi	r16, 0x40	; 64
	...
     1ac:	9a 01       	movw	r18, r20
     1ae:	00 00       	nop
     1b0:	24 02       	muls	r18, r20
     1b2:	00 00       	nop
     1b4:	06 00       	.word	0x0006	; ????
     1b6:	5e 93       	st	-X, r21
     1b8:	01 5f       	subi	r16, 0xF1	; 241
     1ba:	93 01       	movw	r18, r6
	...
     1c4:	a4 01       	movw	r20, r8
     1c6:	00 00       	nop
     1c8:	0e 02       	muls	r16, r30
     1ca:	00 00       	nop
     1cc:	01 00       	.word	0x0001	; ????
     1ce:	54 00       	.word	0x0054	; ????
     1d0:	00 00       	nop
     1d2:	00 00       	nop
     1d4:	00 00       	nop
     1d6:	00 a4       	ldd	r0, Z+40	; 0x28
     1d8:	01 00       	.word	0x0001	; ????
     1da:	00 0e       	add	r0, r16
     1dc:	02 00       	.word	0x0002	; ????
     1de:	00 06       	cpc	r0, r16
     1e0:	00 5e       	subi	r16, 0xE0	; 224
     1e2:	93 01       	movw	r18, r6
     1e4:	5f 93       	push	r21
     1e6:	01 00       	.word	0x0001	; ????
     1e8:	00 00       	nop
     1ea:	00 00       	nop
     1ec:	00 00       	nop
     1ee:	00 a4       	ldd	r0, Z+40	; 0x28
     1f0:	01 00       	.word	0x0001	; ????
     1f2:	00 0e       	add	r0, r16
     1f4:	02 00       	.word	0x0002	; ????
     1f6:	00 03       	mulsu	r16, r16
     1f8:	00 7e       	andi	r16, 0xE0	; 224
     1fa:	09 9f       	mul	r16, r25
	...
     204:	a4 01       	movw	r20, r8
     206:	00 00       	nop
     208:	b6 01       	movw	r22, r12
     20a:	00 00       	nop
     20c:	03 00       	.word	0x0003	; ????
     20e:	7e 06       	cpc	r7, r30
     210:	9f b6       	in	r9, 0x3f	; 63
     212:	01 00       	.word	0x0001	; ????
     214:	00 ba       	out	0x10, r0	; 16
     216:	01 00       	.word	0x0001	; ????
     218:	00 06       	cpc	r0, r16
     21a:	00 5a       	subi	r16, 0xA0	; 160
     21c:	93 01       	movw	r18, r6
     21e:	5b 93       	.word	0x935b	; ????
     220:	01 ba       	out	0x11, r0	; 17
     222:	01 00       	.word	0x0001	; ????
     224:	00 0e       	add	r0, r16
     226:	02 00       	.word	0x0002	; ????
     228:	00 03       	mulsu	r16, r16
     22a:	00 7e       	andi	r16, 0xE0	; 224
     22c:	06 9f       	mul	r16, r22
	...
     236:	ba 01       	movw	r22, r20
     238:	00 00       	nop
     23a:	fe 01       	movw	r30, r28
     23c:	00 00       	nop
     23e:	01 00       	.word	0x0001	; ????
     240:	60 fe       	sbrs	r6, 0
     242:	01 00       	.word	0x0001	; ????
     244:	00 02       	muls	r16, r16
     246:	02 00       	.word	0x0002	; ????
     248:	00 03       	mulsu	r16, r16
     24a:	00 80       	ld	r0, Z
     24c:	01 9f       	mul	r16, r17
     24e:	02 02       	muls	r16, r18
     250:	00 00       	nop
     252:	08 02       	muls	r16, r24
     254:	00 00       	nop
     256:	01 00       	.word	0x0001	; ????
     258:	60 00       	.word	0x0060	; ????
     25a:	00 00       	nop
     25c:	00 00       	nop
     25e:	00 00       	nop
     260:	00 c0       	rjmp	.+0      	; 0x262 <__stack+0x3>
     262:	01 00       	.word	0x0001	; ????
     264:	00 d8       	rcall	.-4096   	; 0xfffff266 <__eeprom_end+0xff7ef266>
     266:	01 00       	.word	0x0001	; ????
     268:	00 01       	movw	r0, r0
     26a:	00 66       	ori	r16, 0x60	; 96
     26c:	d8 01       	movw	r26, r16
     26e:	00 00       	nop
     270:	dd 01       	movw	r26, r26
     272:	00 00       	nop
     274:	02 00       	.word	0x0002	; ????
     276:	7a 7f       	andi	r23, 0xFA	; 250
	...
     280:	c0 01       	movw	r24, r0
     282:	00 00       	nop
     284:	dd 01       	movw	r26, r26
     286:	00 00       	nop
     288:	07 00       	.word	0x0007	; ????
     28a:	7e 00       	.word	0x007e	; ????
     28c:	80 00       	.word	0x0080	; ????
     28e:	22 23       	and	r18, r18
     290:	09 00       	.word	0x0009	; ????
     292:	00 00       	nop
     294:	00 00       	nop
     296:	00 00       	nop
     298:	00 a4       	ldd	r0, Z+40	; 0x28
     29a:	01 00       	.word	0x0001	; ????
     29c:	00 aa       	std	Z+48, r0	; 0x30
     29e:	01 00       	.word	0x0001	; ????
     2a0:	00 02       	muls	r16, r16
     2a2:	00 30       	cpi	r16, 0x00	; 0
     2a4:	9f 00       	.word	0x009f	; ????
     2a6:	00 00       	nop
     2a8:	00 00       	nop
     2aa:	00 00       	nop
     2ac:	00 a4       	ldd	r0, Z+40	; 0x28
     2ae:	01 00       	.word	0x0001	; ????
     2b0:	00 aa       	std	Z+48, r0	; 0x30
     2b2:	01 00       	.word	0x0001	; ????
     2b4:	00 03       	mulsu	r16, r16
     2b6:	00 8c       	ldd	r0, Z+24	; 0x18
     2b8:	01 9f       	mul	r16, r17
	...
     2c2:	96 01       	movw	r18, r12
     2c4:	00 00       	nop
     2c6:	9a 01       	movw	r18, r20
     2c8:	00 00       	nop
     2ca:	02 00       	.word	0x0002	; ????
     2cc:	30 9f       	mul	r19, r16
	...
     2d6:	96 01       	movw	r18, r12
     2d8:	00 00       	nop
     2da:	9a 01       	movw	r18, r20
     2dc:	00 00       	nop
     2de:	06 00       	.word	0x0006	; ????
     2e0:	5e 93       	st	-X, r21
     2e2:	01 5f       	subi	r16, 0xF1	; 241
     2e4:	93 01       	movw	r18, r6
	...
     2ee:	24 02       	muls	r18, r20
     2f0:	00 00       	nop
     2f2:	2c 02       	muls	r18, r28
     2f4:	00 00       	nop
     2f6:	01 00       	.word	0x0001	; ????
     2f8:	5c 00       	.word	0x005c	; ????
     2fa:	00 00       	nop
     2fc:	00 00       	nop
     2fe:	00 00       	nop
     300:	00 24       	eor	r0, r0
     302:	02 00       	.word	0x0002	; ????
     304:	00 2c       	mov	r0, r0
     306:	02 00       	.word	0x0002	; ????
     308:	00 06       	cpc	r0, r16
     30a:	00 5e       	subi	r16, 0xE0	; 224
     30c:	93 01       	movw	r18, r6
     30e:	5f 93       	push	r21
     310:	01 00       	.word	0x0001	; ????
     312:	00 00       	nop
     314:	00 00       	nop
     316:	00 00       	nop
     318:	00 34       	cpi	r16, 0x40	; 64
     31a:	02 00       	.word	0x0002	; ????
     31c:	00 da       	rcall	.-3072   	; 0xfffff71e <__eeprom_end+0xff7ef71e>
     31e:	02 00       	.word	0x0002	; ????
     320:	00 02       	muls	r16, r16
     322:	00 49       	sbci	r16, 0x90	; 144
     324:	9f 00       	.word	0x009f	; ????
     326:	00 00       	nop
     328:	00 00       	nop
     32a:	00 00       	nop
     32c:	00 7e       	andi	r16, 0xE0	; 224
     32e:	02 00       	.word	0x0002	; ????
     330:	00 da       	rcall	.-3072   	; 0xfffff732 <__eeprom_end+0xff7ef732>
     332:	02 00       	.word	0x0002	; ????
     334:	00 0c       	add	r0, r0
     336:	00 60       	ori	r16, 0x00	; 0
     338:	93 01       	movw	r18, r6
     33a:	61 93       	st	Z+, r22
     33c:	01 62       	ori	r16, 0x21	; 33
     33e:	93 01       	movw	r18, r6
     340:	63 93       	.word	0x9363	; ????
     342:	01 00       	.word	0x0001	; ????
     344:	00 00       	nop
     346:	00 00       	nop
     348:	00 00       	nop
     34a:	00 64       	ori	r16, 0x40	; 64
     34c:	02 00       	.word	0x0002	; ????
     34e:	00 66       	ori	r16, 0x60	; 96
     350:	02 00       	.word	0x0002	; ????
     352:	00 0c       	add	r0, r0
     354:	00 60       	ori	r16, 0x00	; 0
     356:	93 01       	movw	r18, r6
     358:	61 93       	st	Z+, r22
     35a:	01 62       	ori	r16, 0x21	; 33
     35c:	93 01       	movw	r18, r6
     35e:	63 93       	.word	0x9363	; ????
     360:	01 00       	.word	0x0001	; ????
     362:	00 00       	nop
     364:	00 00       	nop
     366:	00 00       	nop
     368:	00 52       	subi	r16, 0x20	; 32
     36a:	02 00       	.word	0x0002	; ????
     36c:	00 66       	ori	r16, 0x60	; 96
     36e:	02 00       	.word	0x0002	; ????
     370:	00 01       	movw	r0, r0
     372:	00 68       	ori	r16, 0x80	; 128
	...
     37c:	c8 02       	muls	r28, r24
     37e:	00 00       	nop
     380:	ca 02       	muls	r28, r26
     382:	00 00       	nop
     384:	0c 00       	.word	0x000c	; ????
     386:	68 93       	.word	0x9368	; ????
     388:	01 69       	ori	r16, 0x91	; 145
     38a:	93 01       	movw	r18, r6
     38c:	6a 93       	st	-Y, r22
     38e:	01 6b       	ori	r16, 0xB1	; 177
     390:	93 01       	movw	r18, r6
	...
     39a:	b6 02       	muls	r27, r22
     39c:	00 00       	nop
     39e:	ca 02       	muls	r28, r26
     3a0:	00 00       	nop
     3a2:	01 00       	.word	0x0001	; ????
     3a4:	62 00       	.word	0x0062	; ????
     3a6:	00 00       	nop
     3a8:	00 00       	nop
     3aa:	00 00       	nop
     3ac:	00 04       	cpc	r0, r0
     3ae:	03 00       	.word	0x0003	; ????
     3b0:	00 0e       	add	r0, r16
     3b2:	03 00       	.word	0x0003	; ????
     3b4:	00 01       	movw	r0, r0
     3b6:	00 68       	ori	r16, 0x80	; 128
     3b8:	0e 03       	fmul	r16, r22
     3ba:	00 00       	nop
     3bc:	1a 03       	fmul	r17, r18
     3be:	00 00       	nop
     3c0:	04 00       	.word	0x0004	; ????
     3c2:	f3 01       	movw	r30, r6
     3c4:	68 9f       	mul	r22, r24
	...
     3ce:	30 03       	mulsu	r19, r16
     3d0:	00 00       	nop
     3d2:	34 03       	mulsu	r19, r20
     3d4:	00 00       	nop
     3d6:	06 00       	.word	0x0006	; ????
     3d8:	68 93       	.word	0x9368	; ????
     3da:	01 69       	ori	r16, 0x91	; 145
     3dc:	93 01       	movw	r18, r6
     3de:	34 03       	mulsu	r19, r20
     3e0:	00 00       	nop
     3e2:	36 03       	mulsu	r19, r22
     3e4:	00 00       	nop
     3e6:	04 00       	.word	0x0004	; ????
     3e8:	f3 01       	movw	r30, r6
     3ea:	68 9f       	mul	r22, r24
	...
     3f4:	62 03       	mulsu	r22, r18
     3f6:	00 00       	nop
     3f8:	64 03       	mulsu	r22, r20
     3fa:	00 00       	nop
     3fc:	03 00       	.word	0x0003	; ????
     3fe:	92 20       	and	r9, r2
     400:	02 64       	ori	r16, 0x42	; 66
     402:	03 00       	.word	0x0003	; ????
     404:	00 66       	ori	r16, 0x60	; 96
     406:	03 00       	.word	0x0003	; ????
     408:	00 03       	mulsu	r16, r16
     40a:	00 92 20 03 	sts	0x0320, r0	; 0x800320 <__bss_end+0x101>
     40e:	66 03       	mulsu	r22, r22
     410:	00 00       	nop
     412:	68 03       	fmul	r22, r16
     414:	00 00       	nop
     416:	03 00       	.word	0x0003	; ????
     418:	92 20       	and	r9, r2
     41a:	04 68       	ori	r16, 0x84	; 132
     41c:	03 00       	.word	0x0003	; ????
     41e:	00 6a       	ori	r16, 0xA0	; 160
     420:	03 00       	.word	0x0003	; ????
     422:	00 03       	mulsu	r16, r16
     424:	00 92 20 05 	sts	0x0520, r0	; 0x800520 <__bss_end+0x301>
     428:	6a 03       	fmul	r22, r18
     42a:	00 00       	nop
     42c:	6c 03       	fmul	r22, r20
     42e:	00 00       	nop
     430:	03 00       	.word	0x0003	; ????
     432:	92 20       	and	r9, r2
     434:	06 6c       	ori	r16, 0xC6	; 198
     436:	03 00       	.word	0x0003	; ????
     438:	00 6e       	ori	r16, 0xE0	; 224
     43a:	03 00       	.word	0x0003	; ????
     43c:	00 03       	mulsu	r16, r16
     43e:	00 92 20 07 	sts	0x0720, r0	; 0x800720 <__bss_end+0x501>
     442:	6e 03       	fmul	r22, r22
     444:	00 00       	nop
     446:	e8 03       	fmulsu	r22, r16
     448:	00 00       	nop
     44a:	03 00       	.word	0x0003	; ????
     44c:	92 20       	and	r9, r2
     44e:	08 00       	.word	0x0008	; ????
     450:	00 00       	nop
     452:	00 00       	nop
     454:	00 00       	nop
     456:	00 62       	ori	r16, 0x20	; 32
     458:	03 00       	.word	0x0003	; ????
     45a:	00 9c       	mul	r0, r0
     45c:	03 00       	.word	0x0003	; ????
     45e:	00 06       	cpc	r0, r16
     460:	00 68       	ori	r16, 0x80	; 128
     462:	93 01       	movw	r18, r6
     464:	69 93       	st	Y+, r22
     466:	01 9c       	mul	r0, r1
     468:	03 00       	.word	0x0003	; ????
     46a:	00 9e       	mul	r0, r16
     46c:	03 00       	.word	0x0003	; ????
     46e:	00 06       	cpc	r0, r16
     470:	00 6e       	ori	r16, 0xE0	; 224
     472:	93 01       	movw	r18, r6
     474:	6f 93       	push	r22
     476:	01 9e       	mul	r0, r17
     478:	03 00       	.word	0x0003	; ????
     47a:	00 dc       	rcall	.-2048   	; 0xfffffc7c <__eeprom_end+0xff7efc7c>
     47c:	03 00       	.word	0x0003	; ????
     47e:	00 03       	mulsu	r16, r16
     480:	00 80       	ld	r0, Z
     482:	7d 9f       	mul	r23, r29
     484:	dc 03       	fmulsu	r21, r20
     486:	00 00       	nop
     488:	e8 03       	fmulsu	r22, r16
     48a:	00 00       	nop
     48c:	04 00       	.word	0x0004	; ????
     48e:	f3 01       	movw	r30, r6
     490:	68 9f       	mul	r22, r24
	...
     49a:	7c 03       	fmul	r23, r20
     49c:	00 00       	nop
     49e:	82 03       	fmuls	r16, r18
     4a0:	00 00       	nop
     4a2:	02 00       	.word	0x0002	; ????
     4a4:	30 9f       	mul	r19, r16
     4a6:	82 03       	fmuls	r16, r18
     4a8:	00 00       	nop
     4aa:	d8 03       	fmulsu	r21, r16
     4ac:	00 00       	nop
     4ae:	01 00       	.word	0x0001	; ????
     4b0:	6c e2       	ldi	r22, 0x2C	; 44
     4b2:	03 00       	.word	0x0003	; ????
     4b4:	00 e8       	ldi	r16, 0x80	; 128
     4b6:	03 00       	.word	0x0003	; ????
     4b8:	00 01       	movw	r0, r0
     4ba:	00 6c       	ori	r16, 0xC0	; 192
	...
     4c4:	8e 03       	fmulsu	r16, r22
     4c6:	00 00       	nop
     4c8:	9e 03       	fmulsu	r17, r22
     4ca:	00 00       	nop
     4cc:	02 00       	.word	0x0002	; ????
     4ce:	30 9f       	mul	r19, r16
     4d0:	9e 03       	fmulsu	r17, r22
     4d2:	00 00       	nop
     4d4:	cc 03       	fmulsu	r20, r20
     4d6:	00 00       	nop
     4d8:	08 00       	.word	0x0008	; ????
     4da:	8e 00       	.word	0x008e	; ????
     4dc:	80 00       	.word	0x0080	; ????
     4de:	1c 23       	and	r17, r28
     4e0:	03 9f       	mul	r16, r19
     4e2:	cc 03       	fmulsu	r20, r20
     4e4:	00 00       	nop
     4e6:	ce 03       	fmulsu	r20, r22
     4e8:	00 00       	nop
     4ea:	08 00       	.word	0x0008	; ????
     4ec:	8e 00       	.word	0x008e	; ????
     4ee:	80 00       	.word	0x0080	; ????
     4f0:	1c 23       	and	r17, r28
     4f2:	04 9f       	mul	r16, r20
     4f4:	ce 03       	fmulsu	r20, r22
     4f6:	00 00       	nop
     4f8:	dc 03       	fmulsu	r21, r20
     4fa:	00 00       	nop
     4fc:	08 00       	.word	0x0008	; ????
     4fe:	8e 00       	.word	0x008e	; ????
     500:	80 00       	.word	0x0080	; ????
     502:	1c 23       	and	r17, r28
     504:	03 9f       	mul	r16, r19
     506:	dc 03       	fmulsu	r21, r20
     508:	00 00       	nop
     50a:	e8 03       	fmulsu	r22, r16
     50c:	00 00       	nop
     50e:	07 00       	.word	0x0007	; ????
     510:	8e 00       	.word	0x008e	; ????
     512:	f3 01       	movw	r30, r6
     514:	68 1c       	adc	r6, r8
     516:	9f 00       	.word	0x009f	; ????
     518:	00 00       	nop
     51a:	00 00       	nop
     51c:	00 00       	nop
     51e:	00 a0       	ldd	r0, Z+32	; 0x20
     520:	03 00       	.word	0x0003	; ????
     522:	00 ae       	std	Z+56, r0	; 0x38
     524:	03 00       	.word	0x0003	; ????
     526:	00 01       	movw	r0, r0
     528:	00 62       	ori	r16, 0x20	; 32
     52a:	ae 03       	fmulsu	r18, r22
     52c:	00 00       	nop
     52e:	ce 03       	fmulsu	r20, r22
     530:	00 00       	nop
     532:	02 00       	.word	0x0002	; ????
     534:	8e 0c       	add	r8, r14
     536:	ce 03       	fmulsu	r20, r22
     538:	00 00       	nop
     53a:	e2 03       	fmuls	r22, r18
     53c:	00 00       	nop
     53e:	02 00       	.word	0x0002	; ????
     540:	8e 0b       	sbc	r24, r30
     542:	e2 03       	fmuls	r22, r18
     544:	00 00       	nop
     546:	e8 03       	fmulsu	r22, r16
     548:	00 00       	nop
     54a:	02 00       	.word	0x0002	; ????
     54c:	8e 0c       	add	r8, r14
	...
     556:	b2 03       	fmuls	r19, r18
     558:	00 00       	nop
     55a:	bc 03       	fmulsu	r19, r20
     55c:	00 00       	nop
     55e:	01 00       	.word	0x0001	; ????
     560:	62 00       	.word	0x0062	; ????
     562:	00 00       	nop
     564:	00 00       	nop
     566:	00 00       	nop
     568:	00 b2       	in	r0, 0x10	; 16
     56a:	03 00       	.word	0x0003	; ????
     56c:	00 bc       	out	0x20, r0	; 32
     56e:	03 00       	.word	0x0003	; ????
     570:	00 01       	movw	r0, r0
     572:	00 6c       	ori	r16, 0xC0	; 192
	...
     57c:	e8 03       	fmulsu	r22, r16
     57e:	00 00       	nop
     580:	ea 03       	fmulsu	r22, r18
     582:	00 00       	nop
     584:	03 00       	.word	0x0003	; ????
     586:	92 20       	and	r9, r2
     588:	02 ea       	ldi	r16, 0xA2	; 162
     58a:	03 00       	.word	0x0003	; ????
     58c:	00 ec       	ldi	r16, 0xC0	; 192
     58e:	03 00       	.word	0x0003	; ????
     590:	00 03       	mulsu	r16, r16
     592:	00 92 20 03 	sts	0x0320, r0	; 0x800320 <__bss_end+0x101>
     596:	ec 03       	fmulsu	r22, r20
     598:	00 00       	nop
     59a:	ee 03       	fmulsu	r22, r22
     59c:	00 00       	nop
     59e:	03 00       	.word	0x0003	; ????
     5a0:	92 20       	and	r9, r2
     5a2:	04 ee       	ldi	r16, 0xE4	; 228
     5a4:	03 00       	.word	0x0003	; ????
     5a6:	00 f0       	brcs	.+0      	; 0x5a8 <L_2206+0x20>
     5a8:	03 00       	.word	0x0003	; ????
     5aa:	00 03       	mulsu	r16, r16
     5ac:	00 92 20 05 	sts	0x0520, r0	; 0x800520 <__bss_end+0x301>
     5b0:	f0 03       	fmuls	r23, r16
     5b2:	00 00       	nop
     5b4:	f2 03       	fmuls	r23, r18
     5b6:	00 00       	nop
     5b8:	03 00       	.word	0x0003	; ????
     5ba:	92 20       	and	r9, r2
     5bc:	06 f2       	brts	.-128    	; 0x53e <L_1401+0x52>
     5be:	03 00       	.word	0x0003	; ????
     5c0:	00 f4       	brcc	.+0      	; 0x5c2 <L_2206+0x3a>
     5c2:	03 00       	.word	0x0003	; ????
     5c4:	00 03       	mulsu	r16, r16
     5c6:	00 92 20 07 	sts	0x0720, r0	; 0x800720 <__bss_end+0x501>
     5ca:	f4 03       	fmuls	r23, r20
     5cc:	00 00       	nop
     5ce:	f6 03       	fmuls	r23, r22
     5d0:	00 00       	nop
     5d2:	03 00       	.word	0x0003	; ????
     5d4:	92 20       	and	r9, r2
     5d6:	08 f6       	brcc	.-126    	; 0x55a <L_1401+0x6e>
     5d8:	03 00       	.word	0x0003	; ????
     5da:	00 f8       	bld	r0, 0
     5dc:	03 00       	.word	0x0003	; ????
     5de:	00 03       	mulsu	r16, r16
     5e0:	00 92 20 09 	sts	0x0920, r0	; 0x800920 <__bss_end+0x701>
     5e4:	f8 03       	fmulsu	r23, r16
     5e6:	00 00       	nop
     5e8:	fa 03       	fmulsu	r23, r18
     5ea:	00 00       	nop
     5ec:	03 00       	.word	0x0003	; ????
     5ee:	92 20       	and	r9, r2
     5f0:	0a fa       	.word	0xfa0a	; ????
     5f2:	03 00       	.word	0x0003	; ????
     5f4:	00 fc       	sbrc	r0, 0
     5f6:	03 00       	.word	0x0003	; ????
     5f8:	00 03       	mulsu	r16, r16
     5fa:	00 92 20 0b 	sts	0x0B20, r0	; 0x800b20 <__bss_end+0x901>
     5fe:	fc 03       	fmulsu	r23, r20
     600:	00 00       	nop
     602:	fe 03       	fmulsu	r23, r22
     604:	00 00       	nop
     606:	03 00       	.word	0x0003	; ????
     608:	92 20       	and	r9, r2
     60a:	0c fe       	.word	0xfe0c	; ????
     60c:	03 00       	.word	0x0003	; ????
     60e:	00 00       	nop
     610:	04 00       	.word	0x0004	; ????
     612:	00 03       	mulsu	r16, r16
     614:	00 92 20 0d 	sts	0x0D20, r0	; 0x800d20 <__bss_end+0xb01>
     618:	00 04       	cpc	r0, r0
     61a:	00 00       	nop
     61c:	02 04       	cpc	r0, r2
     61e:	00 00       	nop
     620:	03 00       	.word	0x0003	; ????
     622:	92 20       	and	r9, r2
     624:	0e 02       	muls	r16, r30
     626:	04 00       	.word	0x0004	; ????
     628:	00 04       	cpc	r0, r0
     62a:	04 00       	.word	0x0004	; ????
     62c:	00 03       	mulsu	r16, r16
     62e:	00 92 20 0f 	sts	0x0F20, r0	; 0x800f20 <__bss_end+0xd01>
     632:	04 04       	cpc	r0, r4
     634:	00 00       	nop
     636:	06 04       	cpc	r0, r6
     638:	00 00       	nop
     63a:	03 00       	.word	0x0003	; ????
     63c:	92 20       	and	r9, r2
     63e:	10 06       	cpc	r1, r16
     640:	04 00       	.word	0x0004	; ????
     642:	00 92 07 00 	sts	0x0007, r0	; 0x800007 <__EEPROM_REGION_LENGTH__+0x7f0007>
     646:	00 03       	mulsu	r16, r16
     648:	00 92 20 11 	sts	0x1120, r0	; 0x801120 <__bss_end+0xf01>
	...
     654:	e8 03       	fmulsu	r22, r16
     656:	00 00       	nop
     658:	0a 04       	cpc	r0, r10
     65a:	00 00       	nop
     65c:	06 00       	.word	0x0006	; ????
     65e:	68 93       	.word	0x9368	; ????
     660:	01 69       	ori	r16, 0x91	; 145
     662:	93 01       	movw	r18, r6
     664:	0a 04       	cpc	r0, r10
     666:	00 00       	nop
     668:	90 07       	cpc	r25, r16
     66a:	00 00       	nop
     66c:	06 00       	.word	0x0006	; ????
     66e:	54 93       	xch	Z, r21
     670:	01 55       	subi	r16, 0x51	; 81
     672:	93 01       	movw	r18, r6
     674:	90 07       	cpc	r25, r16
     676:	00 00       	nop
     678:	92 07       	cpc	r25, r18
     67a:	00 00       	nop
     67c:	06 00       	.word	0x0006	; ????
     67e:	6e 93       	st	-X, r22
     680:	01 6f       	ori	r16, 0xF1	; 241
     682:	93 01       	movw	r18, r6
	...
     68c:	e8 03       	fmulsu	r22, r16
     68e:	00 00       	nop
     690:	0a 04       	cpc	r0, r10
     692:	00 00       	nop
     694:	06 00       	.word	0x0006	; ????
     696:	66 93       	lac	Z, r22
     698:	01 67       	ori	r16, 0x71	; 113
     69a:	93 01       	movw	r18, r6
     69c:	0a 04       	cpc	r0, r10
     69e:	00 00       	nop
     6a0:	b0 06       	cpc	r11, r16
     6a2:	00 00       	nop
     6a4:	06 00       	.word	0x0006	; ????
     6a6:	6c 93       	st	X, r22
     6a8:	01 6d       	ori	r16, 0xD1	; 209
     6aa:	93 01       	movw	r18, r6
     6ac:	b0 06       	cpc	r11, r16
     6ae:	00 00       	nop
     6b0:	92 07       	cpc	r25, r18
     6b2:	00 00       	nop
     6b4:	04 00       	.word	0x0004	; ????
     6b6:	f3 01       	movw	r30, r6
     6b8:	66 9f       	mul	r22, r22
	...
     6c2:	d6 06       	cpc	r13, r22
     6c4:	00 00       	nop
     6c6:	f8 06       	cpc	r15, r24
     6c8:	00 00       	nop
     6ca:	0c 00       	.word	0x000c	; ????
     6cc:	5c 93       	st	X, r21
     6ce:	01 5d       	subi	r16, 0xD1	; 209
     6d0:	93 01       	movw	r18, r6
     6d2:	5e 93       	st	-X, r21
     6d4:	01 5f       	subi	r16, 0xF1	; 241
     6d6:	93 01       	movw	r18, r6
     6d8:	f8 06       	cpc	r15, r24
     6da:	00 00       	nop
     6dc:	04 07       	cpc	r16, r20
     6de:	00 00       	nop
     6e0:	0c 00       	.word	0x000c	; ????
     6e2:	68 93       	.word	0x9368	; ????
     6e4:	01 69       	ori	r16, 0x91	; 145
     6e6:	93 01       	movw	r18, r6
     6e8:	6a 93       	st	-Y, r22
     6ea:	01 6b       	ori	r16, 0xB1	; 177
     6ec:	93 01       	movw	r18, r6
     6ee:	04 07       	cpc	r16, r20
     6f0:	00 00       	nop
     6f2:	0c 07       	cpc	r16, r28
     6f4:	00 00       	nop
     6f6:	04 00       	.word	0x0004	; ????
     6f8:	88 98       	cbi	0x11, 0	; 17
     6fa:	78 9f       	mul	r23, r24
     6fc:	0c 07       	cpc	r16, r28
     6fe:	00 00       	nop
     700:	1a 07       	cpc	r17, r26
     702:	00 00       	nop
     704:	0c 00       	.word	0x000c	; ????
     706:	68 93       	.word	0x9368	; ????
     708:	01 69       	ori	r16, 0x91	; 145
     70a:	93 01       	movw	r18, r6
     70c:	6a 93       	st	-Y, r22
     70e:	01 6b       	ori	r16, 0xB1	; 177
     710:	93 01       	movw	r18, r6
	...
     71a:	0a 04       	cpc	r0, r10
     71c:	00 00       	nop
     71e:	1c 04       	cpc	r1, r12
     720:	00 00       	nop
     722:	03 00       	.word	0x0003	; ????
     724:	74 0f       	add	r23, r20
     726:	9f 00       	.word	0x009f	; ????
     728:	00 00       	nop
     72a:	00 00       	nop
     72c:	00 00       	nop
     72e:	00 0c       	add	r0, r0
     730:	04 00       	.word	0x0004	; ????
     732:	00 16       	cp	r0, r16
     734:	04 00       	.word	0x0004	; ????
     736:	00 08       	sbc	r0, r0
     738:	00 86       	std	Z+8, r0	; 0x08
     73a:	00 74       	andi	r16, 0x40	; 64
     73c:	0f 94 02 1c 	call	0x23804	; 0x23804 <__EEPROM_REGION_LENGTH__+0x13804>
     740:	9f 00       	.word	0x009f	; ????
     742:	00 00       	nop
     744:	00 00       	nop
     746:	00 00       	nop
     748:	00 2a       	or	r0, r16
     74a:	04 00       	.word	0x0004	; ????
     74c:	00 aa       	std	Z+48, r0	; 0x30
     74e:	06 00       	.word	0x0006	; ????
     750:	00 06       	cpc	r0, r16
     752:	00 6c       	ori	r16, 0xC0	; 192
     754:	93 01       	movw	r18, r6
     756:	6d 93       	st	X+, r22
     758:	01 00       	.word	0x0001	; ????
     75a:	00 00       	nop
     75c:	00 00       	nop
     75e:	00 00       	nop
     760:	00 2e       	mov	r0, r16
     762:	04 00       	.word	0x0004	; ????
     764:	00 aa       	std	Z+48, r0	; 0x30
     766:	06 00       	.word	0x0006	; ????
     768:	00 06       	cpc	r0, r16
     76a:	00 6e       	ori	r16, 0xE0	; 224
     76c:	93 01       	movw	r18, r6
     76e:	6f 93       	push	r22
     770:	01 00       	.word	0x0001	; ????
     772:	00 00       	nop
     774:	00 00       	nop
     776:	00 00       	nop
     778:	00 2e       	mov	r0, r16
     77a:	04 00       	.word	0x0004	; ????
     77c:	00 78       	andi	r16, 0x80	; 128
     77e:	04 00       	.word	0x0004	; ????
     780:	00 02       	muls	r16, r16
     782:	00 30       	cpi	r16, 0x00	; 0
     784:	9f 78       	andi	r25, 0x8F	; 143
     786:	04 00       	.word	0x0004	; ????
     788:	00 aa       	std	Z+48, r0	; 0x30
     78a:	06 00       	.word	0x0006	; ????
     78c:	00 01       	movw	r0, r0
     78e:	00 62       	ori	r16, 0x20	; 32
	...
     798:	36 04       	cpc	r3, r6
     79a:	00 00       	nop
     79c:	aa 06       	cpc	r10, r26
     79e:	00 00       	nop
     7a0:	01 00       	.word	0x0001	; ????
     7a2:	58 00       	.word	0x0058	; ????
     7a4:	00 00       	nop
     7a6:	00 00       	nop
     7a8:	00 00       	nop
     7aa:	00 3a       	cpi	r16, 0xA0	; 160
     7ac:	04 00       	.word	0x0004	; ????
     7ae:	00 aa       	std	Z+48, r0	; 0x30
     7b0:	06 00       	.word	0x0006	; ????
     7b2:	00 01       	movw	r0, r0
     7b4:	00 63       	ori	r16, 0x30	; 48
	...
     7be:	3c 04       	cpc	r3, r12
     7c0:	00 00       	nop
     7c2:	6a 04       	cpc	r6, r10
     7c4:	00 00       	nop
     7c6:	02 00       	.word	0x0002	; ????
     7c8:	30 9f       	mul	r19, r16
     7ca:	6a 04       	cpc	r6, r10
     7cc:	00 00       	nop
     7ce:	aa 06       	cpc	r10, r26
     7d0:	00 00       	nop
     7d2:	01 00       	.word	0x0001	; ????
     7d4:	61 00       	.word	0x0061	; ????
     7d6:	00 00       	nop
     7d8:	00 00       	nop
     7da:	00 00       	nop
     7dc:	00 3c       	cpi	r16, 0xC0	; 192
     7de:	04 00       	.word	0x0004	; ????
     7e0:	00 78       	andi	r16, 0x80	; 128
     7e2:	04 00       	.word	0x0004	; ????
     7e4:	00 02       	muls	r16, r16
     7e6:	00 30       	cpi	r16, 0x00	; 0
     7e8:	9f 78       	andi	r25, 0x8F	; 143
     7ea:	04 00       	.word	0x0004	; ????
     7ec:	00 aa       	std	Z+48, r0	; 0x30
     7ee:	06 00       	.word	0x0006	; ????
     7f0:	00 01       	movw	r0, r0
     7f2:	00 66       	ori	r16, 0x60	; 96
	...
     7fc:	54 04       	cpc	r5, r4
     7fe:	00 00       	nop
     800:	aa 06       	cpc	r10, r26
     802:	00 00       	nop
     804:	06 00       	.word	0x0006	; ????
     806:	6a 93       	st	-Y, r22
     808:	01 6b       	ori	r16, 0xB1	; 177
     80a:	93 01       	movw	r18, r6
	...
     814:	56 04       	cpc	r5, r6
     816:	00 00       	nop
     818:	aa 06       	cpc	r10, r26
     81a:	00 00       	nop
     81c:	01 00       	.word	0x0001	; ????
     81e:	67 00       	.word	0x0067	; ????
     820:	00 00       	nop
     822:	00 00       	nop
     824:	00 00       	nop
     826:	00 58       	subi	r16, 0x80	; 128
     828:	04 00       	.word	0x0004	; ????
     82a:	00 aa       	std	Z+48, r0	; 0x30
     82c:	06 00       	.word	0x0006	; ????
     82e:	00 01       	movw	r0, r0
     830:	00 5f       	subi	r16, 0xF0	; 240
	...
     83a:	5a 04       	cpc	r5, r10
     83c:	00 00       	nop
     83e:	aa 06       	cpc	r10, r26
     840:	00 00       	nop
     842:	01 00       	.word	0x0001	; ????
     844:	5e 00       	.word	0x005e	; ????
     846:	00 00       	nop
     848:	00 00       	nop
     84a:	00 00       	nop
     84c:	00 60       	ori	r16, 0x00	; 0
     84e:	04 00       	.word	0x0004	; ????
     850:	00 72       	andi	r16, 0x20	; 32
     852:	04 00       	.word	0x0004	; ????
     854:	00 01       	movw	r0, r0
     856:	00 62       	ori	r16, 0x20	; 32
     858:	72 04       	cpc	r7, r2
     85a:	00 00       	nop
     85c:	aa 06       	cpc	r10, r26
     85e:	00 00       	nop
     860:	01 00       	.word	0x0001	; ????
     862:	68 00       	.word	0x0068	; ????
     864:	00 00       	nop
     866:	00 00       	nop
     868:	00 00       	nop
     86a:	00 62       	ori	r16, 0x20	; 32
     86c:	04 00       	.word	0x0004	; ????
     86e:	00 aa       	std	Z+48, r0	; 0x30
     870:	06 00       	.word	0x0006	; ????
     872:	00 01       	movw	r0, r0
     874:	00 69       	ori	r16, 0x90	; 144
	...
     87e:	64 04       	cpc	r6, r4
     880:	00 00       	nop
     882:	aa 06       	cpc	r10, r26
     884:	00 00       	nop
     886:	01 00       	.word	0x0001	; ????
     888:	59 00       	.word	0x0059	; ????
     88a:	00 00       	nop
     88c:	00 00       	nop
     88e:	00 00       	nop
     890:	00 64       	ori	r16, 0x40	; 64
     892:	04 00       	.word	0x0004	; ????
     894:	00 aa       	std	Z+48, r0	; 0x30
     896:	06 00       	.word	0x0006	; ????
     898:	00 01       	movw	r0, r0
     89a:	00 5d       	subi	r16, 0xD0	; 208
	...
     8a4:	66 04       	cpc	r6, r6
     8a6:	00 00       	nop
     8a8:	aa 06       	cpc	r10, r26
     8aa:	00 00       	nop
     8ac:	01 00       	.word	0x0001	; ????
     8ae:	5b 00       	.word	0x005b	; ????
     8b0:	00 00       	nop
     8b2:	00 00       	nop
     8b4:	00 00       	nop
     8b6:	00 68       	ori	r16, 0x80	; 128
     8b8:	04 00       	.word	0x0004	; ????
     8ba:	00 aa       	std	Z+48, r0	; 0x30
     8bc:	06 00       	.word	0x0006	; ????
     8be:	00 01       	movw	r0, r0
     8c0:	00 5a       	subi	r16, 0xA0	; 160
	...
     8ca:	68 04       	cpc	r6, r8
     8cc:	00 00       	nop
     8ce:	78 04       	cpc	r7, r8
     8d0:	00 00       	nop
     8d2:	02 00       	.word	0x0002	; ????
     8d4:	30 9f       	mul	r19, r16
     8d6:	78 04       	cpc	r7, r8
     8d8:	00 00       	nop
     8da:	aa 06       	cpc	r10, r26
     8dc:	00 00       	nop
     8de:	01 00       	.word	0x0001	; ????
     8e0:	60 00       	.word	0x0060	; ????
     8e2:	00 00       	nop
     8e4:	00 00       	nop
     8e6:	00 00       	nop
     8e8:	00 3c       	cpi	r16, 0xC0	; 192
     8ea:	04 00       	.word	0x0004	; ????
     8ec:	00 48       	sbci	r16, 0x80	; 128
     8ee:	04 00       	.word	0x0004	; ????
     8f0:	00 06       	cpc	r0, r16
     8f2:	00 6c       	ori	r16, 0xC0	; 192
     8f4:	93 01       	movw	r18, r6
     8f6:	6d 93       	st	X+, r22
     8f8:	01 00       	.word	0x0001	; ????
     8fa:	00 00       	nop
     8fc:	00 00       	nop
     8fe:	00 00       	nop
     900:	00 48       	sbci	r16, 0x80	; 128
     902:	04 00       	.word	0x0004	; ????
     904:	00 50       	subi	r16, 0x00	; 0
     906:	04 00       	.word	0x0004	; ????
     908:	00 06       	cpc	r0, r16
     90a:	00 6c       	ori	r16, 0xC0	; 192
     90c:	93 01       	movw	r18, r6
     90e:	6d 93       	st	X+, r22
     910:	01 00       	.word	0x0001	; ????
     912:	00 00       	nop
     914:	00 00       	nop
     916:	00 00       	nop
     918:	00 6a       	ori	r16, 0xA0	; 160
     91a:	05 00       	.word	0x0005	; ????
     91c:	00 aa       	std	Z+48, r0	; 0x30
     91e:	06 00       	.word	0x0006	; ????
     920:	00 06       	cpc	r0, r16
     922:	00 f2       	brcs	.-128    	; 0x8a4 <CPixelLEDController<(EOrder)10, 1, 4294967295ul>::showColor(CRGB const&, int, CRGB)+0x52>
     924:	c6 21       	and	r28, r6
	...
     92e:	00 00       	nop
     930:	00 08       	sbc	r0, r0
     932:	06 00       	.word	0x0006	; ????
     934:	00 aa       	std	Z+48, r0	; 0x30
     936:	06 00       	.word	0x0006	; ????
     938:	00 06       	cpc	r0, r16
     93a:	00 f2       	brcs	.-128    	; 0x8bc <CPixelLEDController<(EOrder)10, 1, 4294967295ul>::showColor(CRGB const&, int, CRGB)+0x6a>
     93c:	c6 21       	and	r28, r6
	...
     946:	00 00       	nop
     948:	00 aa       	std	Z+48, r0	; 0x30
     94a:	06 00       	.word	0x0006	; ????
     94c:	00 b0       	in	r0, 0x00	; 0
     94e:	06 00       	.word	0x0006	; ????
     950:	00 06       	cpc	r0, r16
     952:	00 6c       	ori	r16, 0xC0	; 192
     954:	93 01       	movw	r18, r6
     956:	6d 93       	st	X+, r22
     958:	01 00       	.word	0x0001	; ????
     95a:	00 00       	nop
     95c:	00 00       	nop
     95e:	00 00       	nop
     960:	00 1a       	sub	r0, r16
     962:	07 00       	.word	0x0007	; ????
     964:	00 2a       	or	r0, r16
     966:	07 00       	.word	0x0007	; ????
     968:	00 06       	cpc	r0, r16
     96a:	00 68       	ori	r16, 0x80	; 128
     96c:	93 01       	movw	r18, r6
     96e:	69 93       	st	Y+, r22
     970:	01 2a       	or	r0, r17
     972:	07 00       	.word	0x0007	; ????
     974:	00 34       	cpi	r16, 0x40	; 64
     976:	07 00       	.word	0x0007	; ????
     978:	00 06       	cpc	r0, r16
     97a:	00 82       	st	Z, r0
     97c:	00 88       	ldd	r0, Z+16	; 0x10
     97e:	00 22       	and	r0, r16
     980:	9f 38       	cpi	r25, 0x8F	; 143
     982:	07 00       	.word	0x0007	; ????
     984:	00 68       	ori	r16, 0x80	; 128
     986:	07 00       	.word	0x0007	; ????
     988:	00 06       	cpc	r0, r16
     98a:	00 68       	ori	r16, 0x80	; 128
     98c:	93 01       	movw	r18, r6
     98e:	69 93       	st	Y+, r22
     990:	01 00       	.word	0x0001	; ????
     992:	00 00       	nop
     994:	00 00       	nop
     996:	00 00       	nop
     998:	00 1a       	sub	r0, r16
     99a:	07 00       	.word	0x0007	; ????
     99c:	00 2a       	or	r0, r16
     99e:	07 00       	.word	0x0007	; ????
     9a0:	00 02       	muls	r16, r16
     9a2:	00 37       	cpi	r16, 0x70	; 112
     9a4:	9f 00       	.word	0x009f	; ????
     9a6:	00 00       	nop
     9a8:	00 00       	nop
     9aa:	00 00       	nop
     9ac:	00 1a       	sub	r0, r16
     9ae:	07 00       	.word	0x0007	; ????
     9b0:	00 2a       	or	r0, r16
     9b2:	07 00       	.word	0x0007	; ????
     9b4:	00 06       	cpc	r0, r16
     9b6:	00 68       	ori	r16, 0x80	; 128
     9b8:	93 01       	movw	r18, r6
     9ba:	69 93       	st	Y+, r22
     9bc:	01 00       	.word	0x0001	; ????
     9be:	00 00       	nop
     9c0:	00 00       	nop
     9c2:	00 00       	nop
     9c4:	00 6a       	ori	r16, 0xA0	; 160
     9c6:	07 00       	.word	0x0007	; ????
     9c8:	00 72       	andi	r16, 0x20	; 32
     9ca:	07 00       	.word	0x0007	; ????
     9cc:	00 03       	mulsu	r16, r16
     9ce:	00 74       	andi	r16, 0x40	; 64
     9d0:	0f 9f       	mul	r16, r31
	...
     9da:	92 07       	cpc	r25, r18
     9dc:	00 00       	nop
     9de:	96 07       	cpc	r25, r22
     9e0:	00 00       	nop
     9e2:	06 00       	.word	0x0006	; ????
     9e4:	68 93       	.word	0x9368	; ????
     9e6:	01 69       	ori	r16, 0x91	; 145
     9e8:	93 01       	movw	r18, r6
     9ea:	96 07       	cpc	r25, r22
     9ec:	00 00       	nop
     9ee:	98 07       	cpc	r25, r24
     9f0:	00 00       	nop
     9f2:	04 00       	.word	0x0004	; ????
     9f4:	f3 01       	movw	r30, r6
     9f6:	68 9f       	mul	r22, r24
	...
     a00:	9c 07       	cpc	r25, r28
     a02:	00 00       	nop
     a04:	9e 07       	cpc	r25, r30
     a06:	00 00       	nop
     a08:	03 00       	.word	0x0003	; ????
     a0a:	92 20       	and	r9, r2
     a0c:	02 9e       	mul	r0, r18
     a0e:	07 00       	.word	0x0007	; ????
     a10:	00 a0       	ldd	r0, Z+32	; 0x20
     a12:	07 00       	.word	0x0007	; ????
     a14:	00 03       	mulsu	r16, r16
     a16:	00 92 20 03 	sts	0x0320, r0	; 0x800320 <__bss_end+0x101>
     a1a:	a0 07       	cpc	r26, r16
     a1c:	00 00       	nop
     a1e:	a2 07       	cpc	r26, r18
     a20:	00 00       	nop
     a22:	03 00       	.word	0x0003	; ????
     a24:	92 20       	and	r9, r2
     a26:	04 a2       	std	Z+36, r0	; 0x24
     a28:	07 00       	.word	0x0007	; ????
     a2a:	00 a4       	ldd	r0, Z+40	; 0x28
     a2c:	07 00       	.word	0x0007	; ????
     a2e:	00 03       	mulsu	r16, r16
     a30:	00 92 20 05 	sts	0x0520, r0	; 0x800520 <__bss_end+0x301>
     a34:	a4 07       	cpc	r26, r20
     a36:	00 00       	nop
     a38:	a6 07       	cpc	r26, r22
     a3a:	00 00       	nop
     a3c:	03 00       	.word	0x0003	; ????
     a3e:	92 20       	and	r9, r2
     a40:	06 a6       	std	Z+46, r0	; 0x2e
     a42:	07 00       	.word	0x0007	; ????
     a44:	00 a8       	ldd	r0, Z+48	; 0x30
     a46:	07 00       	.word	0x0007	; ????
     a48:	00 03       	mulsu	r16, r16
     a4a:	00 92 20 07 	sts	0x0720, r0	; 0x800720 <__bss_end+0x501>
     a4e:	a8 07       	cpc	r26, r24
     a50:	00 00       	nop
     a52:	aa 07       	cpc	r26, r26
     a54:	00 00       	nop
     a56:	03 00       	.word	0x0003	; ????
     a58:	92 20       	and	r9, r2
     a5a:	08 aa       	std	Y+48, r0	; 0x30
     a5c:	07 00       	.word	0x0007	; ????
     a5e:	00 ac       	ldd	r0, Z+56	; 0x38
     a60:	07 00       	.word	0x0007	; ????
     a62:	00 03       	mulsu	r16, r16
     a64:	00 92 20 09 	sts	0x0920, r0	; 0x800920 <__bss_end+0x701>
     a68:	ac 07       	cpc	r26, r28
     a6a:	00 00       	nop
     a6c:	ae 07       	cpc	r26, r30
     a6e:	00 00       	nop
     a70:	03 00       	.word	0x0003	; ????
     a72:	92 20       	and	r9, r2
     a74:	0a ae       	std	Y+58, r0	; 0x3a
     a76:	07 00       	.word	0x0007	; ????
     a78:	00 b0       	in	r0, 0x00	; 0
     a7a:	07 00       	.word	0x0007	; ????
     a7c:	00 03       	mulsu	r16, r16
     a7e:	00 92 20 0b 	sts	0x0B20, r0	; 0x800b20 <__bss_end+0x901>
     a82:	b0 07       	cpc	r27, r16
     a84:	00 00       	nop
     a86:	b2 07       	cpc	r27, r18
     a88:	00 00       	nop
     a8a:	03 00       	.word	0x0003	; ????
     a8c:	92 20       	and	r9, r2
     a8e:	0c b2       	in	r0, 0x1c	; 28
     a90:	07 00       	.word	0x0007	; ????
     a92:	00 b6       	in	r0, 0x30	; 48
     a94:	07 00       	.word	0x0007	; ????
     a96:	00 03       	mulsu	r16, r16
     a98:	00 92 20 0d 	sts	0x0D20, r0	; 0x800d20 <__bss_end+0xb01>
     a9c:	b6 07       	cpc	r27, r22
     a9e:	00 00       	nop
     aa0:	b8 07       	cpc	r27, r24
     aa2:	00 00       	nop
     aa4:	02 00       	.word	0x0002	; ????
     aa6:	8c 0d       	add	r24, r12
     aa8:	b8 07       	cpc	r27, r24
     aaa:	00 00       	nop
     aac:	52 08       	sbc	r5, r2
     aae:	00 00       	nop
     ab0:	02 00       	.word	0x0002	; ????
     ab2:	8c 1f       	adc	r24, r28
	...
     abc:	9c 07       	cpc	r25, r28
     abe:	00 00       	nop
     ac0:	d2 07       	cpc	r29, r18
     ac2:	00 00       	nop
     ac4:	06 00       	.word	0x0006	; ????
     ac6:	68 93       	.word	0x9368	; ????
     ac8:	01 69       	ori	r16, 0x91	; 145
     aca:	93 01       	movw	r18, r6
     acc:	d2 07       	cpc	r29, r18
     ace:	00 00       	nop
     ad0:	3c 08       	sbc	r3, r12
     ad2:	00 00       	nop
     ad4:	06 00       	.word	0x0006	; ????
     ad6:	5c 93       	st	X, r21
     ad8:	01 5d       	subi	r16, 0xD1	; 209
     ada:	93 01       	movw	r18, r6
     adc:	3c 08       	sbc	r3, r12
     ade:	00 00       	nop
     ae0:	44 08       	sbc	r4, r4
     ae2:	00 00       	nop
     ae4:	04 00       	.word	0x0004	; ????
     ae6:	f3 01       	movw	r30, r6
     ae8:	68 9f       	mul	r22, r24
     aea:	44 08       	sbc	r4, r4
     aec:	00 00       	nop
     aee:	52 08       	sbc	r5, r2
     af0:	00 00       	nop
     af2:	06 00       	.word	0x0006	; ????
     af4:	5c 93       	st	X, r21
     af6:	01 5d       	subi	r16, 0xD1	; 209
     af8:	93 01       	movw	r18, r6
	...
     b02:	9c 07       	cpc	r25, r28
     b04:	00 00       	nop
     b06:	f9 07       	cpc	r31, r25
     b08:	00 00       	nop
     b0a:	06 00       	.word	0x0006	; ????
     b0c:	66 93       	lac	Z, r22
     b0e:	01 67       	ori	r16, 0x71	; 113
     b10:	93 01       	movw	r18, r6
     b12:	f9 07       	cpc	r31, r25
     b14:	00 00       	nop
     b16:	44 08       	sbc	r4, r4
     b18:	00 00       	nop
     b1a:	04 00       	.word	0x0004	; ????
     b1c:	f3 01       	movw	r30, r6
     b1e:	66 9f       	mul	r22, r22
     b20:	44 08       	sbc	r4, r4
     b22:	00 00       	nop
     b24:	52 08       	sbc	r5, r2
     b26:	00 00       	nop
     b28:	06 00       	.word	0x0006	; ????
     b2a:	66 93       	lac	Z, r22
     b2c:	01 67       	ori	r16, 0x71	; 113
     b2e:	93 01       	movw	r18, r6
	...
     b38:	9c 07       	cpc	r25, r28
     b3a:	00 00       	nop
     b3c:	f9 07       	cpc	r31, r25
     b3e:	00 00       	nop
     b40:	06 00       	.word	0x0006	; ????
     b42:	64 93       	xch	Z, r22
     b44:	01 65       	ori	r16, 0x51	; 81
     b46:	93 01       	movw	r18, r6
     b48:	f9 07       	cpc	r31, r25
     b4a:	00 00       	nop
     b4c:	38 08       	sbc	r3, r8
     b4e:	00 00       	nop
     b50:	06 00       	.word	0x0006	; ????
     b52:	5e 93       	st	-X, r21
     b54:	01 5f       	subi	r16, 0xF1	; 241
     b56:	93 01       	movw	r18, r6
     b58:	38 08       	sbc	r3, r8
     b5a:	00 00       	nop
     b5c:	44 08       	sbc	r4, r4
     b5e:	00 00       	nop
     b60:	04 00       	.word	0x0004	; ????
     b62:	f3 01       	movw	r30, r6
     b64:	64 9f       	mul	r22, r20
     b66:	44 08       	sbc	r4, r4
     b68:	00 00       	nop
     b6a:	52 08       	sbc	r5, r2
     b6c:	00 00       	nop
     b6e:	06 00       	.word	0x0006	; ????
     b70:	5e 93       	st	-X, r21
     b72:	01 5f       	subi	r16, 0xF1	; 241
     b74:	93 01       	movw	r18, r6
	...
     b7e:	9c 07       	cpc	r25, r28
     b80:	00 00       	nop
     b82:	3e 08       	sbc	r3, r14
     b84:	00 00       	nop
     b86:	09 00       	.word	0x0009	; ????
     b88:	60 93 01 61 	sts	0x6101, r22	; 0x806101 <__bss_end+0x5ee2>
     b8c:	93 01       	movw	r18, r6
     b8e:	62 93       	st	-Z, r22
     b90:	01 44       	sbci	r16, 0x41	; 65
     b92:	08 00       	.word	0x0008	; ????
     b94:	00 52       	subi	r16, 0x20	; 32
     b96:	08 00       	.word	0x0008	; ????
     b98:	00 09       	sbc	r16, r0
     b9a:	00 56       	subi	r16, 0x60	; 96
     b9c:	93 01       	movw	r18, r6
     b9e:	57 93       	lat	Z, r21
     ba0:	01 58       	subi	r16, 0x81	; 129
     ba2:	93 01       	movw	r18, r6
	...
     bac:	de 07       	cpc	r29, r30
     bae:	00 00       	nop
     bb0:	f9 07       	cpc	r31, r25
     bb2:	00 00       	nop
     bb4:	01 00       	.word	0x0001	; ????
     bb6:	62 44       	sbci	r22, 0x42	; 66
     bb8:	08 00       	.word	0x0008	; ????
     bba:	00 52       	subi	r16, 0x20	; 32
     bbc:	08 00       	.word	0x0008	; ????
     bbe:	00 01       	movw	r0, r0
     bc0:	00 62       	ori	r16, 0x20	; 32
	...
     bca:	de 07       	cpc	r29, r30
     bcc:	00 00       	nop
     bce:	02 08       	sbc	r0, r2
     bd0:	00 00       	nop
     bd2:	06 00       	.word	0x0006	; ????
     bd4:	f2 d3       	rcall	.+2020   	; 0x13ba <__data_load_end+0x450>
     bd6:	24 00       	.word	0x0024	; ????
     bd8:	00 00       	nop
     bda:	44 08       	sbc	r4, r4
     bdc:	00 00       	nop
     bde:	52 08       	sbc	r5, r2
     be0:	00 00       	nop
     be2:	06 00       	.word	0x0006	; ????
     be4:	f2 d3       	rcall	.+2020   	; 0x13ca <__data_load_end+0x460>
     be6:	24 00       	.word	0x0024	; ????
	...
     bf0:	00 00       	nop
     bf2:	de 07       	cpc	r29, r30
     bf4:	00 00       	nop
     bf6:	f6 07       	cpc	r31, r22
     bf8:	00 00       	nop
     bfa:	06 00       	.word	0x0006	; ????
     bfc:	68 93       	.word	0x9368	; ????
     bfe:	01 69       	ori	r16, 0x91	; 145
     c00:	93 01       	movw	r18, r6
     c02:	f6 07       	cpc	r31, r22
     c04:	00 00       	nop
     c06:	f9 07       	cpc	r31, r25
     c08:	00 00       	nop
     c0a:	02 00       	.word	0x0002	; ????
     c0c:	91 64       	ori	r25, 0x41	; 65
     c0e:	44 08       	sbc	r4, r4
     c10:	00 00       	nop
     c12:	52 08       	sbc	r5, r2
     c14:	00 00       	nop
     c16:	06 00       	.word	0x0006	; ????
     c18:	68 93       	.word	0x9368	; ????
     c1a:	01 69       	ori	r16, 0x91	; 145
     c1c:	93 01       	movw	r18, r6
	...
     c26:	de 07       	cpc	r29, r30
     c28:	00 00       	nop
     c2a:	f9 07       	cpc	r31, r25
     c2c:	00 00       	nop
     c2e:	06 00       	.word	0x0006	; ????
     c30:	66 93       	lac	Z, r22
     c32:	01 67       	ori	r16, 0x71	; 113
     c34:	93 01       	movw	r18, r6
     c36:	f9 07       	cpc	r31, r25
     c38:	00 00       	nop
     c3a:	02 08       	sbc	r0, r2
     c3c:	00 00       	nop
     c3e:	04 00       	.word	0x0004	; ????
     c40:	f3 01       	movw	r30, r6
     c42:	66 9f       	mul	r22, r22
     c44:	44 08       	sbc	r4, r4
     c46:	00 00       	nop
     c48:	52 08       	sbc	r5, r2
     c4a:	00 00       	nop
     c4c:	06 00       	.word	0x0006	; ????
     c4e:	66 93       	lac	Z, r22
     c50:	01 67       	ori	r16, 0x71	; 113
     c52:	93 01       	movw	r18, r6
	...
     c5c:	de 07       	cpc	r29, r30
     c5e:	00 00       	nop
     c60:	02 08       	sbc	r0, r2
     c62:	00 00       	nop
     c64:	03 00       	.word	0x0003	; ????
     c66:	91 62       	ori	r25, 0x21	; 33
     c68:	9f 44       	sbci	r25, 0x4F	; 79
     c6a:	08 00       	.word	0x0008	; ????
     c6c:	00 52       	subi	r16, 0x20	; 32
     c6e:	08 00       	.word	0x0008	; ????
     c70:	00 03       	mulsu	r16, r16
     c72:	00 91 62 9f 	lds	r16, 0x9F62	; 0x809f62 <__bss_end+0x9d43>
	...
     c7e:	f0 07       	cpc	r31, r16
     c80:	00 00       	nop
     c82:	f9 07       	cpc	r31, r25
     c84:	00 00       	nop
     c86:	01 00       	.word	0x0001	; ????
     c88:	62 44       	sbci	r22, 0x42	; 66
     c8a:	08 00       	.word	0x0008	; ????
     c8c:	00 52       	subi	r16, 0x20	; 32
     c8e:	08 00       	.word	0x0008	; ????
     c90:	00 01       	movw	r0, r0
     c92:	00 62       	ori	r16, 0x20	; 32
	...
     c9c:	fe 07       	cpc	r31, r30
     c9e:	00 00       	nop
     ca0:	02 08       	sbc	r0, r2
     ca2:	00 00       	nop
     ca4:	03 00       	.word	0x0003	; ????
     ca6:	91 62       	ori	r25, 0x21	; 33
     ca8:	9f 00       	.word	0x009f	; ????
     caa:	00 00       	nop
     cac:	00 00       	nop
     cae:	00 00       	nop
     cb0:	00 fe       	sbrs	r0, 0
     cb2:	07 00       	.word	0x0007	; ????
     cb4:	00 02       	muls	r16, r16
     cb6:	08 00       	.word	0x0008	; ????
     cb8:	00 02       	muls	r16, r16
     cba:	00 30       	cpi	r16, 0x00	; 0
     cbc:	9f 00       	.word	0x009f	; ????
     cbe:	00 00       	nop
     cc0:	00 00       	nop
     cc2:	00 00       	nop
     cc4:	00 52       	subi	r16, 0x20	; 32
     cc6:	08 00       	.word	0x0008	; ????
     cc8:	00 54       	subi	r16, 0x40	; 64
     cca:	08 00       	.word	0x0008	; ????
     ccc:	00 03       	mulsu	r16, r16
     cce:	00 92 20 02 	sts	0x0220, r0	; 0x800220 <__bss_end+0x1>
     cd2:	54 08       	sbc	r5, r4
     cd4:	00 00       	nop
     cd6:	56 08       	sbc	r5, r6
     cd8:	00 00       	nop
     cda:	03 00       	.word	0x0003	; ????
     cdc:	92 20       	and	r9, r2
     cde:	03 56       	subi	r16, 0x63	; 99
     ce0:	08 00       	.word	0x0008	; ????
     ce2:	00 58       	subi	r16, 0x80	; 128
     ce4:	08 00       	.word	0x0008	; ????
     ce6:	00 03       	mulsu	r16, r16
     ce8:	00 92 20 04 	sts	0x0420, r0	; 0x800420 <__bss_end+0x201>
     cec:	58 08       	sbc	r5, r8
     cee:	00 00       	nop
     cf0:	5a 08       	sbc	r5, r10
     cf2:	00 00       	nop
     cf4:	03 00       	.word	0x0003	; ????
     cf6:	92 20       	and	r9, r2
     cf8:	05 5a       	subi	r16, 0xA5	; 165
     cfa:	08 00       	.word	0x0008	; ????
     cfc:	00 5c       	subi	r16, 0xC0	; 192
     cfe:	08 00       	.word	0x0008	; ????
     d00:	00 03       	mulsu	r16, r16
     d02:	00 92 20 06 	sts	0x0620, r0	; 0x800620 <__bss_end+0x401>
     d06:	5c 08       	sbc	r5, r12
     d08:	00 00       	nop
     d0a:	5e 08       	sbc	r5, r14
     d0c:	00 00       	nop
     d0e:	03 00       	.word	0x0003	; ????
     d10:	92 20       	and	r9, r2
     d12:	07 5e       	subi	r16, 0xE7	; 231
     d14:	08 00       	.word	0x0008	; ????
     d16:	00 62       	ori	r16, 0x20	; 32
     d18:	08 00       	.word	0x0008	; ????
     d1a:	00 03       	mulsu	r16, r16
     d1c:	00 92 20 08 	sts	0x0820, r0	; 0x800820 <__bss_end+0x601>
     d20:	62 08       	sbc	r6, r2
     d22:	00 00       	nop
     d24:	64 08       	sbc	r6, r4
     d26:	00 00       	nop
     d28:	02 00       	.word	0x0002	; ????
     d2a:	8c 08       	sbc	r8, r12
     d2c:	64 08       	sbc	r6, r4
     d2e:	00 00       	nop
     d30:	d6 08       	sbc	r13, r6
     d32:	00 00       	nop
     d34:	02 00       	.word	0x0002	; ????
     d36:	8c 1a       	sub	r8, r28
	...
     d40:	52 08       	sbc	r5, r2
     d42:	00 00       	nop
     d44:	76 08       	sbc	r7, r6
     d46:	00 00       	nop
     d48:	06 00       	.word	0x0006	; ????
     d4a:	68 93       	.word	0x9368	; ????
     d4c:	01 69       	ori	r16, 0x91	; 145
     d4e:	93 01       	movw	r18, r6
     d50:	76 08       	sbc	r7, r6
     d52:	00 00       	nop
     d54:	c6 08       	sbc	r12, r6
     d56:	00 00       	nop
     d58:	06 00       	.word	0x0006	; ????
     d5a:	5e 93       	st	-X, r21
     d5c:	01 5f       	subi	r16, 0xF1	; 241
     d5e:	93 01       	movw	r18, r6
     d60:	c6 08       	sbc	r12, r6
     d62:	00 00       	nop
     d64:	c8 08       	sbc	r12, r8
     d66:	00 00       	nop
     d68:	04 00       	.word	0x0004	; ????
     d6a:	f3 01       	movw	r30, r6
     d6c:	68 9f       	mul	r22, r24
     d6e:	c8 08       	sbc	r12, r8
     d70:	00 00       	nop
     d72:	d6 08       	sbc	r13, r6
     d74:	00 00       	nop
     d76:	06 00       	.word	0x0006	; ????
     d78:	5e 93       	st	-X, r21
     d7a:	01 5f       	subi	r16, 0xF1	; 241
     d7c:	93 01       	movw	r18, r6
	...
     d86:	52 08       	sbc	r5, r2
     d88:	00 00       	nop
     d8a:	91 08       	sbc	r9, r1
     d8c:	00 00       	nop
     d8e:	06 00       	.word	0x0006	; ????
     d90:	66 93       	lac	Z, r22
     d92:	01 67       	ori	r16, 0x71	; 113
     d94:	93 01       	movw	r18, r6
     d96:	91 08       	sbc	r9, r1
     d98:	00 00       	nop
     d9a:	c8 08       	sbc	r12, r8
     d9c:	00 00       	nop
     d9e:	04 00       	.word	0x0004	; ????
     da0:	f3 01       	movw	r30, r6
     da2:	66 9f       	mul	r22, r22
     da4:	c8 08       	sbc	r12, r8
     da6:	00 00       	nop
     da8:	d6 08       	sbc	r13, r6
     daa:	00 00       	nop
     dac:	06 00       	.word	0x0006	; ????
     dae:	66 93       	lac	Z, r22
     db0:	01 67       	ori	r16, 0x71	; 113
     db2:	93 01       	movw	r18, r6
	...
     dbc:	52 08       	sbc	r5, r2
     dbe:	00 00       	nop
     dc0:	91 08       	sbc	r9, r1
     dc2:	00 00       	nop
     dc4:	06 00       	.word	0x0006	; ????
     dc6:	64 93       	xch	Z, r22
     dc8:	01 65       	ori	r16, 0x51	; 81
     dca:	93 01       	movw	r18, r6
     dcc:	91 08       	sbc	r9, r1
     dce:	00 00       	nop
     dd0:	c8 08       	sbc	r12, r8
     dd2:	00 00       	nop
     dd4:	04 00       	.word	0x0004	; ????
     dd6:	f3 01       	movw	r30, r6
     dd8:	64 9f       	mul	r22, r20
     dda:	c8 08       	sbc	r12, r8
     ddc:	00 00       	nop
     dde:	d6 08       	sbc	r13, r6
     de0:	00 00       	nop
     de2:	06 00       	.word	0x0006	; ????
     de4:	64 93       	xch	Z, r22
     de6:	01 65       	ori	r16, 0x51	; 81
     de8:	93 01       	movw	r18, r6
	...
     df2:	52 08       	sbc	r5, r2
     df4:	00 00       	nop
     df6:	c2 08       	sbc	r12, r2
     df8:	00 00       	nop
     dfa:	09 00       	.word	0x0009	; ????
     dfc:	60 93 01 61 	sts	0x6101, r22	; 0x806101 <__bss_end+0x5ee2>
     e00:	93 01       	movw	r18, r6
     e02:	62 93       	st	-Z, r22
     e04:	01 c8       	rjmp	.-4094   	; 0xfffffe08 <__eeprom_end+0xff7efe08>
     e06:	08 00       	.word	0x0008	; ????
     e08:	00 d6       	rcall	.+3072   	; 0x1a0a <__data_load_end+0xaa0>
     e0a:	08 00       	.word	0x0008	; ????
     e0c:	00 09       	sbc	r16, r0
     e0e:	00 60       	ori	r16, 0x00	; 0
     e10:	93 01       	movw	r18, r6
     e12:	61 93       	st	Z+, r22
     e14:	01 62       	ori	r16, 0x21	; 33
     e16:	93 01       	movw	r18, r6
	...
     e20:	76 08       	sbc	r7, r6
     e22:	00 00       	nop
     e24:	8e 08       	sbc	r8, r14
     e26:	00 00       	nop
     e28:	01 00       	.word	0x0001	; ????
     e2a:	68 8e       	std	Y+24, r6	; 0x18
     e2c:	08 00       	.word	0x0008	; ????
     e2e:	00 91 08 00 	lds	r16, 0x0008	; 0x800008 <__EEPROM_REGION_LENGTH__+0x7f0008>
     e32:	00 02       	muls	r16, r16
     e34:	00 7e       	andi	r16, 0xE0	; 224
     e36:	0c c8       	rjmp	.-4072   	; 0xfffffe50 <__eeprom_end+0xff7efe50>
     e38:	08 00       	.word	0x0008	; ????
     e3a:	00 d6       	rcall	.+3072   	; 0x1a3c <__data_load_end+0xad2>
     e3c:	08 00       	.word	0x0008	; ????
     e3e:	00 01       	movw	r0, r0
     e40:	00 68       	ori	r16, 0x80	; 128
	...
     e4a:	76 08       	sbc	r7, r6
     e4c:	00 00       	nop
     e4e:	98 08       	sbc	r9, r8
     e50:	00 00       	nop
     e52:	06 00       	.word	0x0006	; ????
     e54:	f2 5f       	subi	r31, 0xF2	; 242
     e56:	26 00       	.word	0x0026	; ????
     e58:	00 00       	nop
     e5a:	c8 08       	sbc	r12, r8
     e5c:	00 00       	nop
     e5e:	d6 08       	sbc	r13, r6
     e60:	00 00       	nop
     e62:	06 00       	.word	0x0006	; ????
     e64:	f2 5f       	subi	r31, 0xF2	; 242
     e66:	26 00       	.word	0x0026	; ????
	...
     e70:	00 00       	nop
     e72:	76 08       	sbc	r7, r6
     e74:	00 00       	nop
     e76:	91 08       	sbc	r9, r1
     e78:	00 00       	nop
     e7a:	06 00       	.word	0x0006	; ????
     e7c:	64 93       	xch	Z, r22
     e7e:	01 65       	ori	r16, 0x51	; 81
     e80:	93 01       	movw	r18, r6
     e82:	91 08       	sbc	r9, r1
     e84:	00 00       	nop
     e86:	98 08       	sbc	r9, r8
     e88:	00 00       	nop
     e8a:	04 00       	.word	0x0004	; ????
     e8c:	f3 01       	movw	r30, r6
     e8e:	64 9f       	mul	r22, r20
     e90:	c8 08       	sbc	r12, r8
     e92:	00 00       	nop
     e94:	d6 08       	sbc	r13, r6
     e96:	00 00       	nop
     e98:	06 00       	.word	0x0006	; ????
     e9a:	64 93       	xch	Z, r22
     e9c:	01 65       	ori	r16, 0x51	; 81
     e9e:	93 01       	movw	r18, r6
	...
     ea8:	76 08       	sbc	r7, r6
     eaa:	00 00       	nop
     eac:	91 08       	sbc	r9, r1
     eae:	00 00       	nop
     eb0:	06 00       	.word	0x0006	; ????
     eb2:	66 93       	lac	Z, r22
     eb4:	01 67       	ori	r16, 0x71	; 113
     eb6:	93 01       	movw	r18, r6
     eb8:	91 08       	sbc	r9, r1
     eba:	00 00       	nop
     ebc:	98 08       	sbc	r9, r8
     ebe:	00 00       	nop
     ec0:	04 00       	.word	0x0004	; ????
     ec2:	f3 01       	movw	r30, r6
     ec4:	66 9f       	mul	r22, r22
     ec6:	c8 08       	sbc	r12, r8
     ec8:	00 00       	nop
     eca:	d6 08       	sbc	r13, r6
     ecc:	00 00       	nop
     ece:	06 00       	.word	0x0006	; ????
     ed0:	66 93       	lac	Z, r22
     ed2:	01 67       	ori	r16, 0x71	; 113
     ed4:	93 01       	movw	r18, r6
	...
     ede:	76 08       	sbc	r7, r6
     ee0:	00 00       	nop
     ee2:	98 08       	sbc	r9, r8
     ee4:	00 00       	nop
     ee6:	03 00       	.word	0x0003	; ????
     ee8:	91 67       	ori	r25, 0x71	; 113
     eea:	9f c8       	rjmp	.-3778   	; 0x2a <__ctors_end+0x6>
     eec:	08 00       	.word	0x0008	; ????
     eee:	00 d6       	rcall	.+3072   	; 0x1af0 <__data_load_end+0xb86>
     ef0:	08 00       	.word	0x0008	; ????
     ef2:	00 03       	mulsu	r16, r16
     ef4:	00 91 67 9f 	lds	r16, 0x9F67	; 0x809f67 <__bss_end+0x9d48>
	...
     f00:	88 08       	sbc	r8, r8
     f02:	00 00       	nop
     f04:	8e 08       	sbc	r8, r14
     f06:	00 00       	nop
     f08:	01 00       	.word	0x0001	; ????
     f0a:	68 8e       	std	Y+24, r6	; 0x18
     f0c:	08 00       	.word	0x0008	; ????
     f0e:	00 91 08 00 	lds	r16, 0x0008	; 0x800008 <__EEPROM_REGION_LENGTH__+0x7f0008>
     f12:	00 02       	muls	r16, r16
     f14:	00 7e       	andi	r16, 0xE0	; 224
     f16:	0c c8       	rjmp	.-4072   	; 0xffffff30 <__eeprom_end+0xff7eff30>
     f18:	08 00       	.word	0x0008	; ????
     f1a:	00 d6       	rcall	.+3072   	; 0x1b1c <__data_load_end+0xbb2>
     f1c:	08 00       	.word	0x0008	; ????
     f1e:	00 01       	movw	r0, r0
     f20:	00 68       	ori	r16, 0x80	; 128
	...
     f2a:	94 08       	sbc	r9, r4
     f2c:	00 00       	nop
     f2e:	98 08       	sbc	r9, r8
     f30:	00 00       	nop
     f32:	04 00       	.word	0x0004	; ????
     f34:	f3 01       	movw	r30, r6
     f36:	64 9f       	mul	r22, r20
	...
     f40:	94 08       	sbc	r9, r4
     f42:	00 00       	nop
     f44:	98 08       	sbc	r9, r8
     f46:	00 00       	nop
     f48:	03 00       	.word	0x0003	; ????
     f4a:	91 67       	ori	r25, 0x71	; 113
     f4c:	9f 00       	.word	0x009f	; ????
     f4e:	00 00       	nop
     f50:	00 00       	nop
     f52:	00 00       	nop
     f54:	00 94       	com	r0
     f56:	08 00       	.word	0x0008	; ????
     f58:	00 98       	cbi	0x00, 0	; 0
     f5a:	08 00       	.word	0x0008	; ????
     f5c:	00 02       	muls	r16, r16
     f5e:	00 30       	cpi	r16, 0x00	; 0
     f60:	9f 00       	.word	0x009f	; ????
     f62:	00 00       	nop
     f64:	00 00       	nop
     f66:	00 00       	nop
     f68:	00 d6       	rcall	.+3072   	; 0x1b6a <__data_load_end+0xc00>
     f6a:	08 00       	.word	0x0008	; ????
     f6c:	00 da       	rcall	.-3072   	; 0x36e <PixelController<(EOrder)10, 1, 4294967295ul>::init_binary_dithering()+0xc>
     f6e:	08 00       	.word	0x0008	; ????
     f70:	00 06       	cpc	r0, r16
     f72:	00 68       	ori	r16, 0x80	; 128
     f74:	93 01       	movw	r18, r6
     f76:	69 93       	st	Y+, r22
     f78:	01 da       	rcall	.-3070   	; 0x37c <PixelController<(EOrder)10, 1, 4294967295ul>::init_binary_dithering()+0x1a>
     f7a:	08 00       	.word	0x0008	; ????
     f7c:	00 dc       	rcall	.-2048   	; 0x77e <L_3674+0xd4>
     f7e:	08 00       	.word	0x0008	; ????
     f80:	00 04       	cpc	r0, r0
     f82:	00 f3       	brcs	.-64     	; 0xf44 <__data_load_start>
     f84:	01 68       	ori	r16, 0x81	; 129
     f86:	9f 00       	.word	0x009f	; ????
     f88:	00 00       	nop
     f8a:	00 00       	nop
     f8c:	00 00       	nop
     f8e:	00 dc       	rcall	.-2048   	; 0x790 <L_3674+0xe6>
     f90:	08 00       	.word	0x0008	; ????
     f92:	00 e2       	ldi	r16, 0x20	; 32
     f94:	08 00       	.word	0x0008	; ????
     f96:	00 06       	cpc	r0, r16
     f98:	00 68       	ori	r16, 0x80	; 128
     f9a:	93 01       	movw	r18, r6
     f9c:	69 93       	st	Y+, r22
     f9e:	01 e2       	ldi	r16, 0x21	; 33
     fa0:	08 00       	.word	0x0008	; ????
     fa2:	00 e4       	ldi	r16, 0x40	; 64
     fa4:	08 00       	.word	0x0008	; ????
     fa6:	00 06       	cpc	r0, r16
     fa8:	00 6e       	ori	r16, 0xE0	; 224
     faa:	93 01       	movw	r18, r6
     fac:	6f 93       	push	r22
     fae:	01 00       	.word	0x0001	; ????
     fb0:	00 00       	nop
     fb2:	00 00       	nop
     fb4:	00 00       	nop
     fb6:	00 e4       	ldi	r16, 0x40	; 64
     fb8:	08 00       	.word	0x0008	; ????
     fba:	00 e6       	ldi	r16, 0x60	; 96
     fbc:	08 00       	.word	0x0008	; ????
     fbe:	00 03       	mulsu	r16, r16
     fc0:	00 92 20 02 	sts	0x0220, r0	; 0x800220 <__bss_end+0x1>
     fc4:	e6 08       	sbc	r14, r6
     fc6:	00 00       	nop
     fc8:	e8 08       	sbc	r14, r8
     fca:	00 00       	nop
     fcc:	03 00       	.word	0x0003	; ????
     fce:	92 20       	and	r9, r2
     fd0:	03 e8       	ldi	r16, 0x83	; 131
     fd2:	08 00       	.word	0x0008	; ????
     fd4:	00 ea       	ldi	r16, 0xA0	; 160
     fd6:	08 00       	.word	0x0008	; ????
     fd8:	00 03       	mulsu	r16, r16
     fda:	00 92 20 04 	sts	0x0420, r0	; 0x800420 <__bss_end+0x201>
     fde:	ea 08       	sbc	r14, r10
     fe0:	00 00       	nop
     fe2:	ec 08       	sbc	r14, r12
     fe4:	00 00       	nop
     fe6:	03 00       	.word	0x0003	; ????
     fe8:	92 20       	and	r9, r2
     fea:	05 ec       	ldi	r16, 0xC5	; 197
     fec:	08 00       	.word	0x0008	; ????
     fee:	00 f0       	brcs	.+0      	; 0xff0 <__data_load_end+0x86>
     ff0:	08 00       	.word	0x0008	; ????
     ff2:	00 03       	mulsu	r16, r16
     ff4:	00 92 20 06 	sts	0x0620, r0	; 0x800620 <__bss_end+0x401>
     ff8:	f0 08       	sbc	r15, r0
     ffa:	00 00       	nop
     ffc:	f4 08       	sbc	r15, r4
     ffe:	00 00       	nop
    1000:	03 00       	.word	0x0003	; ????
    1002:	92 20       	and	r9, r2
    1004:	09 f4       	brne	.+2      	; 0x1008 <__data_load_end+0x9e>
    1006:	08 00       	.word	0x0008	; ????
    1008:	00 26       	eor	r0, r16
    100a:	09 00       	.word	0x0009	; ????
    100c:	00 02       	muls	r16, r16
    100e:	00 8c       	ldd	r0, Z+24	; 0x18
    1010:	09 00       	.word	0x0009	; ????
    1012:	00 00       	nop
    1014:	00 00       	nop
    1016:	00 00       	nop
    1018:	00 e4       	ldi	r16, 0x40	; 64
    101a:	08 00       	.word	0x0008	; ????
    101c:	00 15       	cp	r16, r0
    101e:	09 00       	.word	0x0009	; ????
    1020:	00 06       	cpc	r0, r16
    1022:	00 68       	ori	r16, 0x80	; 128
    1024:	93 01       	movw	r18, r6
    1026:	69 93       	st	Y+, r22
    1028:	01 15       	cp	r16, r1
    102a:	09 00       	.word	0x0009	; ????
    102c:	00 26       	eor	r0, r16
    102e:	09 00       	.word	0x0009	; ????
    1030:	00 04       	cpc	r0, r0
    1032:	00 f3       	brcs	.-64     	; 0xff4 <__data_load_end+0x8a>
    1034:	01 68       	ori	r16, 0x81	; 129
    1036:	9f 00       	.word	0x009f	; ????
    1038:	00 00       	nop
    103a:	00 00       	nop
    103c:	00 00       	nop
    103e:	00 e4       	ldi	r16, 0x40	; 64
    1040:	08 00       	.word	0x0008	; ????
    1042:	00 10       	cpse	r0, r0
    1044:	09 00       	.word	0x0009	; ????
    1046:	00 06       	cpc	r0, r16
    1048:	00 66       	ori	r16, 0x60	; 96
    104a:	93 01       	movw	r18, r6
    104c:	67 93       	lat	Z, r22
    104e:	01 10       	cpse	r0, r1
    1050:	09 00       	.word	0x0009	; ????
    1052:	00 15       	cp	r16, r0
    1054:	09 00       	.word	0x0009	; ????
    1056:	00 06       	cpc	r0, r16
    1058:	00 64       	ori	r16, 0x40	; 64
    105a:	93 01       	movw	r18, r6
    105c:	65 93       	las	Z, r22
    105e:	01 15       	cp	r16, r1
    1060:	09 00       	.word	0x0009	; ????
    1062:	00 26       	eor	r0, r16
    1064:	09 00       	.word	0x0009	; ????
    1066:	00 04       	cpc	r0, r0
    1068:	00 f3       	brcs	.-64     	; 0x102a <__data_load_end+0xc0>
    106a:	01 66       	ori	r16, 0x61	; 97
    106c:	9f 00       	.word	0x009f	; ????
    106e:	00 00       	nop
    1070:	00 00       	nop
    1072:	00 00       	nop
    1074:	00 f6       	brcc	.-128    	; 0xff6 <__data_load_end+0x8c>
    1076:	08 00       	.word	0x0008	; ????
    1078:	00 fc       	sbrc	r0, 0
    107a:	08 00       	.word	0x0008	; ????
    107c:	00 02       	muls	r16, r16
    107e:	00 30       	cpi	r16, 0x00	; 0
    1080:	9f 00       	.word	0x009f	; ????
    1082:	00 00       	nop
    1084:	00 00       	nop
    1086:	00 00       	nop
    1088:	00 f6       	brcc	.-128    	; 0x100a <__data_load_end+0xa0>
    108a:	08 00       	.word	0x0008	; ????
    108c:	00 fc       	sbrc	r0, 0
    108e:	08 00       	.word	0x0008	; ????
    1090:	00 03       	mulsu	r16, r16
    1092:	00 8c       	ldd	r0, Z+24	; 0x18
    1094:	01 9f       	mul	r16, r17
	...
    109e:	fc 08       	sbc	r15, r12
    10a0:	00 00       	nop
    10a2:	16 09       	sbc	r17, r6
    10a4:	00 00       	nop
    10a6:	02 00       	.word	0x0002	; ????
    10a8:	30 9f       	mul	r19, r16
	...
    10b2:	fc 08       	sbc	r15, r12
    10b4:	00 00       	nop
    10b6:	10 09       	sbc	r17, r0
    10b8:	00 00       	nop
    10ba:	06 00       	.word	0x0006	; ????
    10bc:	66 93       	lac	Z, r22
    10be:	01 67       	ori	r16, 0x71	; 113
    10c0:	93 01       	movw	r18, r6
    10c2:	10 09       	sbc	r17, r0
    10c4:	00 00       	nop
    10c6:	15 09       	sbc	r17, r5
    10c8:	00 00       	nop
    10ca:	06 00       	.word	0x0006	; ????
    10cc:	64 93       	xch	Z, r22
    10ce:	01 65       	ori	r16, 0x51	; 81
    10d0:	93 01       	movw	r18, r6
    10d2:	15 09       	sbc	r17, r5
    10d4:	00 00       	nop
    10d6:	16 09       	sbc	r17, r6
    10d8:	00 00       	nop
    10da:	04 00       	.word	0x0004	; ????
    10dc:	f3 01       	movw	r30, r6
    10de:	66 9f       	mul	r22, r22
	...
    10e8:	fc 08       	sbc	r15, r12
    10ea:	00 00       	nop
    10ec:	16 09       	sbc	r17, r6
    10ee:	00 00       	nop
    10f0:	03 00       	.word	0x0003	; ????
    10f2:	8c 01       	movw	r16, r24
    10f4:	9f 00       	.word	0x009f	; ????
    10f6:	00 00       	nop
    10f8:	00 00       	nop
    10fa:	00 00       	nop
    10fc:	00 fc       	sbrc	r0, 0
    10fe:	08 00       	.word	0x0008	; ????
    1100:	00 15       	cp	r16, r0
    1102:	09 00       	.word	0x0009	; ????
    1104:	00 06       	cpc	r0, r16
    1106:	00 68       	ori	r16, 0x80	; 128
    1108:	93 01       	movw	r18, r6
    110a:	69 93       	st	Y+, r22
    110c:	01 15       	cp	r16, r1
    110e:	09 00       	.word	0x0009	; ????
    1110:	00 16       	cp	r0, r16
    1112:	09 00       	.word	0x0009	; ????
    1114:	00 04       	cpc	r0, r0
    1116:	00 f3       	brcs	.-64     	; 0x10d8 <__data_load_end+0x16e>
    1118:	01 68       	ori	r16, 0x81	; 129
    111a:	9f 00       	.word	0x009f	; ????
    111c:	00 00       	nop
    111e:	00 00       	nop
    1120:	00 00       	nop
    1122:	00 28       	or	r0, r0
    1124:	09 00       	.word	0x0009	; ????
    1126:	00 2a       	or	r0, r16
    1128:	09 00       	.word	0x0009	; ????
    112a:	00 03       	mulsu	r16, r16
    112c:	00 92 20 02 	sts	0x0220, r0	; 0x800220 <__bss_end+0x1>
    1130:	2a 09       	sbc	r18, r10
    1132:	00 00       	nop
    1134:	2c 09       	sbc	r18, r12
    1136:	00 00       	nop
    1138:	03 00       	.word	0x0003	; ????
    113a:	92 20       	and	r9, r2
    113c:	03 2c       	mov	r0, r3
    113e:	09 00       	.word	0x0009	; ????
    1140:	00 34       	cpi	r16, 0x40	; 64
    1142:	09 00       	.word	0x0009	; ????
    1144:	00 03       	mulsu	r16, r16
    1146:	00 92 20 04 	sts	0x0420, r0	; 0x800420 <__bss_end+0x201>
    114a:	34 09       	sbc	r19, r4
    114c:	00 00       	nop
    114e:	36 09       	sbc	r19, r6
    1150:	00 00       	nop
    1152:	03 00       	.word	0x0003	; ????
    1154:	92 20       	and	r9, r2
    1156:	05 36       	cpi	r16, 0x65	; 101
    1158:	09 00       	.word	0x0009	; ????
    115a:	00 38       	cpi	r16, 0x80	; 128
    115c:	09 00       	.word	0x0009	; ????
    115e:	00 03       	mulsu	r16, r16
    1160:	00 92 20 06 	sts	0x0620, r0	; 0x800620 <__bss_end+0x401>
    1164:	38 09       	sbc	r19, r8
    1166:	00 00       	nop
    1168:	3a 09       	sbc	r19, r10
    116a:	00 00       	nop
    116c:	03 00       	.word	0x0003	; ????
    116e:	92 20       	and	r9, r2
    1170:	07 3a       	cpi	r16, 0xA7	; 167
    1172:	09 00       	.word	0x0009	; ????
    1174:	00 3c       	cpi	r16, 0xC0	; 192
    1176:	09 00       	.word	0x0009	; ????
    1178:	00 03       	mulsu	r16, r16
    117a:	00 92 20 08 	sts	0x0820, r0	; 0x800820 <__bss_end+0x601>
    117e:	3c 09       	sbc	r19, r12
    1180:	00 00       	nop
    1182:	3e 09       	sbc	r19, r14
    1184:	00 00       	nop
    1186:	03 00       	.word	0x0003	; ????
    1188:	92 20       	and	r9, r2
    118a:	09 3e       	cpi	r16, 0xE9	; 233
    118c:	09 00       	.word	0x0009	; ????
    118e:	00 bc       	out	0x20, r0	; 32
    1190:	09 00       	.word	0x0009	; ????
    1192:	00 03       	mulsu	r16, r16
    1194:	00 92 20 0a 	sts	0x0A20, r0	; 0x800a20 <__bss_end+0x801>
	...
    11a0:	4e 09       	sbc	r20, r14
    11a2:	00 00       	nop
    11a4:	88 09       	sbc	r24, r8
    11a6:	00 00       	nop
    11a8:	0c 00       	.word	0x000c	; ????
    11aa:	68 93       	.word	0x9368	; ????
    11ac:	01 69       	ori	r16, 0x91	; 145
    11ae:	93 01       	movw	r18, r6
    11b0:	6a 93       	st	-Y, r22
    11b2:	01 6b       	ori	r16, 0xB1	; 177
    11b4:	93 01       	movw	r18, r6
    11b6:	88 09       	sbc	r24, r8
    11b8:	00 00       	nop
    11ba:	9e 09       	sbc	r25, r14
    11bc:	00 00       	nop
    11be:	05 00       	.word	0x0005	; ????
    11c0:	03 02       	muls	r16, r19
    11c2:	02 80       	ldd	r0, Z+2	; 0x02
    11c4:	00 b4       	in	r0, 0x20	; 32
    11c6:	09 00       	.word	0x0009	; ????
    11c8:	00 bc       	out	0x20, r0	; 32
    11ca:	09 00       	.word	0x0009	; ????
    11cc:	00 0c       	add	r0, r0
    11ce:	00 68       	ori	r16, 0x80	; 128
    11d0:	93 01       	movw	r18, r6
    11d2:	69 93       	st	Y+, r22
    11d4:	01 6a       	ori	r16, 0xA1	; 161
    11d6:	93 01       	movw	r18, r6
    11d8:	6b 93       	.word	0x936b	; ????
    11da:	01 00       	.word	0x0001	; ????
    11dc:	00 00       	nop
    11de:	00 00       	nop
    11e0:	00 00       	nop
    11e2:	00 52       	subi	r16, 0x20	; 32
    11e4:	09 00       	.word	0x0009	; ????
    11e6:	00 56       	subi	r16, 0x60	; 96
    11e8:	09 00       	.word	0x0009	; ????
    11ea:	00 01       	movw	r0, r0
    11ec:	00 63       	ori	r16, 0x30	; 48
    11ee:	56 09       	sbc	r21, r6
    11f0:	00 00       	nop
    11f2:	5c 09       	sbc	r21, r12
    11f4:	00 00       	nop
    11f6:	01 00       	.word	0x0001	; ????
    11f8:	62 5c       	subi	r22, 0xC2	; 194
    11fa:	09 00       	.word	0x0009	; ????
    11fc:	00 5e       	subi	r16, 0xE0	; 224
    11fe:	09 00       	.word	0x0009	; ????
    1200:	00 03       	mulsu	r16, r16
    1202:	00 83       	st	Z, r16
    1204:	06 9f       	mul	r16, r22
    1206:	5e 09       	sbc	r21, r14
    1208:	00 00       	nop
    120a:	aa 09       	sbc	r26, r10
    120c:	00 00       	nop
    120e:	01 00       	.word	0x0001	; ????
    1210:	62 b4       	in	r6, 0x22	; 34
    1212:	09 00       	.word	0x0009	; ????
    1214:	00 bc       	out	0x20, r0	; 32
    1216:	09 00       	.word	0x0009	; ????
    1218:	00 01       	movw	r0, r0
    121a:	00 62       	ori	r16, 0x20	; 32
	...
    1224:	62 0b       	sbc	r22, r18
    1226:	00 00       	nop
    1228:	64 0b       	sbc	r22, r20
    122a:	00 00       	nop
    122c:	03 00       	.word	0x0003	; ????
    122e:	92 20       	and	r9, r2
    1230:	02 64       	ori	r16, 0x42	; 66
    1232:	0b 00       	.word	0x000b	; ????
    1234:	00 66       	ori	r16, 0x60	; 96
    1236:	0b 00       	.word	0x000b	; ????
    1238:	00 03       	mulsu	r16, r16
    123a:	00 92 20 03 	sts	0x0320, r0	; 0x800320 <__bss_end+0x101>
    123e:	66 0b       	sbc	r22, r22
    1240:	00 00       	nop
    1242:	6a 0b       	sbc	r22, r26
    1244:	00 00       	nop
    1246:	03 00       	.word	0x0003	; ????
    1248:	92 20       	and	r9, r2
    124a:	04 6a       	ori	r16, 0xA4	; 164
    124c:	0b 00       	.word	0x000b	; ????
    124e:	00 6c       	ori	r16, 0xC0	; 192
    1250:	0b 00       	.word	0x000b	; ????
    1252:	00 02       	muls	r16, r16
    1254:	00 8c       	ldd	r0, Z+24	; 0x18
    1256:	04 6c       	ori	r16, 0xC4	; 196
    1258:	0b 00       	.word	0x000b	; ????
    125a:	00 14       	cp	r0, r0
    125c:	0e 00       	.word	0x000e	; ????
    125e:	00 02       	muls	r16, r16
    1260:	00 8c       	ldd	r0, Z+24	; 0x18
    1262:	1c 00       	.word	0x001c	; ????
    1264:	00 00       	nop
    1266:	00 00       	nop
    1268:	00 00       	nop
    126a:	00 90 0b 00 	lds	r0, 0x000B	; 0x80000b <__EEPROM_REGION_LENGTH__+0x7f000b>
    126e:	00 6e       	ori	r16, 0xE0	; 224
    1270:	0c 00       	.word	0x000c	; ????
    1272:	00 03       	mulsu	r16, r16
    1274:	00 08       	sbc	r0, r0
    1276:	60 9f       	mul	r22, r16
	...
    1280:	90 0b       	sbc	r25, r16
    1282:	00 00       	nop
    1284:	6e 0c       	add	r6, r14
    1286:	00 00       	nop
    1288:	02 00       	.word	0x0002	; ????
    128a:	30 9f       	mul	r19, r16
	...
    1294:	a0 0b       	sbc	r26, r16
    1296:	00 00       	nop
    1298:	ae 0b       	sbc	r26, r30
    129a:	00 00       	nop
    129c:	06 00       	.word	0x0006	; ????
    129e:	0c ff       	.word	0xff0c	; ????
    12a0:	ff ff       	.word	0xffff	; ????
    12a2:	00 9f       	mul	r16, r16
	...
    12ac:	ae 0b       	sbc	r26, r30
    12ae:	00 00       	nop
    12b0:	ba 0b       	sbc	r27, r26
    12b2:	00 00       	nop
    12b4:	06 00       	.word	0x0006	; ????
    12b6:	0c ff       	.word	0xff0c	; ????
    12b8:	ff ff       	.word	0xffff	; ????
    12ba:	00 9f       	mul	r16, r16
	...
    12c4:	20 0c       	add	r2, r0
    12c6:	00 00       	nop
    12c8:	6e 0c       	add	r6, r14
    12ca:	00 00       	nop
    12cc:	03 00       	.word	0x0003	; ????
    12ce:	08 60       	ori	r16, 0x08	; 8
    12d0:	9f 00       	.word	0x009f	; ????
    12d2:	00 00       	nop
    12d4:	00 00       	nop
    12d6:	00 00       	nop
    12d8:	00 20       	and	r0, r0
    12da:	0c 00       	.word	0x000c	; ????
    12dc:	00 6e       	ori	r16, 0xE0	; 224
    12de:	0c 00       	.word	0x000c	; ????
    12e0:	00 02       	muls	r16, r16
    12e2:	00 30       	cpi	r16, 0x00	; 0
    12e4:	9f 00       	.word	0x009f	; ????
    12e6:	00 00       	nop
    12e8:	00 00       	nop
    12ea:	00 00       	nop
    12ec:	00 22       	and	r0, r16
    12ee:	0c 00       	.word	0x000c	; ????
    12f0:	00 3a       	cpi	r16, 0xA0	; 160
    12f2:	0c 00       	.word	0x000c	; ????
    12f4:	00 03       	mulsu	r16, r16
    12f6:	00 08       	sbc	r0, r0
    12f8:	60 9f       	mul	r22, r16
	...
    1302:	3a 0c       	add	r3, r10
    1304:	00 00       	nop
    1306:	6e 0c       	add	r6, r14
    1308:	00 00       	nop
    130a:	02 00       	.word	0x0002	; ????
    130c:	31 9f       	mul	r19, r17
	...
    1316:	6e 0c       	add	r6, r14
    1318:	00 00       	nop
    131a:	a0 0c       	add	r10, r0
    131c:	00 00       	nop
    131e:	02 00       	.word	0x0002	; ????
    1320:	3c 9f       	mul	r19, r28
	...
    132a:	24 0d       	add	r18, r4
    132c:	00 00       	nop
    132e:	2a 0d       	add	r18, r10
    1330:	00 00       	nop
    1332:	08 00       	.word	0x0008	; ????
    1334:	93 01       	movw	r18, r6
    1336:	30 9f       	mul	r19, r16
    1338:	93 01       	movw	r18, r6
    133a:	93 02       	muls	r25, r19
    133c:	2a 0d       	add	r18, r10
    133e:	00 00       	nop
    1340:	38 0d       	add	r19, r8
    1342:	00 00       	nop
    1344:	07 00       	.word	0x0007	; ????
    1346:	93 01       	movw	r18, r6
    1348:	61 93       	st	Z+, r22
    134a:	01 93       	st	Z+, r16
    134c:	02 38       	cpi	r16, 0x82	; 130
    134e:	0d 00       	.word	0x000d	; ????
    1350:	00 4c       	sbci	r16, 0xC0	; 192
    1352:	0d 00       	.word	0x000d	; ????
    1354:	00 07       	cpc	r16, r16
    1356:	00 93 01 5b 	sts	0x5B01, r16	; 0x805b01 <__bss_end+0x58e2>
    135a:	93 01       	movw	r18, r6
    135c:	93 02       	muls	r25, r19
    135e:	4c 0d       	add	r20, r12
    1360:	00 00       	nop
    1362:	f4 0d       	add	r31, r4
    1364:	00 00       	nop
    1366:	07 00       	.word	0x0007	; ????
    1368:	93 01       	movw	r18, r6
    136a:	61 93       	st	Z+, r22
    136c:	01 93       	st	Z+, r16
    136e:	02 00       	.word	0x0002	; ????
    1370:	0e 00       	.word	0x000e	; ????
    1372:	00 14       	cp	r0, r0
    1374:	0e 00       	.word	0x000e	; ????
    1376:	00 07       	cpc	r16, r16
    1378:	00 93 01 61 	sts	0x6101, r16	; 0x806101 <__bss_end+0x5ee2>
    137c:	93 01       	movw	r18, r6
    137e:	93 02       	muls	r25, r19
	...
    1388:	4c 0d       	add	r20, r12
    138a:	00 00       	nop
    138c:	ea 0d       	add	r30, r10
    138e:	00 00       	nop
    1390:	06 00       	.word	0x0006	; ????
    1392:	f2 2d       	mov	r31, r2
    1394:	2e 00       	.word	0x002e	; ????
    1396:	00 00       	nop
    1398:	00 0e       	add	r0, r16
    139a:	00 00       	nop
    139c:	14 0e       	add	r1, r20
    139e:	00 00       	nop
    13a0:	06 00       	.word	0x0006	; ????
    13a2:	f2 2d       	mov	r31, r2
    13a4:	2e 00       	.word	0x002e	; ????
	...
    13ae:	00 00       	nop
    13b0:	da 0d       	add	r29, r10
    13b2:	00 00       	nop
    13b4:	ea 0d       	add	r30, r10
    13b6:	00 00       	nop
    13b8:	06 00       	.word	0x0006	; ????
    13ba:	f2 2d       	mov	r31, r2
    13bc:	2e 00       	.word	0x002e	; ????
    13be:	00 00       	nop
    13c0:	00 0e       	add	r0, r16
    13c2:	00 00       	nop
    13c4:	14 0e       	add	r1, r20
    13c6:	00 00       	nop
    13c8:	06 00       	.word	0x0006	; ????
    13ca:	f2 2d       	mov	r31, r2
    13cc:	2e 00       	.word	0x002e	; ????
	...
    13d6:	00 00       	nop
    13d8:	de 0d       	add	r29, r14
    13da:	00 00       	nop
    13dc:	ea 0d       	add	r30, r10
    13de:	00 00       	nop
    13e0:	06 00       	.word	0x0006	; ????
    13e2:	f2 2d       	mov	r31, r2
    13e4:	2e 00       	.word	0x002e	; ????
    13e6:	00 00       	nop
    13e8:	00 0e       	add	r0, r16
    13ea:	00 00       	nop
    13ec:	14 0e       	add	r1, r20
    13ee:	00 00       	nop
    13f0:	06 00       	.word	0x0006	; ????
    13f2:	f2 2d       	mov	r31, r2
    13f4:	2e 00       	.word	0x002e	; ????
	...
    13fe:	00 00       	nop
    1400:	de 0d       	add	r29, r14
    1402:	00 00       	nop
    1404:	ea 0d       	add	r30, r10
    1406:	00 00       	nop
    1408:	02 00       	.word	0x0002	; ????
    140a:	91 65       	ori	r25, 0x51	; 81
    140c:	00 0e       	add	r0, r16
    140e:	00 00       	nop
    1410:	14 0e       	add	r1, r20
    1412:	00 00       	nop
    1414:	01 00       	.word	0x0001	; ????
    1416:	68 00       	.word	0x0068	; ????
    1418:	00 00       	nop
    141a:	00 00       	nop
    141c:	00 00       	nop
    141e:	00 9a       	sbi	0x00, 0	; 0
    1420:	0d 00       	.word	0x000d	; ????
    1422:	00 a2       	std	Z+32, r0	; 0x20
    1424:	0d 00       	.word	0x000d	; ????
    1426:	00 02       	muls	r16, r16
    1428:	00 31       	cpi	r16, 0x10	; 16
    142a:	9f 00       	.word	0x009f	; ????
    142c:	00 00       	nop
    142e:	00 00       	nop
    1430:	00 00       	nop
    1432:	00 5c       	subi	r16, 0xC0	; 192
    1434:	0d 00       	.word	0x000d	; ????
    1436:	00 8e       	std	Z+24, r0	; 0x18
    1438:	0d 00       	.word	0x000d	; ????
    143a:	00 06       	cpc	r0, r16
    143c:	00 f2       	brcs	.-128    	; 0x13be <__data_load_end+0x454>
    143e:	2d 2e       	mov	r2, r29
	...
    1448:	00 00       	nop
    144a:	00 62       	ori	r16, 0x20	; 32
    144c:	0d 00       	.word	0x000d	; ????
    144e:	00 8e       	std	Z+24, r0	; 0x18
    1450:	0d 00       	.word	0x000d	; ????
    1452:	00 06       	cpc	r0, r16
    1454:	00 f2       	brcs	.-128    	; 0x13d6 <__data_load_end+0x46c>
    1456:	2d 2e       	mov	r2, r29
	...
    1460:	00 00       	nop
    1462:	00 62       	ori	r16, 0x20	; 32
    1464:	0d 00       	.word	0x000d	; ????
    1466:	00 8e       	std	Z+24, r0	; 0x18
    1468:	0d 00       	.word	0x000d	; ????
    146a:	00 02       	muls	r16, r16
    146c:	00 91 65 00 	lds	r16, 0x0065	; 0x800065 <__DATA_REGION_ORIGIN__+0x5>
    1470:	00 00       	nop
    1472:	00 00       	nop
    1474:	00 00       	nop
    1476:	00 64       	ori	r16, 0x40	; 64
    1478:	0d 00       	.word	0x000d	; ????
    147a:	00 8e       	std	Z+24, r0	; 0x18
    147c:	0d 00       	.word	0x000d	; ????
    147e:	00 01       	movw	r0, r0
    1480:	00 6a       	ori	r16, 0xA0	; 160
	...
    148a:	66 0d       	add	r22, r6
    148c:	00 00       	nop
    148e:	8e 0d       	add	r24, r14
    1490:	00 00       	nop
    1492:	01 00       	.word	0x0001	; ????
    1494:	64 00       	.word	0x0064	; ????
    1496:	00 00       	nop
    1498:	00 00       	nop
    149a:	00 00       	nop
    149c:	00 68       	ori	r16, 0x80	; 128
    149e:	0d 00       	.word	0x000d	; ????
    14a0:	00 8e       	std	Z+24, r0	; 0x18
    14a2:	0d 00       	.word	0x000d	; ????
    14a4:	00 01       	movw	r0, r0
    14a6:	00 63       	ori	r16, 0x30	; 48
	...
    14b0:	68 0d       	add	r22, r8
    14b2:	00 00       	nop
    14b4:	70 0d       	add	r23, r0
    14b6:	00 00       	nop
    14b8:	02 00       	.word	0x0002	; ????
    14ba:	30 9f       	mul	r19, r16
    14bc:	70 0d       	add	r23, r0
    14be:	00 00       	nop
    14c0:	8e 0d       	add	r24, r14
    14c2:	00 00       	nop
    14c4:	01 00       	.word	0x0001	; ????
    14c6:	62 00       	.word	0x0062	; ????
    14c8:	00 00       	nop
    14ca:	00 00       	nop
    14cc:	00 00       	nop
    14ce:	00 70       	andi	r16, 0x00	; 0
    14d0:	0d 00       	.word	0x000d	; ????
    14d2:	00 74       	andi	r16, 0x40	; 64
    14d4:	0d 00       	.word	0x000d	; ????
    14d6:	00 06       	cpc	r0, r16
    14d8:	00 82       	st	Z, r0
    14da:	00 8b       	std	Z+16, r16	; 0x10
    14dc:	00 22       	and	r0, r16
    14de:	9f 74       	andi	r25, 0x4F	; 79
    14e0:	0d 00       	.word	0x000d	; ????
    14e2:	00 7c       	andi	r16, 0xC0	; 192
    14e4:	0d 00       	.word	0x000d	; ????
    14e6:	00 01       	movw	r0, r0
    14e8:	00 68       	ori	r16, 0x80	; 128
    14ea:	7c 0d       	add	r23, r12
    14ec:	00 00       	nop
    14ee:	8a 0d       	add	r24, r10
    14f0:	00 00       	nop
    14f2:	06 00       	.word	0x0006	; ????
    14f4:	82 00       	.word	0x0082	; ????
    14f6:	8b 00       	.word	0x008b	; ????
    14f8:	22 9f       	mul	r18, r18
    14fa:	8a 0d       	add	r24, r10
    14fc:	00 00       	nop
    14fe:	8e 0d       	add	r24, r14
    1500:	00 00       	nop
    1502:	08 00       	.word	0x0008	; ????
    1504:	82 00       	.word	0x0082	; ????
    1506:	8b 00       	.word	0x008b	; ????
    1508:	22 31       	cpi	r18, 0x12	; 18
    150a:	1c 9f       	mul	r17, r28
	...
    1514:	a2 0d       	add	r26, r2
    1516:	00 00       	nop
    1518:	da 0d       	add	r29, r10
    151a:	00 00       	nop
    151c:	06 00       	.word	0x0006	; ????
    151e:	f2 2d       	mov	r31, r2
    1520:	2e 00       	.word	0x002e	; ????
	...
    152a:	00 00       	nop
    152c:	8e 0d       	add	r24, r14
    152e:	00 00       	nop
    1530:	9a 0d       	add	r25, r10
    1532:	00 00       	nop
    1534:	02 00       	.word	0x0002	; ????
    1536:	30 9f       	mul	r19, r16
	...
    1540:	b0 0d       	add	r27, r0
    1542:	00 00       	nop
    1544:	da 0d       	add	r29, r10
    1546:	00 00       	nop
    1548:	01 00       	.word	0x0001	; ????
    154a:	65 00       	.word	0x0065	; ????
    154c:	00 00       	nop
    154e:	00 00       	nop
    1550:	00 00       	nop
    1552:	00 b2       	in	r0, 0x10	; 16
    1554:	0d 00       	.word	0x000d	; ????
    1556:	00 da       	rcall	.-3072   	; 0x958 <__vector_11+0x30>
    1558:	0d 00       	.word	0x000d	; ????
    155a:	00 01       	movw	r0, r0
    155c:	00 64       	ori	r16, 0x40	; 64
	...
    1566:	b4 0d       	add	r27, r4
    1568:	00 00       	nop
    156a:	da 0d       	add	r29, r10
    156c:	00 00       	nop
    156e:	01 00       	.word	0x0001	; ????
    1570:	63 00       	.word	0x0063	; ????
    1572:	00 00       	nop
    1574:	00 00       	nop
    1576:	00 00       	nop
    1578:	00 b4       	in	r0, 0x20	; 32
    157a:	0d 00       	.word	0x000d	; ????
    157c:	00 b8       	out	0x00, r0	; 0
    157e:	0d 00       	.word	0x000d	; ????
    1580:	00 02       	muls	r16, r16
    1582:	00 30       	cpi	r16, 0x00	; 0
    1584:	9f b8       	out	0x0f, r9	; 15
    1586:	0d 00       	.word	0x000d	; ????
    1588:	00 da       	rcall	.-3072   	; 0x98a <__vector_11+0x62>
    158a:	0d 00       	.word	0x000d	; ????
    158c:	00 01       	movw	r0, r0
    158e:	00 62       	ori	r16, 0x20	; 32
	...
    1598:	ee 0c       	add	r14, r14
    159a:	00 00       	nop
    159c:	06 0d       	add	r16, r6
    159e:	00 00       	nop
    15a0:	01 00       	.word	0x0001	; ????
    15a2:	68 06       	cpc	r6, r24
    15a4:	0d 00       	.word	0x000d	; ????
    15a6:	00 18       	sub	r0, r0
    15a8:	0d 00       	.word	0x000d	; ????
    15aa:	00 02       	muls	r16, r16
    15ac:	00 8e       	std	Z+24, r0	; 0x18
	...
    15b6:	00 14       	cp	r0, r0
    15b8:	0e 00       	.word	0x000e	; ????
    15ba:	00 32       	cpi	r16, 0x20	; 32
    15bc:	0e 00       	.word	0x000e	; ????
    15be:	00 03       	mulsu	r16, r16
    15c0:	00 09       	sbc	r16, r0
    15c2:	ff 9f       	mul	r31, r31
	...
    15cc:	14 0e       	add	r1, r20
    15ce:	00 00       	nop
    15d0:	32 0e       	add	r3, r18
    15d2:	00 00       	nop
    15d4:	02 00       	.word	0x0002	; ????
    15d6:	31 9f       	mul	r19, r17
	...
    15e0:	bc 09       	sbc	r27, r12
    15e2:	00 00       	nop
    15e4:	be 09       	sbc	r27, r14
    15e6:	00 00       	nop
    15e8:	03 00       	.word	0x0003	; ????
    15ea:	92 20       	and	r9, r2
    15ec:	02 be       	out	0x32, r0	; 50
    15ee:	09 00       	.word	0x0009	; ????
    15f0:	00 c0       	rjmp	.+0      	; 0x15f2 <__data_load_end+0x688>
    15f2:	09 00       	.word	0x0009	; ????
    15f4:	00 03       	mulsu	r16, r16
    15f6:	00 92 20 03 	sts	0x0320, r0	; 0x800320 <__bss_end+0x101>
    15fa:	c0 09       	sbc	r28, r0
    15fc:	00 00       	nop
    15fe:	c8 09       	sbc	r28, r8
    1600:	00 00       	nop
    1602:	03 00       	.word	0x0003	; ????
    1604:	92 20       	and	r9, r2
    1606:	04 c8       	rjmp	.-4088   	; 0x610 <L_2206+0x88>
    1608:	09 00       	.word	0x0009	; ????
    160a:	00 ca       	rjmp	.-3072   	; 0xa0c <__vector_16+0x50>
    160c:	09 00       	.word	0x0009	; ????
    160e:	00 03       	mulsu	r16, r16
    1610:	00 92 20 05 	sts	0x0520, r0	; 0x800520 <__bss_end+0x301>
    1614:	ca 09       	sbc	r28, r10
    1616:	00 00       	nop
    1618:	cc 09       	sbc	r28, r12
    161a:	00 00       	nop
    161c:	03 00       	.word	0x0003	; ????
    161e:	92 20       	and	r9, r2
    1620:	06 cc       	rjmp	.-2036   	; 0xe2e <_GLOBAL__sub_I_pSmartMatrix+0x1a>
    1622:	09 00       	.word	0x0009	; ????
    1624:	00 ce       	rjmp	.-1024   	; 0x1226 <__data_load_end+0x2bc>
    1626:	09 00       	.word	0x0009	; ????
    1628:	00 03       	mulsu	r16, r16
    162a:	00 92 20 07 	sts	0x0720, r0	; 0x800720 <__bss_end+0x501>
    162e:	ce 09       	sbc	r28, r14
    1630:	00 00       	nop
    1632:	d0 09       	sbc	r29, r0
    1634:	00 00       	nop
    1636:	03 00       	.word	0x0003	; ????
    1638:	92 20       	and	r9, r2
    163a:	08 d0       	rcall	.+16     	; 0x164c <__data_load_end+0x6e2>
    163c:	09 00       	.word	0x0009	; ????
    163e:	00 d2       	rcall	.+1024   	; 0x1a40 <__data_load_end+0xad6>
    1640:	09 00       	.word	0x0009	; ????
    1642:	00 03       	mulsu	r16, r16
    1644:	00 92 20 09 	sts	0x0920, r0	; 0x800920 <__bss_end+0x701>
    1648:	d2 09       	sbc	r29, r2
    164a:	00 00       	nop
    164c:	d4 09       	sbc	r29, r4
    164e:	00 00       	nop
    1650:	03 00       	.word	0x0003	; ????
    1652:	92 20       	and	r9, r2
    1654:	0a d4       	rcall	.+2068   	; 0x1e6a <__data_load_end+0xf00>
    1656:	09 00       	.word	0x0009	; ????
    1658:	00 d6       	rcall	.+3072   	; 0x225a <__TEXT_REGION_LENGTH__+0x25a>
    165a:	09 00       	.word	0x0009	; ????
    165c:	00 03       	mulsu	r16, r16
    165e:	00 92 20 0b 	sts	0x0B20, r0	; 0x800b20 <__bss_end+0x901>
    1662:	d6 09       	sbc	r29, r6
    1664:	00 00       	nop
    1666:	d8 09       	sbc	r29, r8
    1668:	00 00       	nop
    166a:	03 00       	.word	0x0003	; ????
    166c:	92 20       	and	r9, r2
    166e:	0c d8       	rcall	.-4072   	; 0x688 <L_3028+0x62>
    1670:	09 00       	.word	0x0009	; ????
    1672:	00 da       	rcall	.-3072   	; 0xa74 <__vector_16+0xb8>
    1674:	09 00       	.word	0x0009	; ????
    1676:	00 03       	mulsu	r16, r16
    1678:	00 92 20 0d 	sts	0x0D20, r0	; 0x800d20 <__bss_end+0xb01>
    167c:	da 09       	sbc	r29, r10
    167e:	00 00       	nop
    1680:	dc 09       	sbc	r29, r12
    1682:	00 00       	nop
    1684:	03 00       	.word	0x0003	; ????
    1686:	92 20       	and	r9, r2
    1688:	0e dc       	rcall	.-2020   	; 0xea6 <__divmodhi4+0xc>
    168a:	09 00       	.word	0x0009	; ????
    168c:	00 de       	rcall	.-1024   	; 0x128e <__data_load_end+0x324>
    168e:	09 00       	.word	0x0009	; ????
    1690:	00 03       	mulsu	r16, r16
    1692:	00 92 20 0f 	sts	0x0F20, r0	; 0x800f20 <__bss_end+0xd01>
    1696:	de 09       	sbc	r29, r14
    1698:	00 00       	nop
    169a:	28 0b       	sbc	r18, r24
    169c:	00 00       	nop
    169e:	03 00       	.word	0x0003	; ????
    16a0:	92 20       	and	r9, r2
    16a2:	10 00       	.word	0x0010	; ????
    16a4:	00 00       	nop
    16a6:	00 00       	nop
    16a8:	00 00       	nop
    16aa:	00 28       	or	r0, r0
    16ac:	0b 00       	.word	0x000b	; ????
    16ae:	00 2a       	or	r0, r16
    16b0:	0b 00       	.word	0x000b	; ????
    16b2:	00 03       	mulsu	r16, r16
    16b4:	00 92 20 02 	sts	0x0220, r0	; 0x800220 <__bss_end+0x1>
    16b8:	2a 0b       	sbc	r18, r26
    16ba:	00 00       	nop
    16bc:	2c 0b       	sbc	r18, r28
    16be:	00 00       	nop
    16c0:	03 00       	.word	0x0003	; ????
    16c2:	92 20       	and	r9, r2
    16c4:	03 2c       	mov	r0, r3
    16c6:	0b 00       	.word	0x000b	; ????
    16c8:	00 34       	cpi	r16, 0x40	; 64
    16ca:	0b 00       	.word	0x000b	; ????
    16cc:	00 03       	mulsu	r16, r16
    16ce:	00 92 20 04 	sts	0x0420, r0	; 0x800420 <__bss_end+0x201>
    16d2:	34 0b       	sbc	r19, r20
    16d4:	00 00       	nop
    16d6:	62 0b       	sbc	r22, r18
    16d8:	00 00       	nop
    16da:	03 00       	.word	0x0003	; ????
    16dc:	92 20       	and	r9, r2
    16de:	05 00       	.word	0x0005	; ????
    16e0:	00 00       	nop
    16e2:	00 00       	nop
    16e4:	00 00       	nop
	...

Disassembly of section .debug_ranges:

00000000 <.debug_ranges>:
   0:	70 01       	movw	r14, r0
   2:	00 00       	nop
   4:	78 01       	movw	r14, r16
   6:	00 00       	nop
   8:	88 01       	movw	r16, r16
   a:	00 00       	nop
   c:	34 02       	muls	r19, r20
	...
  16:	00 00       	nop
  18:	70 01       	movw	r14, r0
  1a:	00 00       	nop
  1c:	78 01       	movw	r14, r16
  1e:	00 00       	nop
  20:	9a 01       	movw	r18, r20
  22:	00 00       	nop
  24:	24 02       	muls	r18, r20
	...
  2e:	00 00       	nop
  30:	70 01       	movw	r14, r0
  32:	00 00       	nop
  34:	78 01       	movw	r14, r16
  36:	00 00       	nop
  38:	a4 01       	movw	r20, r8
  3a:	00 00       	nop
  3c:	0e 02       	muls	r16, r30
	...
  46:	00 00       	nop
  48:	70 01       	movw	r14, r0
  4a:	00 00       	nop
  4c:	78 01       	movw	r14, r16
  4e:	00 00       	nop
  50:	ba 01       	movw	r22, r20
  52:	00 00       	nop
  54:	08 02       	muls	r16, r24
	...
  5e:	00 00       	nop
  60:	70 01       	movw	r14, r0
  62:	00 00       	nop
  64:	78 01       	movw	r14, r16
  66:	00 00       	nop
  68:	ba 01       	movw	r22, r20
  6a:	00 00       	nop
  6c:	02 02       	muls	r16, r18
	...
  76:	00 00       	nop
  78:	70 01       	movw	r14, r0
  7a:	00 00       	nop
  7c:	78 01       	movw	r14, r16
  7e:	00 00       	nop
  80:	ca 01       	movw	r24, r20
  82:	00 00       	nop
  84:	02 02       	muls	r16, r18
	...
  8e:	00 00       	nop
  90:	34 02       	muls	r19, r20
  92:	00 00       	nop
  94:	80 02       	muls	r24, r16
  96:	00 00       	nop
  98:	88 02       	muls	r24, r24
  9a:	00 00       	nop
  9c:	da 02       	muls	r29, r26
	...
  a6:	00 00       	nop
  a8:	50 02       	muls	r21, r16
  aa:	00 00       	nop
  ac:	80 02       	muls	r24, r16
  ae:	00 00       	nop
  b0:	88 02       	muls	r24, r24
  b2:	00 00       	nop
  b4:	da 02       	muls	r29, r26
	...
  be:	00 00       	nop
  c0:	96 03       	fmuls	r17, r22
  c2:	00 00       	nop
  c4:	d4 03       	fmuls	r21, r20
  c6:	00 00       	nop
  c8:	e2 03       	fmuls	r22, r18
  ca:	00 00       	nop
  cc:	e8 03       	fmulsu	r22, r16
	...
  d6:	00 00       	nop
  d8:	96 03       	fmuls	r17, r22
  da:	00 00       	nop
  dc:	ce 03       	fmulsu	r20, r22
  de:	00 00       	nop
  e0:	e2 03       	fmuls	r22, r18
  e2:	00 00       	nop
  e4:	e8 03       	fmulsu	r22, r16
	...
  ee:	00 00       	nop
  f0:	9c 03       	fmulsu	r17, r20
  f2:	00 00       	nop
  f4:	9e 03       	fmulsu	r17, r22
  f6:	00 00       	nop
  f8:	b2 03       	fmuls	r19, r18
  fa:	00 00       	nop
  fc:	bc 03       	fmulsu	r19, r20
	...
 106:	00 00       	nop
 108:	de 07       	cpc	r29, r30
 10a:	00 00       	nop
 10c:	02 08       	sbc	r0, r2
 10e:	00 00       	nop
 110:	44 08       	sbc	r4, r4
 112:	00 00       	nop
 114:	52 08       	sbc	r5, r2
	...
 11e:	00 00       	nop
 120:	f0 07       	cpc	r31, r16
 122:	00 00       	nop
 124:	fa 07       	cpc	r31, r26
 126:	00 00       	nop
 128:	44 08       	sbc	r4, r4
 12a:	00 00       	nop
 12c:	52 08       	sbc	r5, r2
	...
 136:	00 00       	nop
 138:	76 08       	sbc	r7, r6
 13a:	00 00       	nop
 13c:	98 08       	sbc	r9, r8
 13e:	00 00       	nop
 140:	c8 08       	sbc	r12, r8
 142:	00 00       	nop
 144:	d6 08       	sbc	r13, r6
	...
 14e:	00 00       	nop
 150:	88 08       	sbc	r8, r8
 152:	00 00       	nop
 154:	92 08       	sbc	r9, r2
 156:	00 00       	nop
 158:	c8 08       	sbc	r12, r8
 15a:	00 00       	nop
 15c:	d6 08       	sbc	r13, r6
	...
 166:	00 00       	nop
 168:	d2 0c       	add	r13, r2
 16a:	00 00       	nop
 16c:	b6 0d       	add	r27, r6
 16e:	00 00       	nop
 170:	b8 0d       	add	r27, r8
 172:	00 00       	nop
 174:	14 0e       	add	r1, r20
	...
 17e:	00 00       	nop
 180:	d2 0c       	add	r13, r2
 182:	00 00       	nop
 184:	d8 0c       	add	r13, r8
 186:	00 00       	nop
 188:	24 0d       	add	r18, r4
 18a:	00 00       	nop
 18c:	b6 0d       	add	r27, r6
 18e:	00 00       	nop
 190:	b8 0d       	add	r27, r8
 192:	00 00       	nop
 194:	f4 0d       	add	r31, r4
 196:	00 00       	nop
 198:	00 0e       	add	r0, r16
 19a:	00 00       	nop
 19c:	14 0e       	add	r1, r20
	...
 1a6:	00 00       	nop
 1a8:	d2 0c       	add	r13, r2
 1aa:	00 00       	nop
 1ac:	d8 0c       	add	r13, r8
 1ae:	00 00       	nop
 1b0:	4c 0d       	add	r20, r12
 1b2:	00 00       	nop
 1b4:	b6 0d       	add	r27, r6
 1b6:	00 00       	nop
 1b8:	b8 0d       	add	r27, r8
 1ba:	00 00       	nop
 1bc:	ea 0d       	add	r30, r10
 1be:	00 00       	nop
 1c0:	00 0e       	add	r0, r16
 1c2:	00 00       	nop
 1c4:	14 0e       	add	r1, r20
	...
 1ce:	00 00       	nop
 1d0:	d2 0c       	add	r13, r2
 1d2:	00 00       	nop
 1d4:	d8 0c       	add	r13, r8
 1d6:	00 00       	nop
 1d8:	9a 0d       	add	r25, r10
 1da:	00 00       	nop
 1dc:	a2 0d       	add	r26, r2
 1de:	00 00       	nop
 1e0:	da 0d       	add	r29, r10
 1e2:	00 00       	nop
 1e4:	ea 0d       	add	r30, r10
 1e6:	00 00       	nop
 1e8:	00 0e       	add	r0, r16
 1ea:	00 00       	nop
 1ec:	14 0e       	add	r1, r20
	...
 1f6:	00 00       	nop
 1f8:	d2 0c       	add	r13, r2
 1fa:	00 00       	nop
 1fc:	d8 0c       	add	r13, r8
 1fe:	00 00       	nop
 200:	9a 0d       	add	r25, r10
 202:	00 00       	nop
 204:	a2 0d       	add	r26, r2
 206:	00 00       	nop
 208:	de 0d       	add	r29, r14
 20a:	00 00       	nop
 20c:	ea 0d       	add	r30, r10
 20e:	00 00       	nop
 210:	00 0e       	add	r0, r16
 212:	00 00       	nop
 214:	14 0e       	add	r1, r20
	...
 21e:	00 00       	nop
 220:	8e 0d       	add	r24, r14
 222:	00 00       	nop
 224:	9a 0d       	add	r25, r10
 226:	00 00       	nop
 228:	a2 0d       	add	r26, r2
 22a:	00 00       	nop
 22c:	b6 0d       	add	r27, r6
 22e:	00 00       	nop
 230:	b8 0d       	add	r27, r8
 232:	00 00       	nop
 234:	da 0d       	add	r29, r10
	...
 23e:	00 00       	nop
 240:	8e 0d       	add	r24, r14
 242:	00 00       	nop
 244:	9a 0d       	add	r25, r10
 246:	00 00       	nop
 248:	ae 0d       	add	r26, r14
 24a:	00 00       	nop
 24c:	b6 0d       	add	r27, r6
 24e:	00 00       	nop
 250:	b8 0d       	add	r27, r8
 252:	00 00       	nop
 254:	da 0d       	add	r29, r10
	...
 25e:	00 00       	nop
 260:	ae 0d       	add	r26, r14
 262:	00 00       	nop
 264:	b6 0d       	add	r27, r6
 266:	00 00       	nop
 268:	b8 0d       	add	r27, r8
 26a:	00 00       	nop
 26c:	d2 0d       	add	r29, r2
	...
 276:	00 00       	nop
 278:	ea 0c       	add	r14, r10
 27a:	00 00       	nop
 27c:	24 0d       	add	r18, r4
 27e:	00 00       	nop
 280:	f4 0d       	add	r31, r4
 282:	00 00       	nop
 284:	00 0e       	add	r0, r16
	...
 28e:	00 00       	nop
 290:	70 00       	.word	0x0070	; ????
 292:	00 00       	nop
 294:	62 0b       	sbc	r22, r18
 296:	00 00       	nop
 298:	62 0b       	sbc	r22, r18
 29a:	00 00       	nop
 29c:	14 0e       	add	r1, r20
 29e:	00 00       	nop
 2a0:	14 0e       	add	r1, r20
 2a2:	00 00       	nop
 2a4:	34 0e       	add	r3, r20
	...
