
./builds//RowControllerBase.ino.elf:     file format elf32-avr


Disassembly of section .text:

00000000 <__vectors>:
   0:	11 c0       	rjmp	.+34     	; 0x24 <__ctors_end>
   2:	35 c0       	rjmp	.+106    	; 0x6e <__bad_interrupt>
   4:	34 c0       	rjmp	.+104    	; 0x6e <__bad_interrupt>
   6:	33 c0       	rjmp	.+102    	; 0x6e <__bad_interrupt>
   8:	32 c0       	rjmp	.+100    	; 0x6e <__bad_interrupt>
   a:	31 c0       	rjmp	.+98     	; 0x6e <__bad_interrupt>
   c:	30 c0       	rjmp	.+96     	; 0x6e <__bad_interrupt>
   e:	2f c0       	rjmp	.+94     	; 0x6e <__bad_interrupt>
  10:	2e c0       	rjmp	.+92     	; 0x6e <__bad_interrupt>
  12:	2d c0       	rjmp	.+90     	; 0x6e <__bad_interrupt>
  14:	2c c0       	rjmp	.+88     	; 0x6e <__bad_interrupt>
  16:	88 c4       	rjmp	.+2320   	; 0x928 <__vector_11>
  18:	2a c0       	rjmp	.+84     	; 0x6e <__bad_interrupt>
  1a:	29 c0       	rjmp	.+82     	; 0x6e <__bad_interrupt>
  1c:	28 c0       	rjmp	.+80     	; 0x6e <__bad_interrupt>
  1e:	84 c5       	rjmp	.+2824   	; 0xb28 <__vector_15>
  20:	cd c4       	rjmp	.+2458   	; 0x9bc <__vector_16>

00000022 <__ctors_start>:
  22:	0a 07       	cpc	r16, r26

00000024 <__ctors_end>:
  24:	11 24       	eor	r1, r1
  26:	1f be       	out	0x3f, r1	; 63
  28:	cf e5       	ldi	r28, 0x5F	; 95
  2a:	d2 e0       	ldi	r29, 0x02	; 2
  2c:	de bf       	out	0x3e, r29	; 62
  2e:	cd bf       	out	0x3d, r28	; 61

00000030 <__do_copy_data>:
  30:	10 e0       	ldi	r17, 0x00	; 0
  32:	a0 e6       	ldi	r26, 0x60	; 96
  34:	b0 e0       	ldi	r27, 0x00	; 0
  36:	e4 e4       	ldi	r30, 0x44	; 68
  38:	ff e0       	ldi	r31, 0x0F	; 15
  3a:	02 c0       	rjmp	.+4      	; 0x40 <__SREG__+0x1>
  3c:	05 90       	lpm	r0, Z+
  3e:	0d 92       	st	X+, r0
  40:	a6 38       	cpi	r26, 0x86	; 134
  42:	b1 07       	cpc	r27, r17
  44:	d9 f7       	brne	.-10     	; 0x3c <__do_copy_data+0xc>

00000046 <__do_clear_bss>:
  46:	22 e0       	ldi	r18, 0x02	; 2
  48:	a6 e8       	ldi	r26, 0x86	; 134
  4a:	b0 e0       	ldi	r27, 0x00	; 0
  4c:	01 c0       	rjmp	.+2      	; 0x50 <.do_clear_bss_start>

0000004e <.do_clear_bss_loop>:
  4e:	1d 92       	st	X+, r1

00000050 <.do_clear_bss_start>:
  50:	af 31       	cpi	r26, 0x1F	; 31
  52:	b2 07       	cpc	r27, r18
  54:	e1 f7       	brne	.-8      	; 0x4e <.do_clear_bss_loop>

00000056 <__do_global_ctors>:
  56:	10 e0       	ldi	r17, 0x00	; 0
  58:	c2 e1       	ldi	r28, 0x12	; 18
  5a:	d0 e0       	ldi	r29, 0x00	; 0
  5c:	03 c0       	rjmp	.+6      	; 0x64 <__do_global_ctors+0xe>
  5e:	21 97       	sbiw	r28, 0x01	; 1
  60:	fe 01       	movw	r30, r28
  62:	64 d7       	rcall	.+3784   	; 0xf2c <__tablejump2__>
  64:	c1 31       	cpi	r28, 0x11	; 17
  66:	d1 07       	cpc	r29, r17
  68:	d1 f7       	brne	.-12     	; 0x5e <__do_global_ctors+0x8>
  6a:	7b d5       	rcall	.+2806   	; 0xb62 <main>
  6c:	69 c7       	rjmp	.+3794   	; 0xf40 <_exit>

0000006e <__bad_interrupt>:
  6e:	c8 cf       	rjmp	.-112    	; 0x0 <__vectors>

00000070 <micros>:
  70:	3f b7       	in	r19, 0x3f	; 63
  72:	f8 94       	cli
  74:	80 91 fe 01 	lds	r24, 0x01FE	; 0x8001fe <millis_timer_overflow_count>
  78:	90 91 ff 01 	lds	r25, 0x01FF	; 0x8001ff <millis_timer_overflow_count+0x1>
  7c:	a0 91 00 02 	lds	r26, 0x0200	; 0x800200 <millis_timer_overflow_count+0x2>
  80:	b0 91 01 02 	lds	r27, 0x0201	; 0x800201 <millis_timer_overflow_count+0x3>
  84:	22 b7       	in	r18, 0x32	; 50
  86:	08 b6       	in	r0, 0x38	; 56
  88:	00 fe       	sbrs	r0, 0
  8a:	05 c0       	rjmp	.+10     	; 0x96 <micros+0x26>
  8c:	2f 3f       	cpi	r18, 0xFF	; 255
  8e:	19 f0       	breq	.+6      	; 0x96 <micros+0x26>
  90:	01 96       	adiw	r24, 0x01	; 1
  92:	a1 1d       	adc	r26, r1
  94:	b1 1d       	adc	r27, r1
  96:	3f bf       	out	0x3f, r19	; 63
  98:	ba 2f       	mov	r27, r26
  9a:	a9 2f       	mov	r26, r25
  9c:	98 2f       	mov	r25, r24
  9e:	88 27       	eor	r24, r24
  a0:	bc 01       	movw	r22, r24
  a2:	cd 01       	movw	r24, r26
  a4:	62 0f       	add	r22, r18
  a6:	71 1d       	adc	r23, r1
  a8:	81 1d       	adc	r24, r1
  aa:	91 1d       	adc	r25, r1
  ac:	43 e0       	ldi	r20, 0x03	; 3
  ae:	66 0f       	add	r22, r22
  b0:	77 1f       	adc	r23, r23
  b2:	88 1f       	adc	r24, r24
  b4:	99 1f       	adc	r25, r25
  b6:	4a 95       	dec	r20
  b8:	d1 f7       	brne	.-12     	; 0xae <micros+0x3e>
  ba:	08 95       	ret

000000bc <CFastLED::show(unsigned char) [clone .constprop.18]>:
  bc:	3f 92       	push	r3
  be:	4f 92       	push	r4
  c0:	5f 92       	push	r5
  c2:	6f 92       	push	r6
  c4:	7f 92       	push	r7
  c6:	8f 92       	push	r8
  c8:	9f 92       	push	r9
  ca:	af 92       	push	r10
  cc:	bf 92       	push	r11
  ce:	cf 92       	push	r12
  d0:	df 92       	push	r13
  d2:	ef 92       	push	r14
  d4:	ff 92       	push	r15
  d6:	0f 93       	push	r16
  d8:	1f 93       	push	r17
  da:	cf 93       	push	r28
  dc:	df 93       	push	r29
  de:	00 d0       	rcall	.+0      	; 0xe0 <CFastLED::show(unsigned char) [clone .constprop.18]+0x24>
  e0:	1f 92       	push	r1
  e2:	cd b7       	in	r28, 0x3d	; 61
  e4:	de b7       	in	r29, 0x3e	; 62
  e6:	d8 2e       	mov	r13, r24
  e8:	80 91 0f 02 	lds	r24, 0x020F	; 0x80020f <FastLED+0x3>
  ec:	90 91 10 02 	lds	r25, 0x0210	; 0x800210 <FastLED+0x4>
  f0:	a0 91 11 02 	lds	r26, 0x0211	; 0x800211 <FastLED+0x5>
  f4:	b0 91 12 02 	lds	r27, 0x0212	; 0x800212 <FastLED+0x6>
  f8:	89 2b       	or	r24, r25
  fa:	8a 2b       	or	r24, r26
  fc:	8b 2b       	or	r24, r27
  fe:	d1 f0       	breq	.+52     	; 0x134 <CFastLED::show(unsigned char) [clone .constprop.18]+0x78>
 100:	b7 df       	rcall	.-146    	; 0x70 <micros>
 102:	00 91 1b 02 	lds	r16, 0x021B	; 0x80021b <lastshow>
 106:	10 91 1c 02 	lds	r17, 0x021C	; 0x80021c <lastshow+0x1>
 10a:	20 91 1d 02 	lds	r18, 0x021D	; 0x80021d <lastshow+0x2>
 10e:	30 91 1e 02 	lds	r19, 0x021E	; 0x80021e <lastshow+0x3>
 112:	60 1b       	sub	r22, r16
 114:	71 0b       	sbc	r23, r17
 116:	82 0b       	sbc	r24, r18
 118:	93 0b       	sbc	r25, r19
 11a:	00 91 0f 02 	lds	r16, 0x020F	; 0x80020f <FastLED+0x3>
 11e:	10 91 10 02 	lds	r17, 0x0210	; 0x800210 <FastLED+0x4>
 122:	20 91 11 02 	lds	r18, 0x0211	; 0x800211 <FastLED+0x5>
 126:	30 91 12 02 	lds	r19, 0x0212	; 0x800212 <FastLED+0x6>
 12a:	60 17       	cp	r22, r16
 12c:	71 07       	cpc	r23, r17
 12e:	82 07       	cpc	r24, r18
 130:	93 07       	cpc	r25, r19
 132:	d0 f2       	brcs	.-76     	; 0xe8 <CFastLED::show(unsigned char) [clone .constprop.18]+0x2c>
 134:	9d df       	rcall	.-198    	; 0x70 <micros>
 136:	60 93 1b 02 	sts	0x021B, r22	; 0x80021b <lastshow>
 13a:	70 93 1c 02 	sts	0x021C, r23	; 0x80021c <lastshow+0x1>
 13e:	80 93 1d 02 	sts	0x021D, r24	; 0x80021d <lastshow+0x2>
 142:	90 93 1e 02 	sts	0x021E, r25	; 0x80021e <lastshow+0x3>
 146:	e0 91 17 02 	lds	r30, 0x0217	; 0x800217 <FastLED+0xb>
 14a:	f0 91 18 02 	lds	r31, 0x0218	; 0x800218 <FastLED+0xc>
 14e:	30 97       	sbiw	r30, 0x00	; 0
 150:	59 f0       	breq	.+22     	; 0x168 <CFastLED::show(unsigned char) [clone .constprop.18]+0xac>
 152:	40 91 13 02 	lds	r20, 0x0213	; 0x800213 <FastLED+0x7>
 156:	50 91 14 02 	lds	r21, 0x0214	; 0x800214 <FastLED+0x8>
 15a:	60 91 15 02 	lds	r22, 0x0215	; 0x800215 <FastLED+0x9>
 15e:	70 91 16 02 	lds	r23, 0x0216	; 0x800216 <FastLED+0xa>
 162:	8d 2d       	mov	r24, r13
 164:	09 95       	icall
 166:	d8 2e       	mov	r13, r24
 168:	e0 90 19 02 	lds	r14, 0x0219	; 0x800219 <CLEDController::m_pHead>
 16c:	f0 90 1a 02 	lds	r15, 0x021A	; 0x80021a <CLEDController::m_pHead+0x1>
 170:	4d 2c       	mov	r4, r13
 172:	51 2c       	mov	r5, r1
 174:	71 2c       	mov	r7, r1
 176:	61 2c       	mov	r6, r1
 178:	e1 14       	cp	r14, r1
 17a:	f1 04       	cpc	r15, r1
 17c:	09 f4       	brne	.+2      	; 0x180 <CFastLED::show(unsigned char) [clone .constprop.18]+0xc4>
 17e:	5a c0       	rjmp	.+180    	; 0x234 <CFastLED::show(unsigned char) [clone .constprop.18]+0x178>
 180:	d7 01       	movw	r26, r14
 182:	1c 96       	adiw	r26, 0x0c	; 12
 184:	cc 90       	ld	r12, X
 186:	1c 97       	sbiw	r26, 0x0c	; 12
 188:	80 91 0d 02 	lds	r24, 0x020D	; 0x80020d <FastLED+0x1>
 18c:	90 91 0e 02 	lds	r25, 0x020E	; 0x80020e <FastLED+0x2>
 190:	84 36       	cpi	r24, 0x64	; 100
 192:	91 05       	cpc	r25, r1
 194:	10 f4       	brcc	.+4      	; 0x19a <CFastLED::show(unsigned char) [clone .constprop.18]+0xde>
 196:	1c 96       	adiw	r26, 0x0c	; 12
 198:	1c 92       	st	X, r1
 19a:	d7 01       	movw	r26, r14
 19c:	ed 91       	ld	r30, X+
 19e:	fc 91       	ld	r31, X
 1a0:	82 80       	ldd	r8, Z+2	; 0x02
 1a2:	93 80       	ldd	r9, Z+3	; 0x03
 1a4:	19 82       	std	Y+1, r1	; 0x01
 1a6:	1a 82       	std	Y+2, r1	; 0x02
 1a8:	1b 82       	std	Y+3, r1	; 0x03
 1aa:	dd 20       	and	r13, r13
 1ac:	69 f1       	breq	.+90     	; 0x208 <CFastLED::show(unsigned char) [clone .constprop.18]+0x14c>
 1ae:	57 01       	movw	r10, r14
 1b0:	b6 e0       	ldi	r27, 0x06	; 6
 1b2:	ab 0e       	add	r10, r27
 1b4:	b1 1c       	adc	r11, r1
 1b6:	10 e0       	ldi	r17, 0x00	; 0
 1b8:	00 e0       	ldi	r16, 0x00	; 0
 1ba:	f5 01       	movw	r30, r10
 1bc:	61 91       	ld	r22, Z+
 1be:	5f 01       	movw	r10, r30
 1c0:	66 23       	and	r22, r22
 1c2:	e9 f0       	breq	.+58     	; 0x1fe <CFastLED::show(unsigned char) [clone .constprop.18]+0x142>
 1c4:	32 80       	ldd	r3, Z+2	; 0x02
 1c6:	33 20       	and	r3, r3
 1c8:	d1 f0       	breq	.+52     	; 0x1fe <CFastLED::show(unsigned char) [clone .constprop.18]+0x142>
 1ca:	70 e0       	ldi	r23, 0x00	; 0
 1cc:	90 e0       	ldi	r25, 0x00	; 0
 1ce:	80 e0       	ldi	r24, 0x00	; 0
 1d0:	6f 5f       	subi	r22, 0xFF	; 255
 1d2:	7f 4f       	sbci	r23, 0xFF	; 255
 1d4:	8f 4f       	sbci	r24, 0xFF	; 255
 1d6:	9f 4f       	sbci	r25, 0xFF	; 255
 1d8:	a3 01       	movw	r20, r6
 1da:	92 01       	movw	r18, r4
 1dc:	45 d6       	rcall	.+3210   	; 0xe68 <__mulsi3>
 1de:	23 2d       	mov	r18, r3
 1e0:	30 e0       	ldi	r19, 0x00	; 0
 1e2:	50 e0       	ldi	r21, 0x00	; 0
 1e4:	40 e0       	ldi	r20, 0x00	; 0
 1e6:	2f 5f       	subi	r18, 0xFF	; 255
 1e8:	3f 4f       	sbci	r19, 0xFF	; 255
 1ea:	4f 4f       	sbci	r20, 0xFF	; 255
 1ec:	5f 4f       	sbci	r21, 0xFF	; 255
 1ee:	3c d6       	rcall	.+3192   	; 0xe68 <__mulsi3>
 1f0:	e1 e0       	ldi	r30, 0x01	; 1
 1f2:	f0 e0       	ldi	r31, 0x00	; 0
 1f4:	ec 0f       	add	r30, r28
 1f6:	fd 1f       	adc	r31, r29
 1f8:	e0 0f       	add	r30, r16
 1fa:	f1 1f       	adc	r31, r17
 1fc:	80 83       	st	Z, r24
 1fe:	0f 5f       	subi	r16, 0xFF	; 255
 200:	1f 4f       	sbci	r17, 0xFF	; 255
 202:	03 30       	cpi	r16, 0x03	; 3
 204:	11 05       	cpc	r17, r1
 206:	c9 f6       	brne	.-78     	; 0x1ba <CFastLED::show(unsigned char) [clone .constprop.18]+0xfe>
 208:	09 81       	ldd	r16, Y+1	; 0x01
 20a:	1a 81       	ldd	r17, Y+2	; 0x02
 20c:	2b 81       	ldd	r18, Y+3	; 0x03
 20e:	d7 01       	movw	r26, r14
 210:	1d 96       	adiw	r26, 0x0d	; 13
 212:	4d 91       	ld	r20, X+
 214:	5c 91       	ld	r21, X
 216:	1e 97       	sbiw	r26, 0x0e	; 14
 218:	12 96       	adiw	r26, 0x02	; 2
 21a:	6d 91       	ld	r22, X+
 21c:	7c 91       	ld	r23, X
 21e:	c7 01       	movw	r24, r14
 220:	f4 01       	movw	r30, r8
 222:	09 95       	icall
 224:	d7 01       	movw	r26, r14
 226:	1c 96       	adiw	r26, 0x0c	; 12
 228:	cc 92       	st	X, r12
 22a:	1c 97       	sbiw	r26, 0x0c	; 12
 22c:	14 96       	adiw	r26, 0x04	; 4
 22e:	ed 90       	ld	r14, X+
 230:	fc 90       	ld	r15, X
 232:	a2 cf       	rjmp	.-188    	; 0x178 <CFastLED::show(unsigned char) [clone .constprop.18]+0xbc>
 234:	80 91 0a 02 	lds	r24, 0x020A	; 0x80020a <CFastLED::countFPS(int)::br>
 238:	90 91 0b 02 	lds	r25, 0x020B	; 0x80020b <CFastLED::countFPS(int)::br+0x1>
 23c:	9c 01       	movw	r18, r24
 23e:	2f 5f       	subi	r18, 0xFF	; 255
 240:	3f 4f       	sbci	r19, 0xFF	; 255
 242:	30 93 0b 02 	sts	0x020B, r19	; 0x80020b <CFastLED::countFPS(int)::br+0x1>
 246:	20 93 0a 02 	sts	0x020A, r18	; 0x80020a <CFastLED::countFPS(int)::br>
 24a:	49 97       	sbiw	r24, 0x19	; 25
 24c:	0c f4       	brge	.+2      	; 0x250 <CFastLED::show(unsigned char) [clone .constprop.18]+0x194>
 24e:	45 c0       	rjmp	.+138    	; 0x2da <__stack+0x7b>
 250:	8f b7       	in	r24, 0x3f	; 63
 252:	f8 94       	cli
 254:	00 91 02 02 	lds	r16, 0x0202	; 0x800202 <millis_timer_millis>
 258:	10 91 03 02 	lds	r17, 0x0203	; 0x800203 <millis_timer_millis+0x1>
 25c:	20 91 04 02 	lds	r18, 0x0204	; 0x800204 <millis_timer_millis+0x2>
 260:	30 91 05 02 	lds	r19, 0x0205	; 0x800205 <millis_timer_millis+0x3>
 264:	8f bf       	out	0x3f, r24	; 63
 266:	80 91 06 02 	lds	r24, 0x0206	; 0x800206 <CFastLED::countFPS(int)::lastframe>
 26a:	90 91 07 02 	lds	r25, 0x0207	; 0x800207 <CFastLED::countFPS(int)::lastframe+0x1>
 26e:	a0 91 08 02 	lds	r26, 0x0208	; 0x800208 <CFastLED::countFPS(int)::lastframe+0x2>
 272:	b0 91 09 02 	lds	r27, 0x0209	; 0x800209 <CFastLED::countFPS(int)::lastframe+0x3>
 276:	08 1b       	sub	r16, r24
 278:	19 0b       	sbc	r17, r25
 27a:	2a 0b       	sbc	r18, r26
 27c:	3b 0b       	sbc	r19, r27
 27e:	21 f4       	brne	.+8      	; 0x288 <__stack+0x29>
 280:	01 e0       	ldi	r16, 0x01	; 1
 282:	10 e0       	ldi	r17, 0x00	; 0
 284:	20 e0       	ldi	r18, 0x00	; 0
 286:	30 e0       	ldi	r19, 0x00	; 0
 288:	80 91 0a 02 	lds	r24, 0x020A	; 0x80020a <CFastLED::countFPS(int)::br>
 28c:	90 91 0b 02 	lds	r25, 0x020B	; 0x80020b <CFastLED::countFPS(int)::br+0x1>
 290:	68 ee       	ldi	r22, 0xE8	; 232
 292:	73 e0       	ldi	r23, 0x03	; 3
 294:	d8 d5       	rcall	.+2992   	; 0xe46 <__mulhi3>
 296:	bc 01       	movw	r22, r24
 298:	99 0f       	add	r25, r25
 29a:	88 0b       	sbc	r24, r24
 29c:	99 0b       	sbc	r25, r25
 29e:	a9 01       	movw	r20, r18
 2a0:	98 01       	movw	r18, r16
 2a2:	0e d6       	rcall	.+3100   	; 0xec0 <__udivmodsi4>
 2a4:	30 93 0e 02 	sts	0x020E, r19	; 0x80020e <FastLED+0x2>
 2a8:	20 93 0d 02 	sts	0x020D, r18	; 0x80020d <FastLED+0x1>
 2ac:	10 92 0b 02 	sts	0x020B, r1	; 0x80020b <CFastLED::countFPS(int)::br+0x1>
 2b0:	10 92 0a 02 	sts	0x020A, r1	; 0x80020a <CFastLED::countFPS(int)::br>
 2b4:	2f b7       	in	r18, 0x3f	; 63
 2b6:	f8 94       	cli
 2b8:	80 91 02 02 	lds	r24, 0x0202	; 0x800202 <millis_timer_millis>
 2bc:	90 91 03 02 	lds	r25, 0x0203	; 0x800203 <millis_timer_millis+0x1>
 2c0:	a0 91 04 02 	lds	r26, 0x0204	; 0x800204 <millis_timer_millis+0x2>
 2c4:	b0 91 05 02 	lds	r27, 0x0205	; 0x800205 <millis_timer_millis+0x3>
 2c8:	2f bf       	out	0x3f, r18	; 63
 2ca:	80 93 06 02 	sts	0x0206, r24	; 0x800206 <CFastLED::countFPS(int)::lastframe>
 2ce:	90 93 07 02 	sts	0x0207, r25	; 0x800207 <CFastLED::countFPS(int)::lastframe+0x1>
 2d2:	a0 93 08 02 	sts	0x0208, r26	; 0x800208 <CFastLED::countFPS(int)::lastframe+0x2>
 2d6:	b0 93 09 02 	sts	0x0209, r27	; 0x800209 <CFastLED::countFPS(int)::lastframe+0x3>
 2da:	0f 90       	pop	r0
 2dc:	0f 90       	pop	r0
 2de:	0f 90       	pop	r0
 2e0:	df 91       	pop	r29
 2e2:	cf 91       	pop	r28
 2e4:	1f 91       	pop	r17
 2e6:	0f 91       	pop	r16
 2e8:	ff 90       	pop	r15
 2ea:	ef 90       	pop	r14
 2ec:	df 90       	pop	r13
 2ee:	cf 90       	pop	r12
 2f0:	bf 90       	pop	r11
 2f2:	af 90       	pop	r10
 2f4:	9f 90       	pop	r9
 2f6:	8f 90       	pop	r8
 2f8:	7f 90       	pop	r7
 2fa:	6f 90       	pop	r6
 2fc:	5f 90       	pop	r5
 2fe:	4f 90       	pop	r4
 300:	3f 90       	pop	r3
 302:	08 95       	ret

00000304 <ISR_I2C_Recv(unsigned char)>:
 304:	f8 94       	cli
 306:	80 91 fb 01 	lds	r24, 0x01FB	; 0x8001fb <pendIsr>
 30a:	90 91 fc 01 	lds	r25, 0x01FC	; 0x8001fc <pendIsr+0x1>
 30e:	81 60       	ori	r24, 0x01	; 1
 310:	90 93 fc 01 	sts	0x01FC, r25	; 0x8001fc <pendIsr+0x1>
 314:	80 93 fb 01 	sts	0x01FB, r24	; 0x8001fb <pendIsr>
 318:	08 95       	ret

0000031a <ISR_I2C_Send()>:
 31a:	f8 94       	cli
 31c:	80 91 fb 01 	lds	r24, 0x01FB	; 0x8001fb <pendIsr>
 320:	90 91 fc 01 	lds	r25, 0x01FC	; 0x8001fc <pendIsr+0x1>
 324:	82 60       	ori	r24, 0x02	; 2
 326:	90 93 fc 01 	sts	0x01FC, r25	; 0x8001fc <pendIsr+0x1>
 32a:	80 93 fb 01 	sts	0x01FB, r24	; 0x8001fb <pendIsr>
 32e:	08 95       	ret

00000330 <ClocklessController<(unsigned char)3, 2, 5, 3, (EOrder)10, 0, false, 10>::getMaxRefreshRate() const>:
 330:	80 e9       	ldi	r24, 0x90	; 144
 332:	91 e0       	ldi	r25, 0x01	; 1
 334:	08 95       	ret

00000336 <usiTwiReceiveByte>:
 336:	80 91 cd 00 	lds	r24, 0x00CD	; 0x8000cd <rxCount>
 33a:	88 23       	and	r24, r24
 33c:	e1 f3       	breq	.-8      	; 0x336 <usiTwiReceiveByte>
 33e:	e0 91 c7 00 	lds	r30, 0x00C7	; 0x8000c7 <rxTail>
 342:	f0 e0       	ldi	r31, 0x00	; 0
 344:	e8 57       	subi	r30, 0x78	; 120
 346:	ff 4f       	sbci	r31, 0xFF	; 255
 348:	80 81       	ld	r24, Z
 34a:	90 91 c7 00 	lds	r25, 0x00C7	; 0x8000c7 <rxTail>
 34e:	9f 5f       	subi	r25, 0xFF	; 255
 350:	9f 71       	andi	r25, 0x1F	; 31
 352:	90 93 c7 00 	sts	0x00C7, r25	; 0x8000c7 <rxTail>
 356:	90 91 cd 00 	lds	r25, 0x00CD	; 0x8000cd <rxCount>
 35a:	91 50       	subi	r25, 0x01	; 1
 35c:	90 93 cd 00 	sts	0x00CD, r25	; 0x8000cd <rxCount>
 360:	08 95       	ret

00000362 <PixelController<(EOrder)10, 1, 4294967295ul>::init_binary_dithering()>:
 362:	ef 92       	push	r14
 364:	ff 92       	push	r15
 366:	0f 93       	push	r16
 368:	1f 93       	push	r17
 36a:	cf 93       	push	r28
 36c:	df 93       	push	r29
 36e:	30 91 87 00 	lds	r19, 0x0087	; 0x800087 <PixelController<(EOrder)10, 1, 4294967295ul>::init_binary_dithering()::R>
 372:	3f 5f       	subi	r19, 0xFF	; 255
 374:	23 2f       	mov	r18, r19
 376:	27 70       	andi	r18, 0x07	; 7
 378:	20 93 87 00 	sts	0x0087, r18	; 0x800087 <PixelController<(EOrder)10, 1, 4294967295ul>::init_binary_dithering()::R>
 37c:	c0 e8       	ldi	r28, 0x80	; 128
 37e:	30 ff       	sbrs	r19, 0
 380:	c0 e0       	ldi	r28, 0x00	; 0
 382:	21 fd       	sbrc	r18, 1
 384:	c0 64       	ori	r28, 0x40	; 64
 386:	24 70       	andi	r18, 0x04	; 4
 388:	09 f0       	breq	.+2      	; 0x38c <PixelController<(EOrder)10, 1, 4294967295ul>::init_binary_dithering()+0x2a>
 38a:	c0 62       	ori	r28, 0x20	; 32
 38c:	c0 5f       	subi	r28, 0xF0	; 240
 38e:	fc 01       	movw	r30, r24
 390:	8c 01       	movw	r16, r24
 392:	0d 5f       	subi	r16, 0xFD	; 253
 394:	1f 4f       	sbci	r17, 0xFF	; 255
 396:	e1 2c       	mov	r14, r1
 398:	ff 24       	eor	r15, r15
 39a:	f3 94       	inc	r15
 39c:	d0 e0       	ldi	r29, 0x00	; 0
 39e:	24 85       	ldd	r18, Z+12	; 0x0c
 3a0:	22 23       	and	r18, r18
 3a2:	31 f0       	breq	.+12     	; 0x3b0 <PixelController<(EOrder)10, 1, 4294967295ul>::init_binary_dithering()+0x4e>
 3a4:	62 2f       	mov	r22, r18
 3a6:	70 e0       	ldi	r23, 0x00	; 0
 3a8:	c7 01       	movw	r24, r14
 3aa:	77 d5       	rcall	.+2798   	; 0xe9a <__divmodhi4>
 3ac:	21 e0       	ldi	r18, 0x01	; 1
 3ae:	26 0f       	add	r18, r22
 3b0:	21 87       	std	Z+9, r18	; 0x09
 3b2:	82 2f       	mov	r24, r18
 3b4:	90 e0       	ldi	r25, 0x00	; 0
 3b6:	01 96       	adiw	r24, 0x01	; 1
 3b8:	be 01       	movw	r22, r28
 3ba:	45 d5       	rcall	.+2698   	; 0xe46 <__mulhi3>
 3bc:	91 11       	cpse	r25, r1
 3be:	11 c0       	rjmp	.+34     	; 0x3e2 <PixelController<(EOrder)10, 1, 4294967295ul>::init_binary_dithering()+0x80>
 3c0:	16 82       	std	Z+6, r1	; 0x06
 3c2:	22 23       	and	r18, r18
 3c4:	19 f0       	breq	.+6      	; 0x3cc <PixelController<(EOrder)10, 1, 4294967295ul>::init_binary_dithering()+0x6a>
 3c6:	6f ef       	ldi	r22, 0xFF	; 255
 3c8:	62 0f       	add	r22, r18
 3ca:	61 87       	std	Z+9, r22	; 0x09
 3cc:	31 96       	adiw	r30, 0x01	; 1
 3ce:	0e 17       	cp	r16, r30
 3d0:	1f 07       	cpc	r17, r31
 3d2:	29 f7       	brne	.-54     	; 0x39e <PixelController<(EOrder)10, 1, 4294967295ul>::init_binary_dithering()+0x3c>
 3d4:	df 91       	pop	r29
 3d6:	cf 91       	pop	r28
 3d8:	1f 91       	pop	r17
 3da:	0f 91       	pop	r16
 3dc:	ff 90       	pop	r15
 3de:	ef 90       	pop	r14
 3e0:	08 95       	ret
 3e2:	91 50       	subi	r25, 0x01	; 1
 3e4:	96 83       	std	Z+6, r25	; 0x06
 3e6:	ed cf       	rjmp	.-38     	; 0x3c2 <PixelController<(EOrder)10, 1, 4294967295ul>::init_binary_dithering()+0x60>

000003e8 <ClocklessController<(unsigned char)3, 2, 5, 3, (EOrder)10, 0, false, 10>::showPixels(PixelController<(EOrder)10, 1, 4294967295ul>&)>:
 3e8:	4f 92       	push	r4
 3ea:	5f 92       	push	r5
 3ec:	7f 92       	push	r7
 3ee:	8f 92       	push	r8
 3f0:	9f 92       	push	r9
 3f2:	af 92       	push	r10
 3f4:	bf 92       	push	r11
 3f6:	cf 92       	push	r12
 3f8:	df 92       	push	r13
 3fa:	ef 92       	push	r14
 3fc:	ff 92       	push	r15
 3fe:	0f 93       	push	r16
 400:	1f 93       	push	r17
 402:	cf 93       	push	r28
 404:	df 93       	push	r29
 406:	2c 01       	movw	r4, r24
 408:	eb 01       	movw	r28, r22
 40a:	32 de       	rcall	.-924    	; 0x70 <micros>
 40c:	f2 01       	movw	r30, r4
 40e:	27 85       	ldd	r18, Z+15	; 0x0f
 410:	30 89       	ldd	r19, Z+16	; 0x10
 412:	62 1b       	sub	r22, r18
 414:	73 0b       	sbc	r23, r19
 416:	6a 30       	cpi	r22, 0x0A	; 10
 418:	71 05       	cpc	r23, r1
 41a:	b8 f3       	brcs	.-18     	; 0x40a <__LOCK_REGION_LENGTH__+0xa>
 41c:	f8 94       	cli
 41e:	8a 81       	ldd	r24, Y+2	; 0x02
 420:	9b 81       	ldd	r25, Y+3	; 0x03
 422:	18 16       	cp	r1, r24
 424:	19 06       	cpc	r1, r25
 426:	0c f0       	brlt	.+2      	; 0x42a <__LOCK_REGION_LENGTH__+0x2a>
 428:	40 c1       	rjmp	.+640    	; 0x6aa <L_3674>
 42a:	e8 81       	ld	r30, Y
 42c:	f9 81       	ldd	r31, Y+1	; 0x01
 42e:	6b b3       	in	r22, 0x1b	; 27
 430:	86 2e       	mov	r8, r22
 432:	68 94       	set
 434:	83 f8       	bld	r8, 3
 436:	3b b3       	in	r19, 0x1b	; 27
 438:	37 7f       	andi	r19, 0xF7	; 247
 43a:	3b bb       	out	0x1b, r19	; 27
 43c:	d9 84       	ldd	r13, Y+9	; 0x09
 43e:	8e 81       	ldd	r24, Y+6	; 0x06
 440:	2d 2d       	mov	r18, r13
 442:	28 1b       	sub	r18, r24
 444:	82 2f       	mov	r24, r18
 446:	2e 83       	std	Y+6, r18	; 0x06
 448:	4f 85       	ldd	r20, Y+15	; 0x0f
 44a:	04 2e       	mov	r0, r20
 44c:	00 0c       	add	r0, r0
 44e:	55 0b       	sbc	r21, r21
 450:	aa 81       	ldd	r26, Y+2	; 0x02
 452:	bb 81       	ldd	r27, Y+3	; 0x03
 454:	7c 85       	ldd	r23, Y+12	; 0x0c
 456:	fd 84       	ldd	r15, Y+13	; 0x0d
 458:	ee 84       	ldd	r14, Y+14	; 0x0e
 45a:	7f 5f       	subi	r23, 0xFF	; 255
 45c:	f3 94       	inc	r15
 45e:	e3 94       	inc	r14
 460:	9f 81       	ldd	r25, Y+7	; 0x07
 462:	98 84       	ldd	r9, Y+8	; 0x08
 464:	ba 84       	ldd	r11, Y+10	; 0x0a
 466:	ab 84       	ldd	r10, Y+11	; 0x0b
 468:	10 81       	ld	r17, Z
 46a:	c1 2c       	mov	r12, r1
 46c:	6c 2d       	mov	r22, r12
 46e:	0c 2d       	mov	r16, r12
 470:	2c 2d       	mov	r18, r12
 472:	20 81       	ld	r18, Z
 474:	11 27       	eor	r17, r17
 476:	88 94       	clc
 478:	21 11       	cpse	r18, r1
 47a:	28 0f       	add	r18, r24
 47c:	08 f4       	brcc	.+2      	; 0x480 <L_925>
 47e:	2f ef       	ldi	r18, 0xFF	; 255

00000480 <L_925>:
 480:	81 95       	neg	r24
 482:	88 94       	clc
 484:	70 fd       	sbrc	r23, 0
 486:	12 0f       	add	r17, r18
 488:	17 95       	ror	r17
 48a:	88 94       	clc
 48c:	71 fd       	sbrc	r23, 1
 48e:	12 0f       	add	r17, r18
 490:	17 95       	ror	r17
 492:	88 94       	clc
 494:	72 fd       	sbrc	r23, 2
 496:	12 0f       	add	r17, r18
 498:	17 95       	ror	r17
 49a:	88 94       	clc
 49c:	73 fd       	sbrc	r23, 3
 49e:	12 0f       	add	r17, r18
 4a0:	17 95       	ror	r17
 4a2:	88 94       	clc
 4a4:	74 fd       	sbrc	r23, 4
 4a6:	12 0f       	add	r17, r18
 4a8:	17 95       	ror	r17
 4aa:	88 94       	clc
 4ac:	75 fd       	sbrc	r23, 5
 4ae:	12 0f       	add	r17, r18
 4b0:	17 95       	ror	r17
 4b2:	88 94       	clc
 4b4:	76 fd       	sbrc	r23, 6
 4b6:	12 0f       	add	r17, r18
 4b8:	17 95       	ror	r17
 4ba:	88 94       	clc
 4bc:	77 fd       	sbrc	r23, 7
 4be:	12 0f       	add	r17, r18
 4c0:	17 95       	ror	r17
 4c2:	88 94       	clc
 4c4:	62 2f       	mov	r22, r18
 4c6:	71 11       	cpse	r23, r1
 4c8:	61 2f       	mov	r22, r17
 4ca:	8d 0d       	add	r24, r13
 4cc:	16 2f       	mov	r17, r22
 4ce:	00 2c       	mov	r0, r0
 4d0:	8b ba       	out	0x1b, r8	; 27
 4d2:	17 ff       	sbrs	r17, 7
 4d4:	3b bb       	out	0x1b, r19	; 27
 4d6:	21 81       	ldd	r18, Z+1	; 0x01
 4d8:	66 27       	eor	r22, r22
 4da:	88 94       	clc
 4dc:	3b bb       	out	0x1b, r19	; 27
 4de:	21 11       	cpse	r18, r1
 4e0:	29 0f       	add	r18, r25
 4e2:	8b ba       	out	0x1b, r8	; 27
 4e4:	16 ff       	sbrs	r17, 6
 4e6:	3b bb       	out	0x1b, r19	; 27
 4e8:	08 f4       	brcc	.+2      	; 0x4ec <L_1401>
 4ea:	2f ef       	ldi	r18, 0xFF	; 255

000004ec <L_1401>:
 4ec:	91 95       	neg	r25
 4ee:	88 94       	clc
 4f0:	3b bb       	out	0x1b, r19	; 27
 4f2:	f0 fc       	sbrc	r15, 0
 4f4:	62 0f       	add	r22, r18
 4f6:	8b ba       	out	0x1b, r8	; 27
 4f8:	15 ff       	sbrs	r17, 5
 4fa:	3b bb       	out	0x1b, r19	; 27
 4fc:	67 95       	ror	r22
 4fe:	88 94       	clc
 500:	f1 fc       	sbrc	r15, 1
 502:	62 0f       	add	r22, r18
 504:	3b bb       	out	0x1b, r19	; 27
 506:	67 95       	ror	r22
 508:	88 94       	clc
 50a:	8b ba       	out	0x1b, r8	; 27
 50c:	14 ff       	sbrs	r17, 4
 50e:	3b bb       	out	0x1b, r19	; 27
 510:	f2 fc       	sbrc	r15, 2
 512:	62 0f       	add	r22, r18
 514:	67 95       	ror	r22
 516:	88 94       	clc
 518:	3b bb       	out	0x1b, r19	; 27
 51a:	f3 fc       	sbrc	r15, 3
 51c:	62 0f       	add	r22, r18
 51e:	8b ba       	out	0x1b, r8	; 27
 520:	13 ff       	sbrs	r17, 3
 522:	3b bb       	out	0x1b, r19	; 27
 524:	67 95       	ror	r22
 526:	88 94       	clc
 528:	f4 fc       	sbrc	r15, 4
 52a:	62 0f       	add	r22, r18
 52c:	3b bb       	out	0x1b, r19	; 27
 52e:	67 95       	ror	r22
 530:	88 94       	clc
 532:	8b ba       	out	0x1b, r8	; 27
 534:	12 ff       	sbrs	r17, 2
 536:	3b bb       	out	0x1b, r19	; 27
 538:	f5 fc       	sbrc	r15, 5
 53a:	62 0f       	add	r22, r18
 53c:	67 95       	ror	r22
 53e:	88 94       	clc
 540:	3b bb       	out	0x1b, r19	; 27
 542:	f6 fc       	sbrc	r15, 6
 544:	62 0f       	add	r22, r18
 546:	8b ba       	out	0x1b, r8	; 27
 548:	11 ff       	sbrs	r17, 1
 54a:	3b bb       	out	0x1b, r19	; 27
 54c:	67 95       	ror	r22
 54e:	88 94       	clc
 550:	f7 fc       	sbrc	r15, 7
 552:	62 0f       	add	r22, r18
 554:	3b bb       	out	0x1b, r19	; 27
 556:	67 95       	ror	r22
 558:	88 94       	clc
 55a:	8b ba       	out	0x1b, r8	; 27
 55c:	10 ff       	sbrs	r17, 0
 55e:	3b bb       	out	0x1b, r19	; 27
 560:	12 2f       	mov	r17, r18
 562:	f1 10       	cpse	r15, r1
 564:	16 2f       	mov	r17, r22
 566:	9b 0d       	add	r25, r11
 568:	3b bb       	out	0x1b, r19	; 27
 56a:	00 c0       	rjmp	.+0      	; 0x56c <L_1401+0x80>
 56c:	8b ba       	out	0x1b, r8	; 27
 56e:	17 ff       	sbrs	r17, 7
 570:	3b bb       	out	0x1b, r19	; 27
 572:	22 81       	ldd	r18, Z+2	; 0x02
 574:	66 27       	eor	r22, r22
 576:	88 94       	clc
 578:	3b bb       	out	0x1b, r19	; 27
 57a:	21 11       	cpse	r18, r1
 57c:	29 0d       	add	r18, r9
 57e:	8b ba       	out	0x1b, r8	; 27
 580:	16 ff       	sbrs	r17, 6
 582:	3b bb       	out	0x1b, r19	; 27
 584:	08 f4       	brcc	.+2      	; 0x588 <L_2206>
 586:	2f ef       	ldi	r18, 0xFF	; 255

00000588 <L_2206>:
 588:	e4 0f       	add	r30, r20
 58a:	f5 1f       	adc	r31, r21
 58c:	3b bb       	out	0x1b, r19	; 27
 58e:	e0 fc       	sbrc	r14, 0
 590:	62 0f       	add	r22, r18
 592:	8b ba       	out	0x1b, r8	; 27
 594:	15 ff       	sbrs	r17, 5
 596:	3b bb       	out	0x1b, r19	; 27
 598:	67 95       	ror	r22
 59a:	88 94       	clc
 59c:	e1 fc       	sbrc	r14, 1
 59e:	62 0f       	add	r22, r18
 5a0:	3b bb       	out	0x1b, r19	; 27
 5a2:	67 95       	ror	r22
 5a4:	88 94       	clc
 5a6:	8b ba       	out	0x1b, r8	; 27
 5a8:	14 ff       	sbrs	r17, 4
 5aa:	3b bb       	out	0x1b, r19	; 27
 5ac:	e2 fc       	sbrc	r14, 2
 5ae:	62 0f       	add	r22, r18
 5b0:	67 95       	ror	r22
 5b2:	88 94       	clc
 5b4:	3b bb       	out	0x1b, r19	; 27
 5b6:	e3 fc       	sbrc	r14, 3
 5b8:	62 0f       	add	r22, r18
 5ba:	8b ba       	out	0x1b, r8	; 27
 5bc:	13 ff       	sbrs	r17, 3
 5be:	3b bb       	out	0x1b, r19	; 27
 5c0:	67 95       	ror	r22
 5c2:	88 94       	clc
 5c4:	e4 fc       	sbrc	r14, 4
 5c6:	62 0f       	add	r22, r18
 5c8:	3b bb       	out	0x1b, r19	; 27
 5ca:	67 95       	ror	r22
 5cc:	88 94       	clc
 5ce:	8b ba       	out	0x1b, r8	; 27
 5d0:	12 ff       	sbrs	r17, 2
 5d2:	3b bb       	out	0x1b, r19	; 27
 5d4:	e5 fc       	sbrc	r14, 5
 5d6:	62 0f       	add	r22, r18
 5d8:	67 95       	ror	r22
 5da:	88 94       	clc
 5dc:	3b bb       	out	0x1b, r19	; 27
 5de:	e6 fc       	sbrc	r14, 6
 5e0:	62 0f       	add	r22, r18
 5e2:	8b ba       	out	0x1b, r8	; 27
 5e4:	11 ff       	sbrs	r17, 1
 5e6:	3b bb       	out	0x1b, r19	; 27
 5e8:	67 95       	ror	r22
 5ea:	88 94       	clc
 5ec:	e7 fc       	sbrc	r14, 7
 5ee:	62 0f       	add	r22, r18
 5f0:	3b bb       	out	0x1b, r19	; 27
 5f2:	67 95       	ror	r22
 5f4:	88 94       	clc
 5f6:	8b ba       	out	0x1b, r8	; 27
 5f8:	10 ff       	sbrs	r17, 0
 5fa:	3b bb       	out	0x1b, r19	; 27
 5fc:	12 2f       	mov	r17, r18
 5fe:	e1 10       	cpse	r14, r1
 600:	16 2f       	mov	r17, r22
 602:	91 94       	neg	r9
 604:	3b bb       	out	0x1b, r19	; 27
 606:	9a 0c       	add	r9, r10
 608:	00 2c       	mov	r0, r0
 60a:	8b ba       	out	0x1b, r8	; 27
 60c:	17 ff       	sbrs	r17, 7
 60e:	3b bb       	out	0x1b, r19	; 27
 610:	20 81       	ld	r18, Z
 612:	66 27       	eor	r22, r22
 614:	88 94       	clc
 616:	3b bb       	out	0x1b, r19	; 27
 618:	21 11       	cpse	r18, r1
 61a:	28 0f       	add	r18, r24
 61c:	8b ba       	out	0x1b, r8	; 27
 61e:	16 ff       	sbrs	r17, 6
 620:	3b bb       	out	0x1b, r19	; 27
 622:	08 f4       	brcc	.+2      	; 0x626 <L_3028>
 624:	2f ef       	ldi	r18, 0xFF	; 255

00000626 <L_3028>:
 626:	81 95       	neg	r24
 628:	88 94       	clc
 62a:	3b bb       	out	0x1b, r19	; 27
 62c:	70 fd       	sbrc	r23, 0
 62e:	62 0f       	add	r22, r18
 630:	8b ba       	out	0x1b, r8	; 27
 632:	15 ff       	sbrs	r17, 5
 634:	3b bb       	out	0x1b, r19	; 27
 636:	67 95       	ror	r22
 638:	88 94       	clc
 63a:	71 fd       	sbrc	r23, 1
 63c:	62 0f       	add	r22, r18
 63e:	3b bb       	out	0x1b, r19	; 27
 640:	67 95       	ror	r22
 642:	88 94       	clc
 644:	8b ba       	out	0x1b, r8	; 27
 646:	14 ff       	sbrs	r17, 4
 648:	3b bb       	out	0x1b, r19	; 27
 64a:	72 fd       	sbrc	r23, 2
 64c:	62 0f       	add	r22, r18
 64e:	67 95       	ror	r22
 650:	88 94       	clc
 652:	3b bb       	out	0x1b, r19	; 27
 654:	73 fd       	sbrc	r23, 3
 656:	62 0f       	add	r22, r18
 658:	8b ba       	out	0x1b, r8	; 27
 65a:	13 ff       	sbrs	r17, 3
 65c:	3b bb       	out	0x1b, r19	; 27
 65e:	67 95       	ror	r22
 660:	88 94       	clc
 662:	74 fd       	sbrc	r23, 4
 664:	62 0f       	add	r22, r18
 666:	3b bb       	out	0x1b, r19	; 27
 668:	67 95       	ror	r22
 66a:	88 94       	clc
 66c:	8b ba       	out	0x1b, r8	; 27
 66e:	12 ff       	sbrs	r17, 2
 670:	3b bb       	out	0x1b, r19	; 27
 672:	75 fd       	sbrc	r23, 5
 674:	62 0f       	add	r22, r18
 676:	67 95       	ror	r22
 678:	88 94       	clc
 67a:	3b bb       	out	0x1b, r19	; 27
 67c:	76 fd       	sbrc	r23, 6
 67e:	62 0f       	add	r22, r18
 680:	8b ba       	out	0x1b, r8	; 27
 682:	11 ff       	sbrs	r17, 1
 684:	3b bb       	out	0x1b, r19	; 27
 686:	67 95       	ror	r22
 688:	88 94       	clc
 68a:	77 fd       	sbrc	r23, 7
 68c:	62 0f       	add	r22, r18
 68e:	3b bb       	out	0x1b, r19	; 27
 690:	67 95       	ror	r22
 692:	88 94       	clc
 694:	8b ba       	out	0x1b, r8	; 27
 696:	10 ff       	sbrs	r17, 0
 698:	3b bb       	out	0x1b, r19	; 27
 69a:	12 2f       	mov	r17, r18
 69c:	71 11       	cpse	r23, r1
 69e:	16 2f       	mov	r17, r22
 6a0:	8d 0d       	add	r24, r13
 6a2:	3b bb       	out	0x1b, r19	; 27
 6a4:	11 97       	sbiw	r26, 0x01	; 1
 6a6:	09 f0       	breq	.+2      	; 0x6aa <L_3674>
 6a8:	13 cf       	rjmp	.-474    	; 0x4d0 <L_925+0x50>

000006aa <L_3674>:
 6aa:	0a 80       	ldd	r0, Y+2	; 0x02
 6ac:	db 81       	ldd	r29, Y+3	; 0x03
 6ae:	c0 2d       	mov	r28, r0
 6b0:	be 01       	movw	r22, r28
 6b2:	0d 2e       	mov	r0, r29
 6b4:	00 0c       	add	r0, r0
 6b6:	88 0b       	sbc	r24, r24
 6b8:	99 0b       	sbc	r25, r25
 6ba:	20 ef       	ldi	r18, 0xF0	; 240
 6bc:	30 e0       	ldi	r19, 0x00	; 0
 6be:	40 e0       	ldi	r20, 0x00	; 0
 6c0:	50 e0       	ldi	r21, 0x00	; 0
 6c2:	d2 d3       	rcall	.+1956   	; 0xe68 <__mulsi3>
 6c4:	6b 01       	movw	r12, r22
 6c6:	7c 01       	movw	r14, r24
 6c8:	f3 e0       	ldi	r31, 0x03	; 3
 6ca:	f6 94       	lsr	r15
 6cc:	e7 94       	ror	r14
 6ce:	d7 94       	ror	r13
 6d0:	c7 94       	ror	r12
 6d2:	fa 95       	dec	r31
 6d4:	d1 f7       	brne	.-12     	; 0x6ca <L_3674+0x20>
 6d6:	ce 01       	movw	r24, r28
 6d8:	6b e9       	ldi	r22, 0x9B	; 155
 6da:	70 e0       	ldi	r23, 0x00	; 0
 6dc:	b4 d3       	rcall	.+1896   	; 0xe46 <__mulhi3>
 6de:	29 2f       	mov	r18, r25
 6e0:	30 e0       	ldi	r19, 0x00	; 0
 6e2:	c9 01       	movw	r24, r18
 6e4:	b0 e0       	ldi	r27, 0x00	; 0
 6e6:	a0 e0       	ldi	r26, 0x00	; 0
 6e8:	88 0f       	add	r24, r24
 6ea:	99 1f       	adc	r25, r25
 6ec:	aa 1f       	adc	r26, r26
 6ee:	bb 1f       	adc	r27, r27
 6f0:	8c 0d       	add	r24, r12
 6f2:	9d 1d       	adc	r25, r13
 6f4:	ae 1d       	adc	r26, r14
 6f6:	bf 1d       	adc	r27, r15
 6f8:	89 3e       	cpi	r24, 0xE9	; 233
 6fa:	63 e0       	ldi	r22, 0x03	; 3
 6fc:	96 07       	cpc	r25, r22
 6fe:	a1 05       	cpc	r26, r1
 700:	b1 05       	cpc	r27, r1
 702:	90 f1       	brcs	.+100    	; 0x768 <L_3674+0xbe>
 704:	88 5e       	subi	r24, 0xE8	; 232
 706:	93 40       	sbci	r25, 0x03	; 3
 708:	a1 09       	sbc	r26, r1
 70a:	b1 09       	sbc	r27, r1
 70c:	22 e0       	ldi	r18, 0x02	; 2
 70e:	b6 95       	lsr	r27
 710:	a7 95       	ror	r26
 712:	97 95       	ror	r25
 714:	87 95       	ror	r24
 716:	2a 95       	dec	r18
 718:	d1 f7       	brne	.-12     	; 0x70e <L_3674+0x64>
 71a:	9c 01       	movw	r18, r24
 71c:	43 e0       	ldi	r20, 0x03	; 3
 71e:	22 0f       	add	r18, r18
 720:	33 1f       	adc	r19, r19
 722:	4a 95       	dec	r20
 724:	e1 f7       	brne	.-8      	; 0x71e <L_3674+0x74>
 726:	23 2f       	mov	r18, r19
 728:	33 27       	eor	r19, r19
 72a:	60 91 86 00 	lds	r22, 0x0086	; 0x800086 <__data_end>
 72e:	70 e0       	ldi	r23, 0x00	; 0
 730:	86 0f       	add	r24, r22
 732:	97 1f       	adc	r25, r23
 734:	82 0f       	add	r24, r18
 736:	93 1f       	adc	r25, r19
 738:	40 91 02 02 	lds	r20, 0x0202	; 0x800202 <millis_timer_millis>
 73c:	50 91 03 02 	lds	r21, 0x0203	; 0x800203 <millis_timer_millis+0x1>
 740:	60 91 04 02 	lds	r22, 0x0204	; 0x800204 <millis_timer_millis+0x2>
 744:	70 91 05 02 	lds	r23, 0x0205	; 0x800205 <millis_timer_millis+0x3>
 748:	29 2f       	mov	r18, r25
 74a:	33 27       	eor	r19, r19
 74c:	42 0f       	add	r20, r18
 74e:	53 1f       	adc	r21, r19
 750:	61 1d       	adc	r22, r1
 752:	71 1d       	adc	r23, r1
 754:	40 93 02 02 	sts	0x0202, r20	; 0x800202 <millis_timer_millis>
 758:	50 93 03 02 	sts	0x0203, r21	; 0x800203 <millis_timer_millis+0x1>
 75c:	60 93 04 02 	sts	0x0204, r22	; 0x800204 <millis_timer_millis+0x2>
 760:	70 93 05 02 	sts	0x0205, r23	; 0x800205 <millis_timer_millis+0x3>
 764:	80 93 86 00 	sts	0x0086, r24	; 0x800086 <__data_end>
 768:	78 94       	sei
 76a:	82 dc       	rcall	.-1788   	; 0x70 <micros>
 76c:	f2 01       	movw	r30, r4
 76e:	70 8b       	std	Z+16, r23	; 0x10
 770:	67 87       	std	Z+15, r22	; 0x0f
 772:	df 91       	pop	r29
 774:	cf 91       	pop	r28
 776:	1f 91       	pop	r17
 778:	0f 91       	pop	r16
 77a:	ff 90       	pop	r15
 77c:	ef 90       	pop	r14
 77e:	df 90       	pop	r13
 780:	cf 90       	pop	r12
 782:	bf 90       	pop	r11
 784:	af 90       	pop	r10
 786:	9f 90       	pop	r9
 788:	8f 90       	pop	r8
 78a:	7f 90       	pop	r7
 78c:	5f 90       	pop	r5
 78e:	4f 90       	pop	r4
 790:	08 95       	ret

00000792 <CLEDController::lanes()>:
 792:	81 e0       	ldi	r24, 0x01	; 1
 794:	90 e0       	ldi	r25, 0x00	; 0
 796:	08 95       	ret

00000798 <ClocklessController<(unsigned char)3, 2, 5, 3, (EOrder)10, 0, false, 10>::init()>:
 798:	d3 9a       	sbi	0x1a, 3	; 26
 79a:	08 95       	ret

0000079c <CPixelLEDController<(EOrder)10, 1, 4294967295ul>::show(CRGB const*, int, CRGB)>:
 79c:	6f 92       	push	r6
 79e:	7f 92       	push	r7
 7a0:	8f 92       	push	r8
 7a2:	cf 92       	push	r12
 7a4:	df 92       	push	r13
 7a6:	ef 92       	push	r14
 7a8:	ff 92       	push	r15
 7aa:	0f 93       	push	r16
 7ac:	1f 93       	push	r17
 7ae:	cf 93       	push	r28
 7b0:	df 93       	push	r29
 7b2:	cd b7       	in	r28, 0x3d	; 61
 7b4:	de b7       	in	r29, 0x3e	; 62
 7b6:	62 97       	sbiw	r28, 0x12	; 18
 7b8:	0f b6       	in	r0, 0x3f	; 63
 7ba:	f8 94       	cli
 7bc:	de bf       	out	0x3e, r29	; 62
 7be:	0f be       	out	0x3f, r0	; 63
 7c0:	cd bf       	out	0x3d, r28	; 61
 7c2:	6c 01       	movw	r12, r24
 7c4:	7a 01       	movw	r14, r20
 7c6:	38 01       	movw	r6, r16
 7c8:	82 2e       	mov	r8, r18
 7ca:	dc 01       	movw	r26, r24
 7cc:	1c 96       	adiw	r26, 0x0c	; 12
 7ce:	2c 91       	ld	r18, X
 7d0:	ca 01       	movw	r24, r20
 7d2:	57 ff       	sbrs	r21, 7
 7d4:	04 c0       	rjmp	.+8      	; 0x7de <CPixelLEDController<(EOrder)10, 1, 4294967295ul>::show(CRGB const*, int, CRGB)+0x42>
 7d6:	88 27       	eor	r24, r24
 7d8:	99 27       	eor	r25, r25
 7da:	84 1b       	sub	r24, r20
 7dc:	95 0b       	sbc	r25, r21
 7de:	7a 83       	std	Y+2, r23	; 0x02
 7e0:	69 83       	std	Y+1, r22	; 0x01
 7e2:	9c 83       	std	Y+4, r25	; 0x04
 7e4:	8b 83       	std	Y+3, r24	; 0x03
 7e6:	9e 83       	std	Y+6, r25	; 0x06
 7e8:	8d 83       	std	Y+5, r24	; 0x05
 7ea:	6d 86       	std	Y+13, r6	; 0x0d
 7ec:	7e 86       	std	Y+14, r7	; 0x0e
 7ee:	8f 86       	std	Y+15, r8	; 0x0f
 7f0:	21 30       	cpi	r18, 0x01	; 1
 7f2:	41 f5       	brne	.+80     	; 0x844 <CPixelLEDController<(EOrder)10, 1, 4294967295ul>::show(CRGB const*, int, CRGB)+0xa8>
 7f4:	ce 01       	movw	r24, r28
 7f6:	01 96       	adiw	r24, 0x01	; 1
 7f8:	b4 dd       	rcall	.-1176   	; 0x362 <PixelController<(EOrder)10, 1, 4294967295ul>::init_binary_dithering()>
 7fa:	83 e0       	ldi	r24, 0x03	; 3
 7fc:	88 8b       	std	Y+16, r24	; 0x10
 7fe:	1a 8a       	std	Y+18, r1	; 0x12
 800:	19 8a       	std	Y+17, r1	; 0x11
 802:	f7 fe       	sbrs	r15, 7
 804:	02 c0       	rjmp	.+4      	; 0x80a <CPixelLEDController<(EOrder)10, 1, 4294967295ul>::show(CRGB const*, int, CRGB)+0x6e>
 806:	8d ef       	ldi	r24, 0xFD	; 253
 808:	88 8b       	std	Y+16, r24	; 0x10
 80a:	d6 01       	movw	r26, r12
 80c:	ed 91       	ld	r30, X+
 80e:	fc 91       	ld	r31, X
 810:	06 84       	ldd	r0, Z+14	; 0x0e
 812:	f7 85       	ldd	r31, Z+15	; 0x0f
 814:	e0 2d       	mov	r30, r0
 816:	be 01       	movw	r22, r28
 818:	6f 5f       	subi	r22, 0xFF	; 255
 81a:	7f 4f       	sbci	r23, 0xFF	; 255
 81c:	c6 01       	movw	r24, r12
 81e:	09 95       	icall
 820:	62 96       	adiw	r28, 0x12	; 18
 822:	0f b6       	in	r0, 0x3f	; 63
 824:	f8 94       	cli
 826:	de bf       	out	0x3e, r29	; 62
 828:	0f be       	out	0x3f, r0	; 63
 82a:	cd bf       	out	0x3d, r28	; 61
 82c:	df 91       	pop	r29
 82e:	cf 91       	pop	r28
 830:	1f 91       	pop	r17
 832:	0f 91       	pop	r16
 834:	ff 90       	pop	r15
 836:	ef 90       	pop	r14
 838:	df 90       	pop	r13
 83a:	cf 90       	pop	r12
 83c:	8f 90       	pop	r8
 83e:	7f 90       	pop	r7
 840:	6f 90       	pop	r6
 842:	08 95       	ret
 844:	1c 86       	std	Y+12, r1	; 0x0c
 846:	1b 86       	std	Y+11, r1	; 0x0b
 848:	1a 86       	std	Y+10, r1	; 0x0a
 84a:	19 86       	std	Y+9, r1	; 0x09
 84c:	18 86       	std	Y+8, r1	; 0x08
 84e:	1f 82       	std	Y+7, r1	; 0x07
 850:	d4 cf       	rjmp	.-88     	; 0x7fa <CPixelLEDController<(EOrder)10, 1, 4294967295ul>::show(CRGB const*, int, CRGB)+0x5e>

00000852 <CPixelLEDController<(EOrder)10, 1, 4294967295ul>::showColor(CRGB const&, int, CRGB)>:
 852:	ef 92       	push	r14
 854:	ff 92       	push	r15
 856:	0f 93       	push	r16
 858:	1f 93       	push	r17
 85a:	cf 93       	push	r28
 85c:	df 93       	push	r29
 85e:	cd b7       	in	r28, 0x3d	; 61
 860:	de b7       	in	r29, 0x3e	; 62
 862:	62 97       	sbiw	r28, 0x12	; 18
 864:	0f b6       	in	r0, 0x3f	; 63
 866:	f8 94       	cli
 868:	de bf       	out	0x3e, r29	; 62
 86a:	0f be       	out	0x3f, r0	; 63
 86c:	cd bf       	out	0x3d, r28	; 61
 86e:	7c 01       	movw	r14, r24
 870:	dc 01       	movw	r26, r24
 872:	1c 96       	adiw	r26, 0x0c	; 12
 874:	8c 91       	ld	r24, X
 876:	7a 83       	std	Y+2, r23	; 0x02
 878:	69 83       	std	Y+1, r22	; 0x01
 87a:	5c 83       	std	Y+4, r21	; 0x04
 87c:	4b 83       	std	Y+3, r20	; 0x03
 87e:	5e 83       	std	Y+6, r21	; 0x06
 880:	4d 83       	std	Y+5, r20	; 0x05
 882:	0d 87       	std	Y+13, r16	; 0x0d
 884:	1e 87       	std	Y+14, r17	; 0x0e
 886:	2f 87       	std	Y+15, r18	; 0x0f
 888:	81 30       	cpi	r24, 0x01	; 1
 88a:	f1 f4       	brne	.+60     	; 0x8c8 <CPixelLEDController<(EOrder)10, 1, 4294967295ul>::showColor(CRGB const&, int, CRGB)+0x76>
 88c:	ce 01       	movw	r24, r28
 88e:	01 96       	adiw	r24, 0x01	; 1
 890:	68 dd       	rcall	.-1328   	; 0x362 <PixelController<(EOrder)10, 1, 4294967295ul>::init_binary_dithering()>
 892:	18 8a       	std	Y+16, r1	; 0x10
 894:	1a 8a       	std	Y+18, r1	; 0x12
 896:	19 8a       	std	Y+17, r1	; 0x11
 898:	d7 01       	movw	r26, r14
 89a:	ed 91       	ld	r30, X+
 89c:	fc 91       	ld	r31, X
 89e:	06 84       	ldd	r0, Z+14	; 0x0e
 8a0:	f7 85       	ldd	r31, Z+15	; 0x0f
 8a2:	e0 2d       	mov	r30, r0
 8a4:	be 01       	movw	r22, r28
 8a6:	6f 5f       	subi	r22, 0xFF	; 255
 8a8:	7f 4f       	sbci	r23, 0xFF	; 255
 8aa:	c7 01       	movw	r24, r14
 8ac:	09 95       	icall
 8ae:	62 96       	adiw	r28, 0x12	; 18
 8b0:	0f b6       	in	r0, 0x3f	; 63
 8b2:	f8 94       	cli
 8b4:	de bf       	out	0x3e, r29	; 62
 8b6:	0f be       	out	0x3f, r0	; 63
 8b8:	cd bf       	out	0x3d, r28	; 61
 8ba:	df 91       	pop	r29
 8bc:	cf 91       	pop	r28
 8be:	1f 91       	pop	r17
 8c0:	0f 91       	pop	r16
 8c2:	ff 90       	pop	r15
 8c4:	ef 90       	pop	r14
 8c6:	08 95       	ret
 8c8:	1c 86       	std	Y+12, r1	; 0x0c
 8ca:	1b 86       	std	Y+11, r1	; 0x0b
 8cc:	1a 86       	std	Y+10, r1	; 0x0a
 8ce:	19 86       	std	Y+9, r1	; 0x09
 8d0:	18 86       	std	Y+8, r1	; 0x08
 8d2:	1f 82       	std	Y+7, r1	; 0x07
 8d4:	de cf       	rjmp	.-68     	; 0x892 <CPixelLEDController<(EOrder)10, 1, 4294967295ul>::showColor(CRGB const&, int, CRGB)+0x40>

000008d6 <CLEDController::getMaxRefreshRate() const>:
 8d6:	90 e0       	ldi	r25, 0x00	; 0
 8d8:	80 e0       	ldi	r24, 0x00	; 0
 8da:	08 95       	ret

000008dc <CLEDController::size()>:
 8dc:	fc 01       	movw	r30, r24
 8de:	85 85       	ldd	r24, Z+13	; 0x0d
 8e0:	96 85       	ldd	r25, Z+14	; 0x0e
 8e2:	08 95       	ret

000008e4 <CLEDController::clearLeds(int)>:
 8e4:	0f 93       	push	r16
 8e6:	1f 93       	push	r17
 8e8:	cf 93       	push	r28
 8ea:	df 93       	push	r29
 8ec:	00 d0       	rcall	.+0      	; 0x8ee <CLEDController::clearLeds(int)+0xa>
 8ee:	1f 92       	push	r1
 8f0:	cd b7       	in	r28, 0x3d	; 61
 8f2:	de b7       	in	r29, 0x3e	; 62
 8f4:	ab 01       	movw	r20, r22
 8f6:	19 82       	std	Y+1, r1	; 0x01
 8f8:	1a 82       	std	Y+2, r1	; 0x02
 8fa:	1b 82       	std	Y+3, r1	; 0x03
 8fc:	dc 01       	movw	r26, r24
 8fe:	ed 91       	ld	r30, X+
 900:	fc 91       	ld	r31, X
 902:	01 90       	ld	r0, Z+
 904:	f0 81       	ld	r31, Z
 906:	e0 2d       	mov	r30, r0
 908:	00 e0       	ldi	r16, 0x00	; 0
 90a:	10 e0       	ldi	r17, 0x00	; 0
 90c:	20 e0       	ldi	r18, 0x00	; 0
 90e:	be 01       	movw	r22, r28
 910:	6f 5f       	subi	r22, 0xFF	; 255
 912:	7f 4f       	sbci	r23, 0xFF	; 255
 914:	09 95       	icall
 916:	0f 90       	pop	r0
 918:	0f 90       	pop	r0
 91a:	0f 90       	pop	r0
 91c:	df 91       	pop	r29
 91e:	cf 91       	pop	r28
 920:	1f 91       	pop	r17
 922:	0f 91       	pop	r16
 924:	08 95       	ret

00000926 <__cxa_pure_virtual>:
 926:	08 d3       	rcall	.+1552   	; 0xf38 <abort>

00000928 <__vector_11>:
 928:	1f 92       	push	r1
 92a:	0f 92       	push	r0
 92c:	0f b6       	in	r0, 0x3f	; 63
 92e:	0f 92       	push	r0
 930:	11 24       	eor	r1, r1
 932:	2f 93       	push	r18
 934:	3f 93       	push	r19
 936:	8f 93       	push	r24
 938:	9f 93       	push	r25
 93a:	af 93       	push	r26
 93c:	bf 93       	push	r27
 93e:	80 91 02 02 	lds	r24, 0x0202	; 0x800202 <millis_timer_millis>
 942:	90 91 03 02 	lds	r25, 0x0203	; 0x800203 <millis_timer_millis+0x1>
 946:	a0 91 04 02 	lds	r26, 0x0204	; 0x800204 <millis_timer_millis+0x2>
 94a:	b0 91 05 02 	lds	r27, 0x0205	; 0x800205 <millis_timer_millis+0x3>
 94e:	30 91 fd 01 	lds	r19, 0x01FD	; 0x8001fd <millis_timer_fract>
 952:	26 e0       	ldi	r18, 0x06	; 6
 954:	23 0f       	add	r18, r19
 956:	2d 37       	cpi	r18, 0x7D	; 125
 958:	68 f1       	brcs	.+90     	; 0x9b4 <__vector_11+0x8c>
 95a:	29 e8       	ldi	r18, 0x89	; 137
 95c:	23 0f       	add	r18, r19
 95e:	03 96       	adiw	r24, 0x03	; 3
 960:	a1 1d       	adc	r26, r1
 962:	b1 1d       	adc	r27, r1
 964:	20 93 fd 01 	sts	0x01FD, r18	; 0x8001fd <millis_timer_fract>
 968:	80 93 02 02 	sts	0x0202, r24	; 0x800202 <millis_timer_millis>
 96c:	90 93 03 02 	sts	0x0203, r25	; 0x800203 <millis_timer_millis+0x1>
 970:	a0 93 04 02 	sts	0x0204, r26	; 0x800204 <millis_timer_millis+0x2>
 974:	b0 93 05 02 	sts	0x0205, r27	; 0x800205 <millis_timer_millis+0x3>
 978:	80 91 fe 01 	lds	r24, 0x01FE	; 0x8001fe <millis_timer_overflow_count>
 97c:	90 91 ff 01 	lds	r25, 0x01FF	; 0x8001ff <millis_timer_overflow_count+0x1>
 980:	a0 91 00 02 	lds	r26, 0x0200	; 0x800200 <millis_timer_overflow_count+0x2>
 984:	b0 91 01 02 	lds	r27, 0x0201	; 0x800201 <millis_timer_overflow_count+0x3>
 988:	01 96       	adiw	r24, 0x01	; 1
 98a:	a1 1d       	adc	r26, r1
 98c:	b1 1d       	adc	r27, r1
 98e:	80 93 fe 01 	sts	0x01FE, r24	; 0x8001fe <millis_timer_overflow_count>
 992:	90 93 ff 01 	sts	0x01FF, r25	; 0x8001ff <millis_timer_overflow_count+0x1>
 996:	a0 93 00 02 	sts	0x0200, r26	; 0x800200 <millis_timer_overflow_count+0x2>
 99a:	b0 93 01 02 	sts	0x0201, r27	; 0x800201 <millis_timer_overflow_count+0x3>
 99e:	bf 91       	pop	r27
 9a0:	af 91       	pop	r26
 9a2:	9f 91       	pop	r25
 9a4:	8f 91       	pop	r24
 9a6:	3f 91       	pop	r19
 9a8:	2f 91       	pop	r18
 9aa:	0f 90       	pop	r0
 9ac:	0f be       	out	0x3f, r0	; 63
 9ae:	0f 90       	pop	r0
 9b0:	1f 90       	pop	r1
 9b2:	18 95       	reti
 9b4:	02 96       	adiw	r24, 0x02	; 2
 9b6:	a1 1d       	adc	r26, r1
 9b8:	b1 1d       	adc	r27, r1
 9ba:	d4 cf       	rjmp	.-88     	; 0x964 <__vector_11+0x3c>

000009bc <__vector_16>:
 9bc:	1f 92       	push	r1
 9be:	0f 92       	push	r0
 9c0:	0f b6       	in	r0, 0x3f	; 63
 9c2:	0f 92       	push	r0
 9c4:	11 24       	eor	r1, r1
 9c6:	2f 93       	push	r18
 9c8:	3f 93       	push	r19
 9ca:	4f 93       	push	r20
 9cc:	5f 93       	push	r21
 9ce:	6f 93       	push	r22
 9d0:	7f 93       	push	r23
 9d2:	8f 93       	push	r24
 9d4:	9f 93       	push	r25
 9d6:	af 93       	push	r26
 9d8:	bf 93       	push	r27
 9da:	ef 93       	push	r30
 9dc:	ff 93       	push	r31
 9de:	80 91 a8 00 	lds	r24, 0x00A8	; 0x8000a8 <overflowState>
 9e2:	90 91 a9 00 	lds	r25, 0x00A9	; 0x8000a9 <overflowState+0x1>
 9e6:	82 30       	cpi	r24, 0x02	; 2
 9e8:	91 05       	cpc	r25, r1
 9ea:	09 f4       	brne	.+2      	; 0x9ee <__vector_16+0x32>
 9ec:	8b c0       	rjmp	.+278    	; 0xb04 <__vector_16+0x148>
 9ee:	b0 f4       	brcc	.+44     	; 0xa1c <__vector_16+0x60>
 9f0:	00 97       	sbiw	r24, 0x00	; 0
 9f2:	a9 f1       	breq	.+106    	; 0xa5e <__vector_16+0xa2>
 9f4:	01 97       	sbiw	r24, 0x01	; 1
 9f6:	09 f4       	brne	.+2      	; 0x9fa <__vector_16+0x3e>
 9f8:	60 c0       	rjmp	.+192    	; 0xaba <__vector_16+0xfe>
 9fa:	ff 91       	pop	r31
 9fc:	ef 91       	pop	r30
 9fe:	bf 91       	pop	r27
 a00:	af 91       	pop	r26
 a02:	9f 91       	pop	r25
 a04:	8f 91       	pop	r24
 a06:	7f 91       	pop	r23
 a08:	6f 91       	pop	r22
 a0a:	5f 91       	pop	r21
 a0c:	4f 91       	pop	r20
 a0e:	3f 91       	pop	r19
 a10:	2f 91       	pop	r18
 a12:	0f 90       	pop	r0
 a14:	0f be       	out	0x3f, r0	; 63
 a16:	0f 90       	pop	r0
 a18:	1f 90       	pop	r1
 a1a:	18 95       	reti
 a1c:	84 30       	cpi	r24, 0x04	; 4
 a1e:	91 05       	cpc	r25, r1
 a20:	09 f4       	brne	.+2      	; 0xa24 <__vector_16+0x68>
 a22:	7a c0       	rjmp	.+244    	; 0xb18 <__vector_16+0x15c>
 a24:	08 f4       	brcc	.+2      	; 0xa28 <__vector_16+0x6c>
 a26:	43 c0       	rjmp	.+134    	; 0xaae <__vector_16+0xf2>
 a28:	05 97       	sbiw	r24, 0x05	; 5
 a2a:	39 f7       	brne	.-50     	; 0x9fa <__vector_16+0x3e>
 a2c:	80 91 cd 00 	lds	r24, 0x00CD	; 0x8000cd <rxCount>
 a30:	80 32       	cpi	r24, 0x20	; 32
 a32:	90 f4       	brcc	.+36     	; 0xa58 <__vector_16+0x9c>
 a34:	e0 91 c6 00 	lds	r30, 0x00C6	; 0x8000c6 <rxHead>
 a38:	8f b1       	in	r24, 0x0f	; 15
 a3a:	f0 e0       	ldi	r31, 0x00	; 0
 a3c:	e8 57       	subi	r30, 0x78	; 120
 a3e:	ff 4f       	sbci	r31, 0xFF	; 255
 a40:	80 83       	st	Z, r24
 a42:	80 91 c6 00 	lds	r24, 0x00C6	; 0x8000c6 <rxHead>
 a46:	8f 5f       	subi	r24, 0xFF	; 255
 a48:	8f 71       	andi	r24, 0x1F	; 31
 a4a:	80 93 c6 00 	sts	0x00C6, r24	; 0x8000c6 <rxHead>
 a4e:	80 91 cd 00 	lds	r24, 0x00CD	; 0x8000cd <rxCount>
 a52:	8f 5f       	subi	r24, 0xFF	; 255
 a54:	80 93 cd 00 	sts	0x00CD, r24	; 0x8000cd <rxCount>
 a58:	84 e0       	ldi	r24, 0x04	; 4
 a5a:	90 e0       	ldi	r25, 0x00	; 0
 a5c:	21 c0       	rjmp	.+66     	; 0xaa0 <__vector_16+0xe4>
 a5e:	8f b1       	in	r24, 0x0f	; 15
 a60:	88 23       	and	r24, r24
 a62:	31 f0       	breq	.+12     	; 0xa70 <__vector_16+0xb4>
 a64:	8f b1       	in	r24, 0x0f	; 15
 a66:	86 95       	lsr	r24
 a68:	90 91 c8 00 	lds	r25, 0x00C8	; 0x8000c8 <slaveAddress>
 a6c:	89 13       	cpse	r24, r25
 a6e:	22 c0       	rjmp	.+68     	; 0xab4 <__vector_16+0xf8>
 a70:	78 9b       	sbis	0x0f, 0	; 15
 a72:	f2 cf       	rjmp	.-28     	; 0xa58 <__vector_16+0x9c>
 a74:	e0 91 c9 00 	lds	r30, 0x00C9	; 0x8000c9 <usi_onReceiverPtr>
 a78:	f0 91 ca 00 	lds	r31, 0x00CA	; 0x8000ca <usi_onReceiverPtr+0x1>
 a7c:	30 97       	sbiw	r30, 0x00	; 0
 a7e:	39 f0       	breq	.+14     	; 0xa8e <__vector_16+0xd2>
 a80:	80 91 cd 00 	lds	r24, 0x00CD	; 0x8000cd <rxCount>
 a84:	88 23       	and	r24, r24
 a86:	19 f0       	breq	.+6      	; 0xa8e <__vector_16+0xd2>
 a88:	80 91 cd 00 	lds	r24, 0x00CD	; 0x8000cd <rxCount>
 a8c:	09 95       	icall
 a8e:	e0 91 cb 00 	lds	r30, 0x00CB	; 0x8000cb <usi_onRequestPtr>
 a92:	f0 91 cc 00 	lds	r31, 0x00CC	; 0x8000cc <usi_onRequestPtr+0x1>
 a96:	30 97       	sbiw	r30, 0x00	; 0
 a98:	09 f0       	breq	.+2      	; 0xa9c <__vector_16+0xe0>
 a9a:	09 95       	icall
 a9c:	81 e0       	ldi	r24, 0x01	; 1
 a9e:	90 e0       	ldi	r25, 0x00	; 0
 aa0:	90 93 a9 00 	sts	0x00A9, r25	; 0x8000a9 <overflowState+0x1>
 aa4:	80 93 a8 00 	sts	0x00A8, r24	; 0x8000a8 <overflowState>
 aa8:	1f b8       	out	0x0f, r1	; 15
 aaa:	d6 9a       	sbi	0x1a, 6	; 26
 aac:	33 c0       	rjmp	.+102    	; 0xb14 <__vector_16+0x158>
 aae:	8f b1       	in	r24, 0x0f	; 15
 ab0:	88 23       	and	r24, r24
 ab2:	19 f0       	breq	.+6      	; 0xaba <__vector_16+0xfe>
 ab4:	88 ea       	ldi	r24, 0xA8	; 168
 ab6:	8d b9       	out	0x0d, r24	; 13
 ab8:	1d c0       	rjmp	.+58     	; 0xaf4 <__vector_16+0x138>
 aba:	80 91 f9 01 	lds	r24, 0x01F9	; 0x8001f9 <txCount>
 abe:	88 23       	and	r24, r24
 ac0:	e1 f0       	breq	.+56     	; 0xafa <__vector_16+0x13e>
 ac2:	e0 91 c5 00 	lds	r30, 0x00C5	; 0x8000c5 <txTail>
 ac6:	f0 e0       	ldi	r31, 0x00	; 0
 ac8:	e0 51       	subi	r30, 0x10	; 16
 aca:	fe 4f       	sbci	r31, 0xFE	; 254
 acc:	80 81       	ld	r24, Z
 ace:	8f b9       	out	0x0f, r24	; 15
 ad0:	80 91 c5 00 	lds	r24, 0x00C5	; 0x8000c5 <txTail>
 ad4:	8f 5f       	subi	r24, 0xFF	; 255
 ad6:	87 70       	andi	r24, 0x07	; 7
 ad8:	80 93 c5 00 	sts	0x00C5, r24	; 0x8000c5 <txTail>
 adc:	80 91 f9 01 	lds	r24, 0x01F9	; 0x8001f9 <txCount>
 ae0:	81 50       	subi	r24, 0x01	; 1
 ae2:	80 93 f9 01 	sts	0x01F9, r24	; 0x8001f9 <txCount>
 ae6:	82 e0       	ldi	r24, 0x02	; 2
 ae8:	90 e0       	ldi	r25, 0x00	; 0
 aea:	90 93 a9 00 	sts	0x00A9, r25	; 0x8000a9 <overflowState+0x1>
 aee:	80 93 a8 00 	sts	0x00A8, r24	; 0x8000a8 <overflowState>
 af2:	d6 9a       	sbi	0x1a, 6	; 26
 af4:	80 e7       	ldi	r24, 0x70	; 112
 af6:	8e b9       	out	0x0e, r24	; 14
 af8:	80 cf       	rjmp	.-256    	; 0x9fa <__vector_16+0x3e>
 afa:	d6 98       	cbi	0x1a, 6	; 26
 afc:	1f b8       	out	0x0f, r1	; 15
 afe:	8e e7       	ldi	r24, 0x7E	; 126
 b00:	8e b9       	out	0x0e, r24	; 14
 b02:	d8 cf       	rjmp	.-80     	; 0xab4 <__vector_16+0xf8>
 b04:	83 e0       	ldi	r24, 0x03	; 3
 b06:	90 e0       	ldi	r25, 0x00	; 0
 b08:	90 93 a9 00 	sts	0x00A9, r25	; 0x8000a9 <overflowState+0x1>
 b0c:	80 93 a8 00 	sts	0x00A8, r24	; 0x8000a8 <overflowState>
 b10:	d6 98       	cbi	0x1a, 6	; 26
 b12:	1f b8       	out	0x0f, r1	; 15
 b14:	8e e7       	ldi	r24, 0x7E	; 126
 b16:	ef cf       	rjmp	.-34     	; 0xaf6 <__vector_16+0x13a>
 b18:	85 e0       	ldi	r24, 0x05	; 5
 b1a:	90 e0       	ldi	r25, 0x00	; 0
 b1c:	90 93 a9 00 	sts	0x00A9, r25	; 0x8000a9 <overflowState+0x1>
 b20:	80 93 a8 00 	sts	0x00A8, r24	; 0x8000a8 <overflowState>
 b24:	d6 98       	cbi	0x1a, 6	; 26
 b26:	e6 cf       	rjmp	.-52     	; 0xaf4 <__vector_16+0x138>

00000b28 <__vector_15>:
 b28:	1f 92       	push	r1
 b2a:	0f 92       	push	r0
 b2c:	0f b6       	in	r0, 0x3f	; 63
 b2e:	0f 92       	push	r0
 b30:	11 24       	eor	r1, r1
 b32:	8f 93       	push	r24
 b34:	10 92 a9 00 	sts	0x00A9, r1	; 0x8000a9 <overflowState+0x1>
 b38:	10 92 a8 00 	sts	0x00A8, r1	; 0x8000a8 <overflowState>
 b3c:	d6 98       	cbi	0x1a, 6	; 26
 b3e:	cc 9b       	sbis	0x19, 4	; 25
 b40:	02 c0       	rjmp	.+4      	; 0xb46 <__vector_15+0x1e>
 b42:	ce 9b       	sbis	0x19, 6	; 25
 b44:	fc cf       	rjmp	.-8      	; 0xb3e <__vector_15+0x16>
 b46:	ce 99       	sbic	0x19, 6	; 25
 b48:	0a c0       	rjmp	.+20     	; 0xb5e <__vector_15+0x36>
 b4a:	88 ef       	ldi	r24, 0xF8	; 248
 b4c:	8d b9       	out	0x0d, r24	; 13
 b4e:	80 ef       	ldi	r24, 0xF0	; 240
 b50:	8e b9       	out	0x0e, r24	; 14
 b52:	8f 91       	pop	r24
 b54:	0f 90       	pop	r0
 b56:	0f be       	out	0x3f, r0	; 63
 b58:	0f 90       	pop	r0
 b5a:	1f 90       	pop	r1
 b5c:	18 95       	reti
 b5e:	88 ea       	ldi	r24, 0xA8	; 168
 b60:	f5 cf       	rjmp	.-22     	; 0xb4c <__vector_15+0x24>

00000b62 <main>:
 b62:	cf 93       	push	r28
 b64:	df 93       	push	r29
 b66:	cd b7       	in	r28, 0x3d	; 61
 b68:	de b7       	in	r29, 0x3e	; 62
 b6a:	68 97       	sbiw	r28, 0x18	; 24
 b6c:	0f b6       	in	r0, 0x3f	; 63
 b6e:	f8 94       	cli
 b70:	de bf       	out	0x3e, r29	; 62
 b72:	0f be       	out	0x3f, r0	; 63
 b74:	cd bf       	out	0x3d, r28	; 61
 b76:	83 e0       	ldi	r24, 0x03	; 3
 b78:	80 bf       	out	0x30, r24	; 48
 b7a:	83 bf       	out	0x33, r24	; 51
 b7c:	78 94       	sei
 b7e:	99 b7       	in	r25, 0x39	; 57
 b80:	91 60       	ori	r25, 0x01	; 1
 b82:	99 bf       	out	0x39, r25	; 57
 b84:	91 e0       	ldi	r25, 0x01	; 1
 b86:	9f bd       	out	0x2f, r25	; 47
 b88:	8e bd       	out	0x2e, r24	; 46
 b8a:	86 e8       	ldi	r24, 0x86	; 134
 b8c:	86 b9       	out	0x06, r24	; 6
 b8e:	f8 94       	cli
 b90:	80 91 bd 00 	lds	r24, 0x00BD	; 0x8000bd <guard variable for CLEDController& CFastLED::addLeds<WS2812, (unsigned char)3, (EOrder)10>(CRGB*, int, int)::c>
 b94:	81 11       	cpse	r24, r1
 b96:	44 c0       	rjmp	.+136    	; 0xc20 <main+0xbe>
 b98:	10 92 af 00 	sts	0x00AF, r1	; 0x8000af <CLEDController& CFastLED::addLeds<WS2812, (unsigned char)3, (EOrder)10>(CRGB*, int, int)::c+0x3>
 b9c:	10 92 ae 00 	sts	0x00AE, r1	; 0x8000ae <CLEDController& CFastLED::addLeds<WS2812, (unsigned char)3, (EOrder)10>(CRGB*, int, int)::c+0x2>
 ba0:	8f ef       	ldi	r24, 0xFF	; 255
 ba2:	80 93 b2 00 	sts	0x00B2, r24	; 0x8000b2 <CLEDController& CFastLED::addLeds<WS2812, (unsigned char)3, (EOrder)10>(CRGB*, int, int)::c+0x6>
 ba6:	80 93 b3 00 	sts	0x00B3, r24	; 0x8000b3 <CLEDController& CFastLED::addLeds<WS2812, (unsigned char)3, (EOrder)10>(CRGB*, int, int)::c+0x7>
 baa:	80 93 b4 00 	sts	0x00B4, r24	; 0x8000b4 <CLEDController& CFastLED::addLeds<WS2812, (unsigned char)3, (EOrder)10>(CRGB*, int, int)::c+0x8>
 bae:	80 93 b5 00 	sts	0x00B5, r24	; 0x8000b5 <CLEDController& CFastLED::addLeds<WS2812, (unsigned char)3, (EOrder)10>(CRGB*, int, int)::c+0x9>
 bb2:	80 93 b6 00 	sts	0x00B6, r24	; 0x8000b6 <CLEDController& CFastLED::addLeds<WS2812, (unsigned char)3, (EOrder)10>(CRGB*, int, int)::c+0xa>
 bb6:	80 93 b7 00 	sts	0x00B7, r24	; 0x8000b7 <CLEDController& CFastLED::addLeds<WS2812, (unsigned char)3, (EOrder)10>(CRGB*, int, int)::c+0xb>
 bba:	90 93 b8 00 	sts	0x00B8, r25	; 0x8000b8 <CLEDController& CFastLED::addLeds<WS2812, (unsigned char)3, (EOrder)10>(CRGB*, int, int)::c+0xc>
 bbe:	10 92 ba 00 	sts	0x00BA, r1	; 0x8000ba <CLEDController& CFastLED::addLeds<WS2812, (unsigned char)3, (EOrder)10>(CRGB*, int, int)::c+0xe>
 bc2:	10 92 b9 00 	sts	0x00B9, r1	; 0x8000b9 <CLEDController& CFastLED::addLeds<WS2812, (unsigned char)3, (EOrder)10>(CRGB*, int, int)::c+0xd>
 bc6:	10 92 b1 00 	sts	0x00B1, r1	; 0x8000b1 <CLEDController& CFastLED::addLeds<WS2812, (unsigned char)3, (EOrder)10>(CRGB*, int, int)::c+0x5>
 bca:	10 92 b0 00 	sts	0x00B0, r1	; 0x8000b0 <CLEDController& CFastLED::addLeds<WS2812, (unsigned char)3, (EOrder)10>(CRGB*, int, int)::c+0x4>
 bce:	80 91 19 02 	lds	r24, 0x0219	; 0x800219 <CLEDController::m_pHead>
 bd2:	90 91 1a 02 	lds	r25, 0x021A	; 0x80021a <CLEDController::m_pHead+0x1>
 bd6:	89 2b       	or	r24, r25
 bd8:	31 f4       	brne	.+12     	; 0xbe6 <main+0x84>
 bda:	8c ea       	ldi	r24, 0xAC	; 172
 bdc:	90 e0       	ldi	r25, 0x00	; 0
 bde:	90 93 1a 02 	sts	0x021A, r25	; 0x80021a <CLEDController::m_pHead+0x1>
 be2:	80 93 19 02 	sts	0x0219, r24	; 0x800219 <CLEDController::m_pHead>
 be6:	e0 91 aa 00 	lds	r30, 0x00AA	; 0x8000aa <CLEDController::m_pTail>
 bea:	f0 91 ab 00 	lds	r31, 0x00AB	; 0x8000ab <CLEDController::m_pTail+0x1>
 bee:	30 97       	sbiw	r30, 0x00	; 0
 bf0:	21 f0       	breq	.+8      	; 0xbfa <main+0x98>
 bf2:	8c ea       	ldi	r24, 0xAC	; 172
 bf4:	90 e0       	ldi	r25, 0x00	; 0
 bf6:	95 83       	std	Z+5, r25	; 0x05
 bf8:	84 83       	std	Z+4, r24	; 0x04
 bfa:	8c ea       	ldi	r24, 0xAC	; 172
 bfc:	90 e0       	ldi	r25, 0x00	; 0
 bfe:	90 93 ab 00 	sts	0x00AB, r25	; 0x8000ab <CLEDController::m_pTail+0x1>
 c02:	80 93 aa 00 	sts	0x00AA, r24	; 0x8000aa <CLEDController::m_pTail>
 c06:	10 92 bc 00 	sts	0x00BC, r1	; 0x8000bc <CLEDController& CFastLED::addLeds<WS2812, (unsigned char)3, (EOrder)10>(CRGB*, int, int)::c+0x10>
 c0a:	10 92 bb 00 	sts	0x00BB, r1	; 0x8000bb <CLEDController& CFastLED::addLeds<WS2812, (unsigned char)3, (EOrder)10>(CRGB*, int, int)::c+0xf>
 c0e:	86 e7       	ldi	r24, 0x76	; 118
 c10:	90 e0       	ldi	r25, 0x00	; 0
 c12:	90 93 ad 00 	sts	0x00AD, r25	; 0x8000ad <CLEDController& CFastLED::addLeds<WS2812, (unsigned char)3, (EOrder)10>(CRGB*, int, int)::c+0x1>
 c16:	80 93 ac 00 	sts	0x00AC, r24	; 0x8000ac <CLEDController& CFastLED::addLeds<WS2812, (unsigned char)3, (EOrder)10>(CRGB*, int, int)::c>
 c1a:	81 e0       	ldi	r24, 0x01	; 1
 c1c:	80 93 bd 00 	sts	0x00BD, r24	; 0x8000bd <guard variable for CLEDController& CFastLED::addLeds<WS2812, (unsigned char)3, (EOrder)10>(CRGB*, int, int)::c>
 c20:	d3 9a       	sbi	0x1a, 3	; 26
 c22:	8e ec       	ldi	r24, 0xCE	; 206
 c24:	90 e0       	ldi	r25, 0x00	; 0
 c26:	90 93 af 00 	sts	0x00AF, r25	; 0x8000af <CLEDController& CFastLED::addLeds<WS2812, (unsigned char)3, (EOrder)10>(CRGB*, int, int)::c+0x3>
 c2a:	80 93 ae 00 	sts	0x00AE, r24	; 0x8000ae <CLEDController& CFastLED::addLeds<WS2812, (unsigned char)3, (EOrder)10>(CRGB*, int, int)::c+0x2>
 c2e:	80 e6       	ldi	r24, 0x60	; 96
 c30:	90 e0       	ldi	r25, 0x00	; 0
 c32:	90 93 ba 00 	sts	0x00BA, r25	; 0x8000ba <CLEDController& CFastLED::addLeds<WS2812, (unsigned char)3, (EOrder)10>(CRGB*, int, int)::c+0xe>
 c36:	80 93 b9 00 	sts	0x00B9, r24	; 0x8000b9 <CLEDController& CFastLED::addLeds<WS2812, (unsigned char)3, (EOrder)10>(CRGB*, int, int)::c+0xd>
 c3a:	80 91 0f 02 	lds	r24, 0x020F	; 0x80020f <FastLED+0x3>
 c3e:	90 91 10 02 	lds	r25, 0x0210	; 0x800210 <FastLED+0x4>
 c42:	a0 91 11 02 	lds	r26, 0x0211	; 0x800211 <FastLED+0x5>
 c46:	b0 91 12 02 	lds	r27, 0x0212	; 0x800212 <FastLED+0x6>
 c4a:	84 3c       	cpi	r24, 0xC4	; 196
 c4c:	29 e0       	ldi	r18, 0x09	; 9
 c4e:	92 07       	cpc	r25, r18
 c50:	a1 05       	cpc	r26, r1
 c52:	b1 05       	cpc	r27, r1
 c54:	20 f4       	brcc	.+8      	; 0xc5e <main+0xfc>
 c56:	84 ec       	ldi	r24, 0xC4	; 196
 c58:	99 e0       	ldi	r25, 0x09	; 9
 c5a:	a0 e0       	ldi	r26, 0x00	; 0
 c5c:	b0 e0       	ldi	r27, 0x00	; 0
 c5e:	80 93 0f 02 	sts	0x020F, r24	; 0x80020f <FastLED+0x3>
 c62:	90 93 10 02 	sts	0x0210, r25	; 0x800210 <FastLED+0x4>
 c66:	a0 93 11 02 	sts	0x0211, r26	; 0x800211 <FastLED+0x5>
 c6a:	b0 93 12 02 	sts	0x0212, r27	; 0x800212 <FastLED+0x6>
 c6e:	10 92 c7 00 	sts	0x00C7, r1	; 0x8000c7 <rxTail>
 c72:	10 92 c6 00 	sts	0x00C6, r1	; 0x8000c6 <rxHead>
 c76:	10 92 cd 00 	sts	0x00CD, r1	; 0x8000cd <rxCount>
 c7a:	10 92 c5 00 	sts	0x00C5, r1	; 0x8000c5 <txTail>
 c7e:	10 92 f8 01 	sts	0x01F8, r1	; 0x8001f8 <txHead>
 c82:	10 92 f9 01 	sts	0x01F9, r1	; 0x8001f9 <txCount>
 c86:	8c e0       	ldi	r24, 0x0C	; 12
 c88:	80 93 c8 00 	sts	0x00C8, r24	; 0x8000c8 <slaveAddress>
 c8c:	8a b3       	in	r24, 0x1a	; 26
 c8e:	80 65       	ori	r24, 0x50	; 80
 c90:	8a bb       	out	0x1a, r24	; 26
 c92:	dc 9a       	sbi	0x1b, 4	; 27
 c94:	de 9a       	sbi	0x1b, 6	; 27
 c96:	d6 98       	cbi	0x1a, 6	; 26
 c98:	88 ea       	ldi	r24, 0xA8	; 168
 c9a:	8d b9       	out	0x0d, r24	; 13
 c9c:	80 ef       	ldi	r24, 0xF0	; 240
 c9e:	8e b9       	out	0x0e, r24	; 14
 ca0:	82 e8       	ldi	r24, 0x82	; 130
 ca2:	91 e0       	ldi	r25, 0x01	; 1
 ca4:	90 93 ca 00 	sts	0x00CA, r25	; 0x8000ca <usi_onReceiverPtr+0x1>
 ca8:	80 93 c9 00 	sts	0x00C9, r24	; 0x8000c9 <usi_onReceiverPtr>
 cac:	8d e8       	ldi	r24, 0x8D	; 141
 cae:	91 e0       	ldi	r25, 0x01	; 1
 cb0:	90 93 cc 00 	sts	0x00CC, r25	; 0x8000cc <usi_onRequestPtr+0x1>
 cb4:	80 93 cb 00 	sts	0x00CB, r24	; 0x8000cb <usi_onRequestPtr>
 cb8:	80 91 fb 01 	lds	r24, 0x01FB	; 0x8001fb <pendIsr>
 cbc:	90 91 fc 01 	lds	r25, 0x01FC	; 0x8001fc <pendIsr+0x1>
 cc0:	90 93 fc 01 	sts	0x01FC, r25	; 0x8001fc <pendIsr+0x1>
 cc4:	80 93 fb 01 	sts	0x01FB, r24	; 0x8001fb <pendIsr>
 cc8:	78 94       	sei
 cca:	7e 01       	movw	r14, r28
 ccc:	89 e1       	ldi	r24, 0x19	; 25
 cce:	e8 0e       	add	r14, r24
 cd0:	f1 1c       	adc	r15, r1
 cd2:	cc 24       	eor	r12, r12
 cd4:	c3 94       	inc	r12
 cd6:	d1 2c       	mov	r13, r1
 cd8:	80 91 fb 01 	lds	r24, 0x01FB	; 0x8001fb <pendIsr>
 cdc:	90 91 fc 01 	lds	r25, 0x01FC	; 0x8001fc <pendIsr+0x1>
 ce0:	81 30       	cpi	r24, 0x01	; 1
 ce2:	91 05       	cpc	r25, r1
 ce4:	f9 f0       	breq	.+62     	; 0xd24 <main+0x1c2>
 ce6:	02 97       	sbiw	r24, 0x02	; 2
 ce8:	b9 f7       	brne	.-18     	; 0xcd8 <main+0x176>
 cea:	80 91 fa 01 	lds	r24, 0x01FA	; 0x8001fa <RowControllerData>
 cee:	90 91 f9 01 	lds	r25, 0x01F9	; 0x8001f9 <txCount>
 cf2:	98 30       	cpi	r25, 0x08	; 8
 cf4:	e1 f3       	breq	.-8      	; 0xcee <main+0x18c>
 cf6:	e0 91 f8 01 	lds	r30, 0x01F8	; 0x8001f8 <txHead>
 cfa:	f0 e0       	ldi	r31, 0x00	; 0
 cfc:	e0 51       	subi	r30, 0x10	; 16
 cfe:	fe 4f       	sbci	r31, 0xFE	; 254
 d00:	80 83       	st	Z, r24
 d02:	80 91 f8 01 	lds	r24, 0x01F8	; 0x8001f8 <txHead>
 d06:	8f 5f       	subi	r24, 0xFF	; 255
 d08:	87 70       	andi	r24, 0x07	; 7
 d0a:	80 93 f8 01 	sts	0x01F8, r24	; 0x8001f8 <txHead>
 d0e:	80 91 f9 01 	lds	r24, 0x01F9	; 0x8001f9 <txCount>
 d12:	8f 5f       	subi	r24, 0xFF	; 255
 d14:	80 93 f9 01 	sts	0x01F9, r24	; 0x8001f9 <txCount>
 d18:	80 91 fb 01 	lds	r24, 0x01FB	; 0x8001fb <pendIsr>
 d1c:	90 91 fc 01 	lds	r25, 0x01FC	; 0x8001fc <pendIsr+0x1>
 d20:	8d 7f       	andi	r24, 0xFD	; 253
 d22:	68 c0       	rjmp	.+208    	; 0xdf4 <main+0x292>
 d24:	08 db       	rcall	.-2544   	; 0x336 <usiTwiReceiveByte>
 d26:	08 2f       	mov	r16, r24
 d28:	10 e0       	ldi	r17, 0x00	; 0
 d2a:	20 91 cd 00 	lds	r18, 0x00CD	; 0x8000cd <rxCount>
 d2e:	bb 24       	eor	r11, r11
 d30:	b3 94       	inc	r11
 d32:	b1 0e       	add	r11, r17
 d34:	22 23       	and	r18, r18
 d36:	51 f0       	breq	.+20     	; 0xd4c <main+0x1ea>
 d38:	fe da       	rcall	.-2564   	; 0x336 <usiTwiReceiveByte>
 d3a:	e1 e0       	ldi	r30, 0x01	; 1
 d3c:	f0 e0       	ldi	r31, 0x00	; 0
 d3e:	ec 0f       	add	r30, r28
 d40:	fd 1f       	adc	r31, r29
 d42:	e1 0f       	add	r30, r17
 d44:	f1 1d       	adc	r31, r1
 d46:	80 83       	st	Z, r24
 d48:	1b 2d       	mov	r17, r11
 d4a:	ef cf       	rjmp	.-34     	; 0xd2a <main+0x1c8>
 d4c:	03 31       	cpi	r16, 0x13	; 19
 d4e:	49 f1       	breq	.+82     	; 0xda2 <main+0x240>
 d50:	0a 32       	cpi	r16, 0x2A	; 42
 d52:	09 f4       	brne	.+2      	; 0xd56 <main+0x1f4>
 d54:	42 c0       	rjmp	.+132    	; 0xdda <main+0x278>
 d56:	01 30       	cpi	r16, 0x01	; 1
 d58:	09 f0       	breq	.+2      	; 0xd5c <main+0x1fa>
 d5a:	47 c0       	rjmp	.+142    	; 0xdea <main+0x288>
 d5c:	14 30       	cpi	r17, 0x04	; 4
 d5e:	09 f0       	breq	.+2      	; 0xd62 <main+0x200>
 d60:	44 c0       	rjmp	.+136    	; 0xdea <main+0x288>
 d62:	aa 81       	ldd	r26, Y+2	; 0x02
 d64:	4b 81       	ldd	r20, Y+3	; 0x03
 d66:	3c 81       	ldd	r19, Y+4	; 0x04
 d68:	89 81       	ldd	r24, Y+1	; 0x01
 d6a:	6c e0       	ldi	r22, 0x0C	; 12
 d6c:	63 d0       	rcall	.+198    	; 0xe34 <__mulqi3>
 d6e:	b8 2f       	mov	r27, r24
 d70:	82 2f       	mov	r24, r18
 d72:	8b 0f       	add	r24, r27
 d74:	90 e0       	ldi	r25, 0x00	; 0
 d76:	63 e0       	ldi	r22, 0x03	; 3
 d78:	70 e0       	ldi	r23, 0x00	; 0
 d7a:	65 d0       	rcall	.+202    	; 0xe46 <__mulhi3>
 d7c:	fc 01       	movw	r30, r24
 d7e:	e2 53       	subi	r30, 0x32	; 50
 d80:	ff 4f       	sbci	r31, 0xFF	; 255
 d82:	a0 83       	st	Z, r26
 d84:	41 83       	std	Z+1, r20	; 0x01
 d86:	32 83       	std	Z+2, r19	; 0x02
 d88:	2f 5f       	subi	r18, 0xFF	; 255
 d8a:	2c 30       	cpi	r18, 0x0C	; 12
 d8c:	89 f7       	brne	.-30     	; 0xd70 <main+0x20e>
 d8e:	80 91 ee 01 	lds	r24, 0x01EE	; 0x8001ee <State>
 d92:	90 91 ef 01 	lds	r25, 0x01EF	; 0x8001ef <State+0x1>
 d96:	89 2b       	or	r24, r25
 d98:	41 f5       	brne	.+80     	; 0xdea <main+0x288>
 d9a:	80 91 0c 02 	lds	r24, 0x020C	; 0x80020c <FastLED>
 d9e:	8e d9       	rcall	.-3300   	; 0xbc <CFastLED::show(unsigned char) [clone .constprop.18]>
 da0:	24 c0       	rjmp	.+72     	; 0xdea <main+0x288>
 da2:	18 31       	cpi	r17, 0x18	; 24
 da4:	11 f5       	brne	.+68     	; 0xdea <main+0x288>
 da6:	fe 01       	movw	r30, r28
 da8:	31 96       	adiw	r30, 0x01	; 1
 daa:	8e ec       	ldi	r24, 0xCE	; 206
 dac:	90 e0       	ldi	r25, 0x00	; 0
 dae:	50 81       	ld	r21, Z
 db0:	41 81       	ldd	r20, Z+1	; 0x01
 db2:	32 81       	ldd	r19, Z+2	; 0x02
 db4:	dc 01       	movw	r26, r24
 db6:	20 e0       	ldi	r18, 0x00	; 0
 db8:	5c 93       	st	X, r21
 dba:	11 96       	adiw	r26, 0x01	; 1
 dbc:	4c 93       	st	X, r20
 dbe:	11 97       	sbiw	r26, 0x01	; 1
 dc0:	12 96       	adiw	r26, 0x02	; 2
 dc2:	3c 93       	st	X, r19
 dc4:	12 97       	sbiw	r26, 0x02	; 2
 dc6:	2f 5f       	subi	r18, 0xFF	; 255
 dc8:	13 96       	adiw	r26, 0x03	; 3
 dca:	2c 30       	cpi	r18, 0x0C	; 12
 dcc:	a9 f7       	brne	.-22     	; 0xdb8 <main+0x256>
 dce:	33 96       	adiw	r30, 0x03	; 3
 dd0:	84 96       	adiw	r24, 0x24	; 36
 dd2:	ee 16       	cp	r14, r30
 dd4:	ff 06       	cpc	r15, r31
 dd6:	59 f7       	brne	.-42     	; 0xdae <main+0x24c>
 dd8:	da cf       	rjmp	.-76     	; 0xd8e <main+0x22c>
 dda:	11 30       	cpi	r17, 0x01	; 1
 ddc:	31 f4       	brne	.+12     	; 0xdea <main+0x288>
 dde:	89 81       	ldd	r24, Y+1	; 0x01
 de0:	81 30       	cpi	r24, 0x01	; 1
 de2:	99 f0       	breq	.+38     	; 0xe0a <main+0x2a8>
 de4:	68 f0       	brcs	.+26     	; 0xe00 <main+0x29e>
 de6:	82 30       	cpi	r24, 0x02	; 2
 de8:	c1 f2       	breq	.-80     	; 0xd9a <main+0x238>
 dea:	80 91 fb 01 	lds	r24, 0x01FB	; 0x8001fb <pendIsr>
 dee:	90 91 fc 01 	lds	r25, 0x01FC	; 0x8001fc <pendIsr+0x1>
 df2:	8e 7f       	andi	r24, 0xFE	; 254
 df4:	90 93 fc 01 	sts	0x01FC, r25	; 0x8001fc <pendIsr+0x1>
 df8:	80 93 fb 01 	sts	0x01FB, r24	; 0x8001fb <pendIsr>
 dfc:	78 94       	sei
 dfe:	6c cf       	rjmp	.-296    	; 0xcd8 <main+0x176>
 e00:	10 92 ef 01 	sts	0x01EF, r1	; 0x8001ef <State+0x1>
 e04:	10 92 ee 01 	sts	0x01EE, r1	; 0x8001ee <State>
 e08:	f0 cf       	rjmp	.-32     	; 0xdea <main+0x288>
 e0a:	d0 92 ef 01 	sts	0x01EF, r13	; 0x8001ef <State+0x1>
 e0e:	c0 92 ee 01 	sts	0x01EE, r12	; 0x8001ee <State>
 e12:	eb cf       	rjmp	.-42     	; 0xdea <main+0x288>

00000e14 <_GLOBAL__sub_I_pSmartMatrix>:
 e14:	ec e0       	ldi	r30, 0x0C	; 12
 e16:	f2 e0       	ldi	r31, 0x02	; 2
 e18:	8f ef       	ldi	r24, 0xFF	; 255
 e1a:	80 83       	st	Z, r24
 e1c:	12 82       	std	Z+2, r1	; 0x02
 e1e:	11 82       	std	Z+1, r1	; 0x01
 e20:	14 86       	std	Z+12, r1	; 0x0c
 e22:	13 86       	std	Z+11, r1	; 0x0b
 e24:	8f ef       	ldi	r24, 0xFF	; 255
 e26:	9f ef       	ldi	r25, 0xFF	; 255
 e28:	dc 01       	movw	r26, r24
 e2a:	87 83       	std	Z+7, r24	; 0x07
 e2c:	90 87       	std	Z+8, r25	; 0x08
 e2e:	a1 87       	std	Z+9, r26	; 0x09
 e30:	b2 87       	std	Z+10, r27	; 0x0a
 e32:	08 95       	ret

00000e34 <__mulqi3>:
 e34:	00 24       	eor	r0, r0

00000e36 <__mulqi3_loop>:
 e36:	80 fd       	sbrc	r24, 0
 e38:	06 0e       	add	r0, r22
 e3a:	66 0f       	add	r22, r22
 e3c:	11 f0       	breq	.+4      	; 0xe42 <__mulqi3_exit>
 e3e:	86 95       	lsr	r24
 e40:	d1 f7       	brne	.-12     	; 0xe36 <__mulqi3_loop>

00000e42 <__mulqi3_exit>:
 e42:	80 2d       	mov	r24, r0
 e44:	08 95       	ret

00000e46 <__mulhi3>:
 e46:	00 24       	eor	r0, r0
 e48:	55 27       	eor	r21, r21
 e4a:	04 c0       	rjmp	.+8      	; 0xe54 <__mulhi3+0xe>
 e4c:	08 0e       	add	r0, r24
 e4e:	59 1f       	adc	r21, r25
 e50:	88 0f       	add	r24, r24
 e52:	99 1f       	adc	r25, r25
 e54:	00 97       	sbiw	r24, 0x00	; 0
 e56:	29 f0       	breq	.+10     	; 0xe62 <__mulhi3+0x1c>
 e58:	76 95       	lsr	r23
 e5a:	67 95       	ror	r22
 e5c:	b8 f3       	brcs	.-18     	; 0xe4c <__mulhi3+0x6>
 e5e:	71 05       	cpc	r23, r1
 e60:	b9 f7       	brne	.-18     	; 0xe50 <__mulhi3+0xa>
 e62:	80 2d       	mov	r24, r0
 e64:	95 2f       	mov	r25, r21
 e66:	08 95       	ret

00000e68 <__mulsi3>:
 e68:	ee 27       	eor	r30, r30
 e6a:	ff 27       	eor	r31, r31

00000e6c <__mulsi3_helper>:
 e6c:	aa 27       	eor	r26, r26
 e6e:	bb 27       	eor	r27, r27
 e70:	08 c0       	rjmp	.+16     	; 0xe82 <__mulsi3_helper+0x16>
 e72:	a2 0f       	add	r26, r18
 e74:	b3 1f       	adc	r27, r19
 e76:	e4 1f       	adc	r30, r20
 e78:	f5 1f       	adc	r31, r21
 e7a:	22 0f       	add	r18, r18
 e7c:	33 1f       	adc	r19, r19
 e7e:	44 1f       	adc	r20, r20
 e80:	55 1f       	adc	r21, r21
 e82:	96 95       	lsr	r25
 e84:	87 95       	ror	r24
 e86:	77 95       	ror	r23
 e88:	67 95       	ror	r22
 e8a:	98 f3       	brcs	.-26     	; 0xe72 <__mulsi3_helper+0x6>
 e8c:	70 40       	sbci	r23, 0x00	; 0
 e8e:	a9 f7       	brne	.-22     	; 0xe7a <__mulsi3_helper+0xe>
 e90:	00 97       	sbiw	r24, 0x00	; 0
 e92:	99 f7       	brne	.-26     	; 0xe7a <__mulsi3_helper+0xe>
 e94:	bd 01       	movw	r22, r26
 e96:	cf 01       	movw	r24, r30
 e98:	08 95       	ret

00000e9a <__divmodhi4>:
 e9a:	97 fb       	bst	r25, 7
 e9c:	07 2e       	mov	r0, r23
 e9e:	16 f4       	brtc	.+4      	; 0xea4 <__divmodhi4+0xa>
 ea0:	00 94       	com	r0
 ea2:	06 d0       	rcall	.+12     	; 0xeb0 <__divmodhi4_neg1>
 ea4:	77 fd       	sbrc	r23, 7
 ea6:	08 d0       	rcall	.+16     	; 0xeb8 <__divmodhi4_neg2>
 ea8:	2d d0       	rcall	.+90     	; 0xf04 <__udivmodhi4>
 eaa:	07 fc       	sbrc	r0, 7
 eac:	05 d0       	rcall	.+10     	; 0xeb8 <__divmodhi4_neg2>
 eae:	3e f4       	brtc	.+14     	; 0xebe <__divmodhi4_exit>

00000eb0 <__divmodhi4_neg1>:
 eb0:	90 95       	com	r25
 eb2:	81 95       	neg	r24
 eb4:	9f 4f       	sbci	r25, 0xFF	; 255
 eb6:	08 95       	ret

00000eb8 <__divmodhi4_neg2>:
 eb8:	70 95       	com	r23
 eba:	61 95       	neg	r22
 ebc:	7f 4f       	sbci	r23, 0xFF	; 255

00000ebe <__divmodhi4_exit>:
 ebe:	08 95       	ret

00000ec0 <__udivmodsi4>:
 ec0:	a1 e2       	ldi	r26, 0x21	; 33
 ec2:	1a 2e       	mov	r1, r26
 ec4:	aa 1b       	sub	r26, r26
 ec6:	bb 1b       	sub	r27, r27
 ec8:	fd 01       	movw	r30, r26
 eca:	0d c0       	rjmp	.+26     	; 0xee6 <__udivmodsi4_ep>

00000ecc <__udivmodsi4_loop>:
 ecc:	aa 1f       	adc	r26, r26
 ece:	bb 1f       	adc	r27, r27
 ed0:	ee 1f       	adc	r30, r30
 ed2:	ff 1f       	adc	r31, r31
 ed4:	a2 17       	cp	r26, r18
 ed6:	b3 07       	cpc	r27, r19
 ed8:	e4 07       	cpc	r30, r20
 eda:	f5 07       	cpc	r31, r21
 edc:	20 f0       	brcs	.+8      	; 0xee6 <__udivmodsi4_ep>
 ede:	a2 1b       	sub	r26, r18
 ee0:	b3 0b       	sbc	r27, r19
 ee2:	e4 0b       	sbc	r30, r20
 ee4:	f5 0b       	sbc	r31, r21

00000ee6 <__udivmodsi4_ep>:
 ee6:	66 1f       	adc	r22, r22
 ee8:	77 1f       	adc	r23, r23
 eea:	88 1f       	adc	r24, r24
 eec:	99 1f       	adc	r25, r25
 eee:	1a 94       	dec	r1
 ef0:	69 f7       	brne	.-38     	; 0xecc <__udivmodsi4_loop>
 ef2:	60 95       	com	r22
 ef4:	70 95       	com	r23
 ef6:	80 95       	com	r24
 ef8:	90 95       	com	r25
 efa:	9b 01       	movw	r18, r22
 efc:	ac 01       	movw	r20, r24
 efe:	bd 01       	movw	r22, r26
 f00:	cf 01       	movw	r24, r30
 f02:	08 95       	ret

00000f04 <__udivmodhi4>:
 f04:	aa 1b       	sub	r26, r26
 f06:	bb 1b       	sub	r27, r27
 f08:	51 e1       	ldi	r21, 0x11	; 17
 f0a:	07 c0       	rjmp	.+14     	; 0xf1a <__udivmodhi4_ep>

00000f0c <__udivmodhi4_loop>:
 f0c:	aa 1f       	adc	r26, r26
 f0e:	bb 1f       	adc	r27, r27
 f10:	a6 17       	cp	r26, r22
 f12:	b7 07       	cpc	r27, r23
 f14:	10 f0       	brcs	.+4      	; 0xf1a <__udivmodhi4_ep>
 f16:	a6 1b       	sub	r26, r22
 f18:	b7 0b       	sbc	r27, r23

00000f1a <__udivmodhi4_ep>:
 f1a:	88 1f       	adc	r24, r24
 f1c:	99 1f       	adc	r25, r25
 f1e:	5a 95       	dec	r21
 f20:	a9 f7       	brne	.-22     	; 0xf0c <__udivmodhi4_loop>
 f22:	80 95       	com	r24
 f24:	90 95       	com	r25
 f26:	bc 01       	movw	r22, r24
 f28:	cd 01       	movw	r24, r26
 f2a:	08 95       	ret

00000f2c <__tablejump2__>:
 f2c:	ee 0f       	add	r30, r30
 f2e:	ff 1f       	adc	r31, r31
 f30:	05 90       	lpm	r0, Z+
 f32:	f4 91       	lpm	r31, Z
 f34:	e0 2d       	mov	r30, r0
 f36:	09 94       	ijmp

00000f38 <abort>:
 f38:	81 e0       	ldi	r24, 0x01	; 1
 f3a:	90 e0       	ldi	r25, 0x00	; 0
 f3c:	f8 94       	cli
 f3e:	00 c0       	rjmp	.+0      	; 0xf40 <_exit>

00000f40 <_exit>:
 f40:	f8 94       	cli

00000f42 <__stop_program>:
 f42:	ff cf       	rjmp	.-2      	; 0xf42 <__stop_program>
